Archive member included because of file (symbol)

c:/program files (x86)/microchip/xc32/v1.42/bin/bin/../../lib/gcc/pic32mx/4.8.3\libgcc.a(floatunsisf.o)
                              build/pic32mz_ef_sk_meb2/debug/_ext/493934858/lodepng.o (__floatunsisf)
c:/program files (x86)/microchip/xc32/v1.42/bin/bin/../../lib/gcc/pic32mx/4.8.3/../../../../pic32mx/lib\libpic32.a(memcpy.o)
                              build/pic32mz_ef_sk_meb2/debug/_ext/493934858/lodepng.o (memcpy)
c:/program files (x86)/microchip/xc32/v1.42/bin/bin/../../lib/gcc/pic32mx/4.8.3/../../../../pic32mx/lib\libpic32.a(memset.o)
                              build/pic32mz_ef_sk_meb2/debug/_ext/493934858/lodepng.o (memset)
c:/program files (x86)/microchip/xc32/v1.42/bin/bin/../../lib/gcc/pic32mx/4.8.3/../../../../pic32mx/lib\libpic32.a(strcmp.o)
                              build/pic32mz_ef_sk_meb2/debug/_ext/493934858/lodepng.o (strcmp)
c:/program files (x86)/microchip/xc32/v1.42/bin/bin/../../lib/gcc/pic32mx/4.8.3/../../../../pic32mx/lib\libpic32.a(strcpy.o)
                              build/pic32mz_ef_sk_meb2/debug/_ext/713288229/drv_gfx_lcc_generic.o (strcpy)
c:/program files (x86)/microchip/xc32/v1.42/bin/bin/../../lib/gcc/pic32mx/4.8.3/../../../../pic32mx/lib\libpic32.a(strlen.o)
                              build/pic32mz_ef_sk_meb2/debug/_ext/493934858/lodepng.o (strlen)
c:/program files (x86)/microchip/xc32/v1.42/bin/bin/../../lib/gcc/pic32mx/4.8.3/../../../../pic32mx/lib\libpic32.a(default-bootstrap-exception-handler.o)
                              c:/program files (x86)/microchip/xc32/v1.42/bin/bin/../../lib/gcc/pic32mx/4.8.3/../../../../pic32mx/lib/./proc/32MZ2048ECM144/crt0_mips32r2.o (_bootstrap_exception_handler)
c:/program files (x86)/microchip/xc32/v1.42/bin/bin/../../lib/gcc/pic32mx/4.8.3/../../../../pic32mx/lib\libpic32.a(default-on-reset.o)
                              c:/program files (x86)/microchip/xc32/v1.42/bin/bin/../../lib/gcc/pic32mx/4.8.3/../../../../pic32mx/lib/./proc/32MZ2048ECM144/crt0_mips32r2.o (_on_reset)
c:/program files (x86)/microchip/xc32/v1.42/bin/bin/../../lib/gcc/pic32mx/4.8.3/../../../../pic32mx/lib\libpic32.a(default-on-bootstrap.o)
                              c:/program files (x86)/microchip/xc32/v1.42/bin/bin/../../lib/gcc/pic32mx/4.8.3/../../../../pic32mx/lib/./proc/32MZ2048ECM144/crt0_mips32r2.o (_on_bootstrap)
c:/program files (x86)/microchip/xc32/v1.42/bin/bin/../../lib/gcc/pic32mx/4.8.3/../../../../pic32mx/lib\libpic32.a(default-nmi-handler.o)
                              c:/program files (x86)/microchip/xc32/v1.42/bin/bin/../../lib/gcc/pic32mx/4.8.3/../../../../pic32mx/lib/./proc/32MZ2048ECM144/crt0_mips32r2.o (_nmi_handler)
c:/program files (x86)/microchip/xc32/v1.42/bin/bin/../../lib/gcc/pic32mx/4.8.3/../../../../pic32mx/lib\libpic32.a(pic32_init_cache.o)
                              c:/program files (x86)/microchip/xc32/v1.42/bin/bin/../../lib/gcc/pic32mx/4.8.3/../../../../pic32mx/lib/./proc/32MZ2048ECM144/crt0_mips32r2.o (__pic32_init_cache)
c:/program files (x86)/microchip/xc32/v1.42/bin/bin/../../lib/gcc/pic32mx/4.8.3/../../../../pic32mx/lib\libpic32.a(pic32_init_tlb_ebi_sqi.o)
                              c:/program files (x86)/microchip/xc32/v1.42/bin/bin/../../lib/gcc/pic32mx/4.8.3/../../../../pic32mx/lib/./proc/32MZ2048ECM144/crt0_mips32r2.o (__pic32_tlb_init_ebi_sqi)
c:/program files (x86)/microchip/xc32/v1.42/bin/bin/../../lib/gcc/pic32mx/4.8.3/../../../../pic32mx/lib\libpic32.a(general-exception.o)
                              c:/program files (x86)/microchip/xc32/v1.42/bin/bin/../../lib/gcc/pic32mx/4.8.3/../../../../pic32mx/lib/./proc/32MZ2048ECM144/crt0_mips32r2.o (_general_exception_context)
c:/program files (x86)/microchip/xc32/v1.42/bin/bin/../../lib/gcc/pic32mx/4.8.3/../../../../pic32mx/lib\libpic32.a(cache-err-exception.o)
                              c:/program files (x86)/microchip/xc32/v1.42/bin/bin/../../lib/gcc/pic32mx/4.8.3/../../../../pic32mx/lib/./proc/32MZ2048ECM144/crt0_mips32r2.o (_cache_err_exception_context)
c:/program files (x86)/microchip/xc32/v1.42/bin/bin/../../lib/gcc/pic32mx/4.8.3/../../../../pic32mx/lib\libpic32.a(simple-tlb-refill-exception.o)
                              c:/program files (x86)/microchip/xc32/v1.42/bin/bin/../../lib/gcc/pic32mx/4.8.3/../../../../pic32mx/lib/./proc/32MZ2048ECM144/crt0_mips32r2.o (_simple_tlb_refill_exception_context)
c:/program files (x86)/microchip/xc32/v1.42/bin/bin/../../lib/gcc/pic32mx/4.8.3/../../../../pic32mx/lib\libpic32.a(defaultinterrupt.o)
                              c:/program files (x86)/microchip/xc32/v1.42/bin/bin/../../lib/gcc/pic32mx/4.8.3/../../../../pic32mx/lib/./proc/32MZ2048ECM144\default_isr_vectors.o (_DefaultInterrupt)
c:/program files (x86)/microchip/xc32/v1.42/bin/bin/../../lib/gcc/pic32mx/4.8.3/../../../../pic32mx/lib\libpic32.a(default-cache-err-exception-handler.o)
                              c:/program files (x86)/microchip/xc32/v1.42/bin/bin/../../lib/gcc/pic32mx/4.8.3/../../../../pic32mx/lib\libpic32.a(cache-err-exception.o) (_cache_err_exception_handler)
c:/program files (x86)/microchip/xc32/v1.42/bin/bin/../../lib/gcc/pic32mx/4.8.3/../../../../pic32mx/lib\libpic32.a(default-simple-tlb-refill-exception-handler.o)
                              c:/program files (x86)/microchip/xc32/v1.42/bin/bin/../../lib/gcc/pic32mx/4.8.3/../../../../pic32mx/lib\libpic32.a(simple-tlb-refill-exception.o) (_simple_tlb_refill_exception_handler)
c:/program files (x86)/microchip/xc32/v1.42/bin/bin/../../lib/gcc/pic32mx/4.8.3/../../../../pic32mx/lib\libm.a(fp32div.o)
                              build/pic32mz_ef_sk_meb2/debug/_ext/493934858/lodepng.o (fpdiv)
c:/program files (x86)/microchip/xc32/v1.42/bin/bin/../../lib/gcc/pic32mx/4.8.3/../../../../pic32mx/lib\libm.a(fp32mul.o)
                              build/pic32mz_ef_sk_meb2/debug/_ext/493934858/lodepng.o (fpmul)
c:/program files (x86)/microchip/xc32/v1.42/bin/bin/../../lib/gcc/pic32mx/4.8.3/../../../../pic32mx/lib\libm.a(fp32subadd.o)
                              build/pic32mz_ef_sk_meb2/debug/_ext/493934858/lodepng.o (fpsub)
c:/program files (x86)/microchip/xc32/v1.42/bin/bin/../../lib/gcc/pic32mx/4.8.3/../../../../pic32mx/lib\libm.a(fpcmp.o)
                              build/pic32mz_ef_sk_meb2/debug/_ext/493934858/lodepng.o (fpcmp)
c:/program files (x86)/microchip/xc32/v1.42/bin/bin/../../lib/gcc/pic32mx/4.8.3/../../../../pic32mx/lib\libm.a(fptoul.o)
                              build/pic32mz_ef_sk_meb2/debug/_ext/1847583374/gfx_math.o (fptoui)
c:/program files (x86)/microchip/xc32/v1.42/bin/bin/../../lib/gcc/pic32mx/4.8.3/../../../../pic32mx/lib\libm.a(sitofp.o)
                              c:/program files (x86)/microchip/xc32/v1.42/bin/bin/../../lib/gcc/pic32mx/4.8.3\libgcc.a(floatunsisf.o) (sitofp)
c:/program files (x86)/microchip/xc32/v1.42/bin/bin/../../lib/gcc/pic32mx/4.8.3/../../../../pic32mx/lib\libc.a(fclose.o)
                              build/pic32mz_ef_sk_meb2/debug/_ext/493934858/lodepng.o (fclose)
c:/program files (x86)/microchip/xc32/v1.42/bin/bin/../../lib/gcc/pic32mx/4.8.3/../../../../pic32mx/lib\libc.a(fflush.o)
                              c:/program files (x86)/microchip/xc32/v1.42/bin/bin/../../lib/gcc/pic32mx/4.8.3/../../../../pic32mx/lib\libc.a(fclose.o) (fflush)
c:/program files (x86)/microchip/xc32/v1.42/bin/bin/../../lib/gcc/pic32mx/4.8.3/../../../../pic32mx/lib\libc.a(fopen.o)
                              build/pic32mz_ef_sk_meb2/debug/_ext/493934858/lodepng.o (fopen)
c:/program files (x86)/microchip/xc32/v1.42/bin/bin/../../lib/gcc/pic32mx/4.8.3/../../../../pic32mx/lib\libc.a(fread.o)
                              build/pic32mz_ef_sk_meb2/debug/_ext/493934858/lodepng.o (fread)
c:/program files (x86)/microchip/xc32/v1.42/bin/bin/../../lib/gcc/pic32mx/4.8.3/../../../../pic32mx/lib\libc.a(freopen.o)
                              c:/program files (x86)/microchip/xc32/v1.42/bin/bin/../../lib/gcc/pic32mx/4.8.3/../../../../pic32mx/lib\libc.a(fopen.o) (freopen)
c:/program files (x86)/microchip/xc32/v1.42/bin/bin/../../lib/gcc/pic32mx/4.8.3/../../../../pic32mx/lib\libc.a(fseek.o)
                              build/pic32mz_ef_sk_meb2/debug/_ext/493934858/lodepng.o (ftell)
c:/program files (x86)/microchip/xc32/v1.42/bin/bin/../../lib/gcc/pic32mx/4.8.3/../../../../pic32mx/lib\libc.a(fwrite.o)
                              build/pic32mz_ef_sk_meb2/debug/_ext/493934858/lodepng.o (fwrite)
c:/program files (x86)/microchip/xc32/v1.42/bin/bin/../../lib/gcc/pic32mx/4.8.3/../../../../pic32mx/lib\libc.a(buf.o)
                              c:/program files (x86)/microchip/xc32/v1.42/bin/bin/../../lib/gcc/pic32mx/4.8.3/../../../../pic32mx/lib\libc.a(freopen.o) (_bufallo)
c:/program files (x86)/microchip/xc32/v1.42/bin/bin/../../lib/gcc/pic32mx/4.8.3/../../../../pic32mx/lib\libc.a(calloc.o)
                              build/pic32mz_ef_sk_meb2/debug/_ext/1907747181/libaria_context.o (calloc)
c:/program files (x86)/microchip/xc32/v1.42/bin/bin/../../lib/gcc/pic32mx/4.8.3/../../../../pic32mx/lib\libc.a(errno.o)
                              c:/program files (x86)/microchip/xc32/v1.42/bin/bin/../../lib/gcc/pic32mx/4.8.3/../../../../pic32mx/lib\libc.a(buf.o) (errno)
c:/program files (x86)/microchip/xc32/v1.42/bin/bin/../../lib/gcc/pic32mx/4.8.3/../../../../pic32mx/lib\libc.a(malloc.o)
                              build/pic32mz_ef_sk_meb2/debug/_ext/493934858/lodepng.o (malloc)
c:/program files (x86)/microchip/xc32/v1.42/bin/bin/../../lib/gcc/pic32mx/4.8.3/../../../../pic32mx/lib\libc.a(tfiles.o)
                              c:/program files (x86)/microchip/xc32/v1.42/bin/bin/../../lib/gcc/pic32mx/4.8.3/../../../../pic32mx/lib\libc.a(fclose.o) (_tfilesptr)
c:/program files (x86)/microchip/xc32/v1.42/bin/bin/../../lib/gcc/pic32mx/4.8.3/../../../../pic32mx/lib\libc.a(_iob.o)
                              c:/program files (x86)/microchip/xc32/v1.42/bin/bin/../../lib/gcc/pic32mx/4.8.3/../../../../pic32mx/lib\libc.a(fopen.o) (_iob)
c:/program files (x86)/microchip/xc32/v1.42/bin/bin/../../lib/gcc/pic32mx/4.8.3/../../../../pic32mx/lib\libc.a(fgetc.o)
                              c:/program files (x86)/microchip/xc32/v1.42/bin/bin/../../lib/gcc/pic32mx/4.8.3/../../../../pic32mx/lib\libc.a(fread.o) (fgetc)
c:/program files (x86)/microchip/xc32/v1.42/bin/bin/../../lib/gcc/pic32mx/4.8.3/../../../../pic32mx/lib\libc.a(_fputc_simple.o)
                              c:/program files (x86)/microchip/xc32/v1.42/bin/bin/../../lib/gcc/pic32mx/4.8.3/../../../../pic32mx/lib\libc.a(fwrite.o) (fputc)
c:/program files (x86)/microchip/xc32/v1.42/bin/bin/../../lib/gcc/pic32mx/4.8.3/../../../../pic32mx/lib\libc.a(filbuf.o)
                              c:/program files (x86)/microchip/xc32/v1.42/bin/bin/../../lib/gcc/pic32mx/4.8.3/../../../../pic32mx/lib\libc.a(fgetc.o) (_filbuf)
c:/program files (x86)/microchip/xc32/v1.42/bin/bin/../../lib/gcc/pic32mx/4.8.3/../../../../pic32mx/lib\libc.a(_flsbuf_simple.o)
                              c:/program files (x86)/microchip/xc32/v1.42/bin/bin/../../lib/gcc/pic32mx/4.8.3/../../../../pic32mx/lib\libc.a(_fputc_simple.o) (_flsbuf)
c:/program files (x86)/microchip/xc32/v1.42/bin/bin/../../lib/gcc/pic32mx/4.8.3/../../../../pic32mx/lib\libpic32.a(sbrk.o)
                              c:/program files (x86)/microchip/xc32/v1.42/bin/bin/../../lib/gcc/pic32mx/4.8.3/../../../../pic32mx/lib\libc.a(buf.o) (sbrk)
c:/program files (x86)/microchip/xc32/v1.42/bin/bin/../../lib/gcc/pic32mx/4.8.3/../../../../pic32mx/lib\libpic32.a(read.o)
                              c:/program files (x86)/microchip/xc32/v1.42/bin/bin/../../lib/gcc/pic32mx/4.8.3/../../../../pic32mx/lib\libc.a(filbuf.o) (read)
c:/program files (x86)/microchip/xc32/v1.42/bin/bin/../../lib/gcc/pic32mx/4.8.3/../../../../pic32mx/lib\libpic32.a(write.o)
                              c:/program files (x86)/microchip/xc32/v1.42/bin/bin/../../lib/gcc/pic32mx/4.8.3/../../../../pic32mx/lib\libc.a(fflush.o) (write)
c:/program files (x86)/microchip/xc32/v1.42/bin/bin/../../lib/gcc/pic32mx/4.8.3/../../../../pic32mx/lib\libpic32.a(lseek.o)
                              c:/program files (x86)/microchip/xc32/v1.42/bin/bin/../../lib/gcc/pic32mx/4.8.3/../../../../pic32mx/lib\libc.a(fseek.o) (lseek)
c:/program files (x86)/microchip/xc32/v1.42/bin/bin/../../lib/gcc/pic32mx/4.8.3/../../../../pic32mx/lib\libpic32.a(remove.o)
                              c:/program files (x86)/microchip/xc32/v1.42/bin/bin/../../lib/gcc/pic32mx/4.8.3/../../../../pic32mx/lib\libc.a(fclose.o) (remove)
c:/program files (x86)/microchip/xc32/v1.42/bin/bin/../../lib/gcc/pic32mx/4.8.3/../../../../pic32mx/lib\libpic32.a(close.o)
                              c:/program files (x86)/microchip/xc32/v1.42/bin/bin/../../lib/gcc/pic32mx/4.8.3/../../../../pic32mx/lib\libc.a(fclose.o) (close)
c:/program files (x86)/microchip/xc32/v1.42/bin/bin/../../lib/gcc/pic32mx/4.8.3/../../../../pic32mx/lib\libpic32.a(open.o)
                              c:/program files (x86)/microchip/xc32/v1.42/bin/bin/../../lib/gcc/pic32mx/4.8.3/../../../../pic32mx/lib\libc.a(freopen.o) (open)
c:/program files (x86)/microchip/xc32/v1.42/bin/bin/../../lib/gcc/pic32mx/4.8.3/../../../../pic32mx/lib\libpic32.a(xc32_uart.o)
                              c:/program files (x86)/microchip/xc32/v1.42/bin/bin/../../lib/gcc/pic32mx/4.8.3/../../../../pic32mx/lib\libpic32.a(read.o) (__XC_UART)
c:/program files (x86)/microchip/xc32/v1.42/bin/bin/../../lib/gcc/pic32mx/4.8.3/../../../../pic32mx/lib\libpic32.a(_mon_putc.o)
                              c:/program files (x86)/microchip/xc32/v1.42/bin/bin/../../lib/gcc/pic32mx/4.8.3/../../../../pic32mx/lib\libpic32.a(write.o) (_mon_putc)

Allocating common symbols
Common symbol       size              file

DISP_VER_RESOLUTION
                    0x4               build/pic32mz_ef_sk_meb2/debug/_ext/713288229/drv_gfx_lcc_generic.o
VER_BLANK           0x4               build/pic32mz_ef_sk_meb2/debug/_ext/713288229/drv_gfx_lcc_generic.o
delayTimer          0x4               build/pic32mz_ef_sk_meb2/debug/_ext/1360937237/app.o
sysObj              0x8               build/pic32mz_ef_sk_meb2/debug/_ext/1951523377/system_init.o
state               0x4               build/pic32mz_ef_sk_meb2/debug/_ext/713288229/drv_gfx_lcc_generic.o
libariaObj          0x4               build/pic32mz_ef_sk_meb2/debug/_ext/1740298103/libaria_harmony.o
clkObject           0xb0              build/pic32mz_ef_sk_meb2/debug/_ext/1847413222/sys_clk.o
last                0x4               build/pic32mz_ef_sk_meb2/debug/_ext/1847583374/gfx_color_blend.o
HBackPorch          0x2               build/pic32mz_ef_sk_meb2/debug/_ext/713288229/drv_gfx_lcc_generic.o
ImageWidget1        0x4               build/pic32mz_ef_sk_meb2/debug/_ext/1740298103/libaria_init.o
cntxt               0x4               build/pic32mz_ef_sk_meb2/debug/_ext/713288229/drv_gfx_lcc_generic.o
sysDevconObj        0x8               build/pic32mz_ef_sk_meb2/debug/_ext/924081491/sys_devcon.o
i2c0ClientObj       0x8               build/pic32mz_ef_sk_meb2/debug/_ext/1219754583/drv_i2c_static_buffer_model.o
LabelWidget1        0x4               build/pic32mz_ef_sk_meb2/debug/_ext/1740298103/libaria_init.o
DISP_VER_BACK_PORCH
                    0x4               build/pic32mz_ef_sk_meb2/debug/_ext/713288229/drv_gfx_lcc_generic.o
DISP_HOR_FRONT_PORCH
                    0x4               build/pic32mz_ef_sk_meb2/debug/_ext/713288229/drv_gfx_lcc_generic.o
DISP_HOR_PULSE_WIDTH
                    0x4               build/pic32mz_ef_sk_meb2/debug/_ext/713288229/drv_gfx_lcc_generic.o
DISP_VER_PULSE_WIDTH
                    0x4               build/pic32mz_ef_sk_meb2/debug/_ext/713288229/drv_gfx_lcc_generic.o
defaultScheme       0x40              build/pic32mz_ef_sk_meb2/debug/_ext/1740298103/libaria_init.o
ButtonWidget1       0x4               build/pic32mz_ef_sk_meb2/debug/_ext/1740298103/libaria_init.o
DISP_HOR_RESOLUTION
                    0x4               build/pic32mz_ef_sk_meb2/debug/_ext/713288229/drv_gfx_lcc_generic.o
ov2640I2CHandler    0x4               build/pic32mz_ef_sk_meb2/debug/_ext/1360937237/ov2640.o
delay_ms            0x4               build/pic32mz_ef_sk_meb2/debug/_ext/1360937237/app.o
DISP_HOR_BACK_PORCH
                    0x4               build/pic32mz_ef_sk_meb2/debug/_ext/713288229/drv_gfx_lcc_generic.o
i2c0Obj             0x2c              build/pic32mz_ef_sk_meb2/debug/_ext/1219754583/drv_i2c_static_buffer_model.o
gSysDMAChannelObj   0x80              build/pic32mz_ef_sk_meb2/debug/_ext/853959373/sys_dma.o
DISP_VER_FRONT_PORCH
                    0x4               build/pic32mz_ef_sk_meb2/debug/_ext/713288229/drv_gfx_lcc_generic.o
appData             0x4               build/pic32mz_ef_sk_meb2/debug/_ext/1360937237/app.o
lBufferObj0         0x4               build/pic32mz_ef_sk_meb2/debug/_ext/1219754583/drv_i2c_static_buffer_model.o
i2c0State           0x4               build/pic32mz_ef_sk_meb2/debug/_ext/1219754583/drv_i2c_static_buffer_model.o
i2cOpStatus         0x4               build/pic32mz_ef_sk_meb2/debug/_ext/1360937237/app.o
RectangleWidget1    0x4               build/pic32mz_ef_sk_meb2/debug/_ext/1740298103/libaria_init.o

Microchip PIC32 Memory-Usage Report

kseg0 Program-Memory Usage
section                    address  length [bytes]      (dec)  Description
-------                 ----------  -------------------------  -----------
.simple_tlb_refill_excp 0x9d000000           0x10          16   
.text.GFXU_DrawString   0x9d000010           0xf0         240   
.cache_err_excpt        0x9d000100           0x10          16   
.text.laList_Find       0x9d000110           0x70         112   
.app_excpt              0x9d000180           0x10          16  General-Exception 
.text.laString_CreateFr 0x9d000190           0x70         112   
.vectors                0x9d000200           0x70         112   
.dinit                  0x9d000270         0x2da0       11680   
.rodata                 0x9d003010         0x16ac        5804  Read-only const 
.text.lodepng_decode    0x9d0046bc         0x15cc        5580   
.text.GFXU_DrawImageJpg 0x9d005c88          0xfe4        4068   
.text.lodepng_inflate   0x9d006c6c          0x978        2424   
.text.JPEG_bReadHeader  0x9d0075e4          0x880        2176   
.rodata                 0x9d007e64          0x878        2168  Read-only const 
.text.DRV_I2C0_Tasks    0x9d0086dc          0x834        2100   
.text.jpeg_idct_islow   0x9d008f10          0x6b8        1720   
.text.getPixelColorsRGB 0x9d0095c8          0x540        1344   
.text.lodepng_convert   0x9d009b08          0x538        1336   
.text.run               0x9d00a040          0xa28        2600   
.text.contextDefInitial 0x9d00aa68          0x45c        1116   
.text.run               0x9d00aec4          0x434        1076   
.text.getPixelColorRGBA 0x9d00b2f8          0x400        1024   
.text.unfilter          0x9d00b6f8          0x390         912   
.text.HuffmanTree_makeF 0x9d00ba88          0x350         848   
.text.cpuDrawBlit       0x9d00bdd8          0x350         848   
.text.GFXU_DrawImageRLE 0x9d00c128          0x318         792   
.text.GFX_Open          0x9d00c440          0x30c         780   
.text.malloc            0x9d00c74c          0x288         648   
.text.fpsubadd          0x9d00c9d4          0x278         632   
.text.drawImage         0x9d00cc4c          0x264         612   
.text.laUtils_ArrangeRe 0x9d00ceb0          0x260         608   
.text.GFXU_DrawImage    0x9d00d110          0x250         592   
.text.ScreenCreate_defa 0x9d00d360          0x250         592   
.text.lodepng_inspect   0x9d00d5b0          0x24c         588   
.text._laContext_PaintW 0x9d00d7fc          0x240         576   
.text.fp32div           0x9d00da3c          0x230         560   
.text.getPixelColorRGBA 0x9d00dc6c          0x224         548   
.text.SYS_PORTS_Initial 0x9d00de90          0x210         528   
.text.drawImage         0x9d00e0a0          0x204         516   
.text.lccInitialize     0x9d00e2a4          0x200         512   
.text.laUtils_ArrangeRe 0x9d00e4a4          0x1fc         508   
.text.GFXU_DecodeUTF8   0x9d00e6a0          0x1f8         504   
.text.DRV_GFX_LCC_Displ 0x9d00e898          0x1f8         504   
.text.lodepng_add_itext 0x9d00ea90          0x1f0         496   
.text.drawString        0x9d00ec80          0x1f0         496   
.text.lodepng_zlib_deco 0x9d00ee70          0x1dc         476   
.text.GFXU_DrawImagePng 0x9d00f04c          0x1d0         464   
.text.fp32mul           0x9d00f21c          0x1bc         444   
.text.GFXU_DrawImageRaw 0x9d00f3d8          0x1b8         440   
.text.SYS_CLK_Initializ 0x9d00f590          0x1b8         440   
.text.IntHandlerDrvTmrI 0x9d00f748          0x1b0         432   
.text.laDraw_2x2BevelBo 0x9d00f8f8          0x1ac         428   
.text.laScheme_Initiali 0x9d00faa4          0x1a4         420   
.text._IntHandlerSysDma 0x9d00fc48          0x1a4         420   
.text._IntHandlerDrvI2C 0x9d00fdec          0x1a0         416   
.text                   0x9d00ff8c          0x1a0         416  App's exec code 
.text.Adam7_getpassvalu 0x9d01012c          0x19c         412   
.text._LCCRefreshISR    0x9d0102c8          0x19c         412   
.text.cpuDrawLine       0x9d010464          0x198         408   
.text._sbrk_init        0x9d0105fc          0x194         404   
.text.GFXU_DecodeAndDra 0x9d010790          0x188         392   
.text.drawBackground    0x9d010918          0x180         384   
.text.drawString        0x9d010a98          0x17c         380   
.text.laContext_Create  0x9d010c14          0x174         372   
.text.SYS_DMA_ChannelSe 0x9d010d88          0x16c         364   
.text.GFXU_CompareStrin 0x9d010ef4          0x168         360   
.text.defColorModeSet   0x9d01105c          0x168         360   
.text.DRV_I2C0_Initiali 0x9d0111c4          0x168         360   
.text                   0x9d01132c          0x2d0         720  App's exec code 
.text.GFXU_DrawStringBu 0x9d0115fc          0x15c         348   
.text.blend_rgb565      0x9d011758          0x15c         348   
.text.SYS_DMA_ChannelTr 0x9d0118b4          0x15c         348   
.text._DRV_I2C0_MasterS 0x9d011a10          0x15c         348   
.text.laDraw_1x2BevelBo 0x9d011b6c          0x158         344   
.text.blend_rgba8888    0x9d011cc4          0x154         340   
.text.GFX_LayerOriginFr 0x9d011e18          0x14c         332   
.text.realloc           0x9d011f64          0x14c         332   
.text.cpuDrawCircle_Lin 0x9d0120b0          0x148         328   
.text.cpuDrawRect_Fill  0x9d0121f8          0x144         324   
.text.JPEG_bGet1Bit     0x9d01233c          0x140         320   
.text.rleReadRequestCom 0x9d01247c          0x140         320   
.text.cpuDrawRect_Gradi 0x9d0125bc          0x140         320   
.text.cpuDrawRect_Gradi 0x9d0126fc          0x140         320   
.text.cpuDrawLine_Thick 0x9d01283c          0x13c         316   
.text.lccUpdate         0x9d012978          0x138         312   
.text.GFX_Close         0x9d012ab0          0x134         308   
.text.defOrientationSet 0x9d012be4          0x134         308   
.text.setLayerAttribute 0x9d012d18          0x12c         300   
.text.drawEdge          0x9d012e44          0x12c         300   
.text.checkColorValidit 0x9d012f70          0x128         296   
.rodata                 0x9d013098          0x128         296  Read-only const 
.text._laWidget_Invalid 0x9d0131c0          0x124         292   
.text.drawBackground    0x9d0132e4          0x124         292   
.text.GFX_LayerOriginTo 0x9d013408          0x124         292   
.text.stringDataRequest 0x9d01352c          0x11c         284   
.text.GFXU_CalculateStr 0x9d013648          0x118         280   
.text._laContext_Paint  0x9d013760          0x118         280   
.text.laWidget_Invalida 0x9d013878          0x118         280   
.text.cpuDrawPixel_Unsa 0x9d013990          0x118         280   
.text.DRV_I2C0_Transmit 0x9d013aa8          0x118         280   
.text.lodepng_add_text  0x9d013bc0          0x114         276   
.text._laWidget_Constru 0x9d013cd4          0x114         276   
.text.defDestroy        0x9d013de8          0x110         272   
.text._occlusionCullTes 0x9d013ef8          0x10c         268   
.text.touchUp           0x9d014004          0x108         264   
.text.layerBufferAlloca 0x9d01410c          0x108         264   
.text.SYS_DEVCON_Perfor 0x9d014214          0x104         260   
.text.color_tree_add    0x9d014318          0x100         256   
.text.laString_Compare  0x9d014418           0xfc         252   
.text.drawBackground    0x9d014514          0x1f8         504   
.text.cpuDrawRect_Line  0x9d01470c           0xf8         248   
.text.SYS_DMA_TasksISR  0x9d014804           0xf8         248   
.text.laList_Remove     0x9d0148fc           0xf4         244   
.text.defMirroringSet   0x9d0149f0           0xf0         240   
.text.defLayerBufferCou 0x9d014ae0           0xf0         240   
.text.SYS_Initialize    0x9d014bd0           0xf0         240   
.text.laScreen_Hide     0x9d014cc0           0xec         236   
.text.laString_Copy     0x9d014dac           0xec         236   
.text.laUtils_Occlusion 0x9d014e98           0xec         236   
.text.touchMoved        0x9d014f84           0xec         236   
.text.getRLEDataAtIndex 0x9d015070           0xe8         232   
.text.laUtils_Pick      0x9d015158           0xe8         232   
.text.GFX_PixelBufferCr 0x9d015240           0xe8         232   
.text.lodepng_color_mod 0x9d015328           0xe4         228   
.text.laString_Draw     0x9d01540c           0xe4         228   
.text.drawBackground    0x9d0154f0           0xe4         228   
.text.GFXU_DrawImageRaw 0x9d0155d4           0xe0         224   
.text.GFXU_DrawImageRLE 0x9d0156b4           0xe0         224   
.text.GFX_DrawLine      0x9d015794           0xe0         224   
.text.lodepng_color_mod 0x9d015874           0xdc         220   
.text.waitImage         0x9d015950           0xdc         220   
.text.GFX_DrawRect      0x9d015a2c           0xdc         220   
.text.GFX_DrawBlit      0x9d015b08           0xdc         220   
.text.general_exception 0x9d015be4           0xdc         220   
.text.drawBorder        0x9d015cc0           0xd8         216   
.text.defInitialize     0x9d015d98           0xd8         216   
.text._cache_err_except 0x9d015e70           0xd8         216   
.text.simple_tlb_refill 0x9d015f48           0xd8         216   
.text.generateFixedLitL 0x9d016020           0xd4         212   
.text.GFXU_DrawStringEx 0x9d0160f4           0xd0         208   
.text.laEvent_ProcessEv 0x9d0161c4           0xd0         208   
.text.drawBorder        0x9d016294          0x340         832   
.text.color_tree_get    0x9d0165d4           0xcc         204   
.text.LodePNGIText_clea 0x9d0166a0           0xc8         200   
.text.lodepng_chunk_app 0x9d016768           0xc8         200   
.text.GFXU_CalculateCha 0x9d016830           0xc8         200   
.text.laScreen_Show     0x9d0168f8           0xc8         200   
.text._sbrk             0x9d0169c0           0xc8         200   
.text.ov2640Initialisat 0x9d016a88           0xc4         196   
.text.drawGlyphRow8bpp  0x9d016b4c           0xc4         196   
.text.touchDown         0x9d016c10           0xc4         196   
.text.libaria_initializ 0x9d016cd4           0xc4         196   
.text.removePaddingBits 0x9d016d98           0xc0         192   
.text.la_strcmp         0x9d016e58           0xc0         192   
.text.pickChild         0x9d016f18           0xc0         192   
.text.JPEG_bGetNextHuff 0x9d016fd8           0xbc         188   
.text.defLayerBufferAdd 0x9d017094           0xbc         188   
.tlb.__pic32_tlb_init_e 0x9d017150           0xbc         188   
.text.APP_Tasks         0x9d01720c           0xb4         180   
.text.drawGlyphRow1bpp  0x9d0172c0           0xb0         176   
.text.GFXU_FontGetLooku 0x9d017370           0xb0         176   
.text.GFX_DrawPixel     0x9d017420           0xb0         176   
.text.get_displayInfo   0x9d0174d0           0xb0         176   
.text.lerp_argb8888     0x9d017580           0xb0         176   
.text.lerp_rgba8888     0x9d017630           0xb0         176   
.text._DRV_I2C_QueueSlo 0x9d0176e0           0xb0         176   
.text.GFXU_GetStringRec 0x9d017790           0xac         172   
.text.laString_GetRect  0x9d01783c           0xac         172   
.text.laWidget_GetCumul 0x9d0178e8           0xac         172   
.text._laButtonWidget_C 0x9d017994           0xac         172   
.text.BSP_LEDOff        0x9d017a40           0xac         172   
.text.waitString        0x9d017aec           0xa8         168   
.text.waitImage         0x9d017b94           0xa8         168   
.text.waitString        0x9d017c3c           0xa8         168   
.text                   0x9d017ce4           0xa8         168  App's exec code 
.text.laScreen_New      0x9d017d8c           0xa4         164   
.text.cpuDrawLineHorz   0x9d017e30           0xa4         164   
.text.HuffmanTree_makeF 0x9d017ed4           0xa0         160   
.text.imageReadRequestC 0x9d017f74           0xa0         160   
.text.GFXU_DecodeUTF16  0x9d018014           0xa0         160   
.text.laContext_SetActi 0x9d0180b4           0xa0         160   
.text.laWidget_AddChild 0x9d018154           0xa0         160   
.text.cpuDrawLineVert   0x9d0181f4           0xa0         160   
.text.laContext_RedrawA 0x9d018294           0x9c         156   
.text.laLayer_New       0x9d018330           0x9c         156   
.text.GFX_PixelBufferSe 0x9d0183cc           0x9c         156   
.text.lerp_rgba5551     0x9d018468           0x98         152   
.text.GFXU_FontGetGlyph 0x9d018500           0x94         148   
.text.laList_PushBack   0x9d018594           0x94         148   
.text.laUtils_ClipRectT 0x9d018628           0x94         148   
.text.laWidget_SetSize  0x9d0186bc           0x94         148   
.text._laRectangleWidge 0x9d018750           0x94         148   
.text.GFX_PixelBufferCl 0x9d0187e4           0x94         148   
.text.DRV_TMR0_Initiali 0x9d018878           0x94         148   
.text.LodePNGText_clean 0x9d01890c           0x90         144   
.text.laContext_SetEdit 0x9d01899c           0x90         144   
.text.cpuDrawPixel      0x9d018a2c           0x90         144   
.text.lodepng_decode_me 0x9d018abc           0x8c         140   
.text.GFXU_StringLookup 0x9d018b48           0x8c         140   
.text.laList_Destroy    0x9d018bd4           0x8c         140   
.text.GFX_RectClip      0x9d018c60           0x8c         140   
.text.lodepng_chunk_typ 0x9d018cec           0x88         136   
.text.laWidget_SetPosit 0x9d018d74           0x88         136   
.text.defDrawPaletteSet 0x9d018dfc           0x88         136   
.text._IntHandlerDrvI2C 0x9d018e84           0x88         136   
.text.string_set        0x9d018f0c           0x84         132   
.text.uivector_resize   0x9d018f90           0x84         132   
.text.lodepng_info_init 0x9d019014           0x84         132   
.text.defLayerPositionS 0x9d019098           0x84         132   
.text.uivector_resizev  0x9d01911c           0x80         128   
.text.generateFixedDist 0x9d01919c           0x80         128   
.text.GFXU_DrawStringIn 0x9d01921c           0x80         128   
.text.layerBufferFree   0x9d01929c           0x80         128   
.text.defLayerSwapSet   0x9d01931c           0x80         128   
.text.lerp_rgb888       0x9d01939c           0x80         128   
.text.lerp_rgb565       0x9d01941c           0x80         128   
.text.lerp_rgb332       0x9d01949c           0x80         128   
.text.readBitsFromRever 0x9d01951c           0x7c         124   
.text.blend_argb8888    0x9d019598           0x7c         124   
.text.GFX_PercentOf     0x9d019614           0x7c         124   
.text.DRV_TMR0_Tasks    0x9d019690           0x7c         124   
.text.fptoul            0x9d01970c           0x7c         124   
.text.huffmanDecodeSymb 0x9d019788           0x78         120   
.text.addColorBits      0x9d019800           0x78         120   
.text.paethPredictor    0x9d019878           0x78         120   
.text.GFXU_StringIndexL 0x9d0198f0           0x78         120   
.text.handleTouchDown   0x9d019968           0x78         120   
.text.laList_Clear      0x9d0199e0           0x78         120   
.text._laWidget_Destruc 0x9d019a58           0x78         120   
.text.GFX_PixelBufferGe 0x9d019ad0           0x78         120   
.text.ucvector_reserve  0x9d019b48           0x74         116   
.text.GFXU_StringFontIn 0x9d019bbc           0x74         116   
.text.GFXU_DrawUnknownG 0x9d019c30           0x74         116   
.text.laContext_SetFocu 0x9d019ca4           0x74         116   
.text.laScreen_SetLayer 0x9d019d18           0x74         116   
.text.laUtils_ChildInte 0x9d019d8c           0x74         116   
.text.GFX_RectContainsR 0x9d019e00           0x74         116   
.text.GFX_RectIntersect 0x9d019e74           0x74         116   
.text.laUtils_RectToScr 0x9d019ee8           0x70         112   
.text.GFX_Set           0x9d019f58           0x70         112   
.text.GFX_ScaleInteger  0x9d019fc8           0x70         112   
.text.GFX_Lerp          0x9d01a038           0x70         112   
.text.LibAria_Initializ 0x9d01a0a8           0x70         112   
.text.JPEG_wGetBits     0x9d01a118           0x6c         108   
.text.laString_Destroy  0x9d01a184           0x6c         108   
.text.laUtils_GetLayer  0x9d01a1f0           0x6c         108   
.text._laLabelWidget_Co 0x9d01a25c           0x6c         108   
.text.SYS_DMA_Initializ 0x9d01a2c8           0x6c         108   
.text._SYS_CLK_Peripher 0x9d01a334           0x6c         108   
.text.setBitOfReversedS 0x9d01a3a0           0x68         104   
.text.laContext_GetScre 0x9d01a408           0x68         104   
.text._laImageWidget_Co 0x9d01a470           0x68         104   
.text.defDrawGradientCo 0x9d01a4d8           0x68         104   
.text.GFX_PixelBufferOf 0x9d01a540           0x68         104   
.text.GFX_PixelBufferSe 0x9d01a5a8           0x68         104   
.text.getNumColorChanne 0x9d01a610           0x64         100   
.text._laLayer_Moved    0x9d01a674           0x64         100   
.text._laLayer_Resized  0x9d01a6d8           0x64         100   
.text._laLayer_Paint    0x9d01a73c           0x64         100   
.text.isAncestorOf      0x9d01a7a0           0x64         100   
.text.laWidget_RemoveCh 0x9d01a804           0x64         100   
.text.laButtonWidget_Se 0x9d01a868           0x64         100   
.text.laLabelWidget_Set 0x9d01a8cc           0x64         100   
.text._laRectangleWidge 0x9d01a930           0x64         100   
.text.defLayerSizeGet   0x9d01a994           0x64         100   
.text.defLayerSizeSet   0x9d01a9f8           0x64         100   
.text.indexGet          0x9d01aa5c           0x64         100   
.text.rgb565_gs8        0x9d01aac0           0x64         100   
.text.rgb332_gs8        0x9d01ab24           0x64         100   
.text.JPEG_wReadWord    0x9d01ab88           0x60          96   
.text.JPEG_sGetBitsValu 0x9d01abe8           0x60          96   
.text.color_tree_cleanu 0x9d01ac48           0x60          96   
.text.GFXU_GetStringHei 0x9d01aca8           0x60          96   
.text._laContext_Handle 0x9d01ad08           0x60          96   
.text._laInput_HandleIn 0x9d01ad68           0x60          96   
.text.GFX_LayerSwap     0x9d01adc8           0x60          96   
.text.GFX_PixelBufferGe 0x9d01ae28           0x60          96   
.text.lut_argb8888      0x9d01ae88           0x60          96   
.text.lut_rgba8888      0x9d01aee8           0x60          96   
.text.lut_rgb888        0x9d01af48           0x60          96   
.text.lut_rgba5551      0x9d01afa8           0x60          96   
.text.lut_rgb565        0x9d01b008           0x60          96   
.text.lut_rgb332        0x9d01b068           0x60          96   
.text.lut_gs8           0x9d01b0c8           0x60          96   
.text.sitofp            0x9d01b128           0x60          96   
.text.lodepng_chunk_che 0x9d01b188           0x5c          92   
.text.stringEntrySizeRe 0x9d01b1e4           0x5c          92   
.text.laUtils_RectToLay 0x9d01b240           0x5c          92   
.text.defLayerActiveSet 0x9d01b29c           0x5c          92   
.text.defDrawGradientCo 0x9d01b2f8           0x5c          92   
.text.GFX_PixelBufferDe 0x9d01b354           0x5c          92   
.text.SYS_DMA_ChannelAl 0x9d01b3b0           0x5c          92   
.rodata                 0x9d01b40c           0x5c          92  Read-only const 
.text.stringArraySizeRe 0x9d01b468           0x58          88   
.text.laDraw_LineBorder 0x9d01b4c0           0x58          88   
.text.laImageWidget_New 0x9d01b518           0x58          88   
.text.laRectangleWidget 0x9d01b570           0x58          88   
.text.GFX_ColorModeInfo 0x9d01b5c8           0x58          88   
.text.defDrawPaletteGet 0x9d01b620           0x58          88   
.text._DRV_I2C_QueuePop 0x9d01b678           0x58          88   
.text.DRV_TMR0_AlarmReg 0x9d01b6d0           0x58          88   
.text.SYS_DEVCON_System 0x9d01b728           0x58          88   
.text.main_entry        0x9d01b780           0x54          84   
.text.ucvector_push_bac 0x9d01b7d4           0x54          84   
.text.lodepng_crc32     0x9d01b828           0x54          84   
.text.lodepng_get_raw_s 0x9d01b87c           0x54          84   
.text.lodepng_get_raw_s 0x9d01b8d0           0x54          84   
.text._laContext_Update 0x9d01b924           0x54          84   
.text.laWidget_GetCumul 0x9d01b978           0x54          84   
.text._laButtonWidget_D 0x9d01b9cc           0x54          84   
.text._laLabelWidget_De 0x9d01ba20           0x54          84   
.text.GFX_Get           0x9d01ba74           0x54          84   
.text.defLayerPositionG 0x9d01bac8           0x54          84   
.text.orient_90         0x9d01bb1c           0x54          84   
.text.orient_270        0x9d01bb70           0x54          84   
.text.lodepng_info_clea 0x9d01bbc4           0x50          80   
.text.laButtonWidget_Ne 0x9d01bc14           0x50          80   
.text.laLabelWidget_New 0x9d01bc64           0x50          80   
.text.GFX_PixelBufferGe 0x9d01bcb4           0x50          80   
.text.GFX_RectContainsP 0x9d01bd04           0x50          80   
.text.sbrk              0x9d01bd54           0x50          80   
.rodata                 0x9d01bda4           0x4c          76  Read-only const 
.text.readBitsFromStrea 0x9d01bdf0           0x4c          76   
.text._laWidget_Paint   0x9d01be3c           0x4c          76   
.text._laButtonWidget_P 0x9d01be88           0x4c          76   
.text._laImageWidget_Pa 0x9d01bed4           0x4c          76   
.text._laLabelWidget_Pa 0x9d01bf20           0x4c          76   
.text.defLayerBufferCoh 0x9d01bf6c           0x4c          76   
.text.orient_180        0x9d01bfb8           0x4c          76   
.text                   0x9d01c004           0x4c          76  App's exec code 
.text.calloc            0x9d01c050           0x4c          76   
.text.GFXU_GetStringSiz 0x9d01c09c           0x48          72   
.text.laContext_AddScre 0x9d01c0e4           0x48          72   
.text.laEvent_AddEvent  0x9d01c12c           0x48          72   
.text.laList_Get        0x9d01c174           0x48          72   
.text.la_strcpy         0x9d01c1bc           0x48          72   
.text._laWidget_Invalid 0x9d01c204           0x48          72   
.text._laImageWidget_De 0x9d01c24c           0x48          72   
.text.defDrawClipRectGe 0x9d01c294           0x48          72   
.text.defDrawClipRectSe 0x9d01c2dc           0x48          72   
.text.driverLCCInfoGet  0x9d01c324           0x48          72   
.text.SYS_DEVCON_System 0x9d01c36c           0x48          72   
.text.BSP_Initialize    0x9d01c3b4           0x48          72   
.text._bootstrap_except 0x9d01c3fc           0x48          72   
.text._cache_err_except 0x9d01c444           0x48          72   
.text._simple_tlb_refil 0x9d01c48c           0x48          72   
.text.I2CMasterOpStatus 0x9d01c4d4           0x44          68   
.text.lodepng_encoder_s 0x9d01c518           0x44          68   
.text.lodepng_state_ini 0x9d01c55c           0x44          68   
.text._laWidget_Invalid 0x9d01c5a0           0x44          68   
.text.defBegin          0x9d01c5e4           0x44          68   
.text.defLayerBufferIsA 0x9d01c628           0x44          68   
.text.get_layerBufferAd 0x9d01c66c           0x44          68   
.text.get_layerBufferCo 0x9d01c6b0           0x44          68   
.text.get_layerBufferAl 0x9d01c6f4           0x44          68   
.text.GFX_ColorLerp     0x9d01c738           0x44          68   
.text.GFX_PercentWholeR 0x9d01c77c           0x44          68   
.text.lccDestroy        0x9d01c7c0           0x44          68   
.text                   0x9d01c804           0x44          68  App's exec code 
.text.JPEG_Read         0x9d01c848           0x40          64   
.text.ucvector_resize   0x9d01c888           0x40          64   
.text.string_init       0x9d01c8c8           0x40          64   
.text.GFXU_DrawCharStri 0x9d01c908           0x40          64   
.text.laContext_Update  0x9d01c948           0x40          64   
.text._laWidget_Validat 0x9d01c988           0x40          64   
.text.defBrightnessSet  0x9d01c9c8           0x40          64   
.text.get_drawGradientC 0x9d01ca08           0x40          64   
.text.GFX_PixelBufferOf 0x9d01ca48           0x40          64   
.text.rgba5551_rgba8888 0x9d01ca88           0x40          64   
.text.rgba5551_argb8888 0x9d01cac8           0x40          64   
.text.GFX_ColorConvert  0x9d01cb08           0x40          64   
.text._general_exceptio 0x9d01cb48           0x40          64   
.text.zlib_decompress   0x9d01cb88           0x3c          60   
.text.lodepng_compress_ 0x9d01cbc4           0x3c          60   
.text.lodepng_palette_c 0x9d01cc00           0x3c          60   
.text.GFXU_DrawGlyphRow 0x9d01cc3c           0x3c          60   
.text.laContext_GetActi 0x9d01cc78           0x3c          60   
.text.handleTouchUp     0x9d01ccb4           0x3c          60   
.text.handleTouchMoved  0x9d01ccf0           0x3c          60   
.text.defVSyncCallbackS 0x9d01cd2c           0x3c          60   
.text.defHSyncCallbackS 0x9d01cd68           0x3c          60   
.text.defLayerBufferAdd 0x9d01cda4           0x3c          60   
.text.defLayerBufferCoh 0x9d01cde0           0x3c          60   
.text.defLayerAlphaAmou 0x9d01ce1c           0x3c          60   
.text.set_drawGradientC 0x9d01ce58           0x3c          60   
.text.DRV_I2C_Transmit  0x9d01ce94           0x3c          60   
.text.DRV_TMR_AlarmRegi 0x9d01ced0           0x3c          60   
.text.APP_Initialize    0x9d01cf0c           0x38          56   
.text.HuffmanTree_clean 0x9d01cf44           0x38          56   
.text.GFXU_DecodeCodePo 0x9d01cf7c           0x38          56   
.text.laInitialize      0x9d01cfb4           0x38          56   
.text._laContext_Update 0x9d01cfec           0x38          56   
.text.laEditWidget_Star 0x9d01d024           0x38          56   
.text.GFX_Update        0x9d01d05c           0x38          56   
.text.GFX_Begin         0x9d01d094           0x38          56   
.text.defDrawBlendModeS 0x9d01d0cc           0x38          56   
.text.GFX_DriverIntfGet 0x9d01d104           0x38          56   
.text.get_brightness    0x9d01d13c           0x38          56   
.text.get_vsyncCallback 0x9d01d174           0x38          56   
.text.get_hsyncCallback 0x9d01d1ac           0x38          56   
.text.get_orientation   0x9d01d1e4           0x38          56   
.text.get_mirroring     0x9d01d21c           0x38          56   
.text.get_colorMode     0x9d01d254           0x38          56   
.text.get_layerEnabled  0x9d01d28c           0x38          56   
.text.get_layerVisible  0x9d01d2c4           0x38          56   
.text.get_layerVsync    0x9d01d2fc           0x38          56   
.text.get_layerSwap     0x9d01d334           0x38          56   
.text.get_layerAlphaEna 0x9d01d36c           0x38          56   
.text.get_layerAlphaAmo 0x9d01d3a4           0x38          56   
.text.get_layerMaskEnab 0x9d01d3dc           0x38          56   
.text.get_layerMaskColo 0x9d01d414           0x38          56   
.text.get_layerBufferCo 0x9d01d44c           0x38          56   
.text.get_drawMode      0x9d01d484           0x38          56   
.text.get_drawColor     0x9d01d4bc           0x38          56   
.text.get_drawBlendMode 0x9d01d4f4           0x38          56   
.text.get_drawAlphaEnab 0x9d01d52c           0x38          56   
.text.get_drawAlphaValu 0x9d01d564           0x38          56   
.text.get_drawMaskEnabl 0x9d01d59c           0x38          56   
.text.get_drawMaskValue 0x9d01d5d4           0x38          56   
.text.get_drawThickness 0x9d01d60c           0x38          56   
.text.get_drawClipEnabl 0x9d01d644           0x38          56   
.text._GFX_LayerSizeSet 0x9d01d67c           0x38          56   
.text.GFX_ColorBlendAlp 0x9d01d6b4           0x38          56   
.text.SYS_DMA_ChannelEn 0x9d01d6ec           0x38          56   
.text.SYS_DMA_ChannelFo 0x9d01d724           0x38          56   
.text._DRV_I2C_Advance_ 0x9d01d75c           0x38          56   
.text.DRV_TMR0_Start    0x9d01d794           0x38          56   
.text.DRV_CAMERA_OVM769 0x9d01d7cc           0x34          52   
.text.ucvector_cleanup  0x9d01d800           0x34          52   
.text.uivector_cleanup  0x9d01d834           0x34          52   
.text.laInput_SetEnable 0x9d01d868           0x34          52   
.text.laWidget_SetSchem 0x9d01d89c           0x34          52   
.text.laImageWidget_Set 0x9d01d8d0           0x34          52   
.text.defLayerBufferFre 0x9d01d904           0x34          52   
.text.defLayerBufferAll 0x9d01d938           0x34          52   
.text.get_driverInfo    0x9d01d96c           0x34          52   
.text.get_brightnessRan 0x9d01d9a0           0x34          52   
.text.get_layerCount    0x9d01d9d4           0x34          52   
.text.get_layerActive   0x9d01da08           0x34          52   
.text.get_layerPosition 0x9d01da3c           0x34          52   
.text.get_layerSize     0x9d01da70           0x34          52   
.text.get_drawPalette   0x9d01daa4           0x34          52   
.text.set_layerPosition 0x9d01dad8           0x34          52   
.text.set_layerSize     0x9d01db0c           0x34          52   
.text.set_layerBufferAd 0x9d01db40           0x34          52   
.text.set_layerBufferCo 0x9d01db74           0x34          52   
.text.LibAria_Tasks     0x9d01dba8           0x34          52   
.text.lodepng_get_bpp   0x9d01dbdc           0x30          48   
.text.lodepng_state_cle 0x9d01dc0c           0x30          48   
.text.laEditWidget_EndE 0x9d01dc3c           0x30          48   
.text.GFX_End           0x9d01dc6c           0x30          48   
.text.defLayerEnabledSe 0x9d01dc9c           0x30          48   
.text.defLayerVisibleSe 0x9d01dccc           0x30          48   
.text.defLayerVsyncSet  0x9d01dcfc           0x30          48   
.text.defLayerAlphaEnab 0x9d01dd2c           0x30          48   
.text.defLayerMaskEnabl 0x9d01dd5c           0x30          48   
.text.defLayerMaskColor 0x9d01dd8c           0x30          48   
.text.get_drawClipRect  0x9d01ddbc           0x30          48   
.text.set_brightness    0x9d01ddec           0x30          48   
.text.set_vsyncCallback 0x9d01de1c           0x30          48   
.text.set_hsyncCallback 0x9d01de4c           0x30          48   
.text.set_orientation   0x9d01de7c           0x30          48   
.text.set_mirroring     0x9d01deac           0x30          48   
.text.set_colorMode     0x9d01dedc           0x30          48   
.text.set_layerActive   0x9d01df0c           0x30          48   
.text.set_layerEnabled  0x9d01df3c           0x30          48   
.text.set_layerVisible  0x9d01df6c           0x30          48   
.text.set_layerVsync    0x9d01df9c           0x30          48   
.text.set_layerSwap     0x9d01dfcc           0x30          48   
.text.set_layerAlphaEna 0x9d01dffc           0x30          48   
.text.set_layerAlphaAmo 0x9d01e02c           0x30          48   
.text.set_layerMaskEnab 0x9d01e05c           0x30          48   
.text.set_layerMaskColo 0x9d01e08c           0x30          48   
.text.set_layerBufferCo 0x9d01e0bc           0x30          48   
.text.set_layerBufferAl 0x9d01e0ec           0x30          48   
.text.set_layerBufferFr 0x9d01e11c           0x30          48   
.text.set_drawMode      0x9d01e14c           0x30          48   
.text.set_drawColor     0x9d01e17c           0x30          48   
.text.set_drawPalette   0x9d01e1ac           0x30          48   
.text.set_drawBlendMode 0x9d01e1dc           0x30          48   
.text.set_drawAlphaEnab 0x9d01e20c           0x30          48   
.text.set_drawAlphaValu 0x9d01e23c           0x30          48   
.text.set_drawMaskEnabl 0x9d01e26c           0x30          48   
.text.set_drawMaskValue 0x9d01e29c           0x30          48   
.text.set_drawThickness 0x9d01e2cc           0x30          48   
.text.set_drawClipEnabl 0x9d01e2fc           0x30          48   
.text.set_drawClipRect  0x9d01e32c           0x30          48   
.text.rgb332_rgb888     0x9d01e35c           0x30          48   
.text.rgb332_rgba8888   0x9d01e38c           0x30          48   
.text.rgb332_argb8888   0x9d01e3bc           0x30          48   
.text.rgba5551_rgb888   0x9d01e3ec           0x30          48   
.text.rgba8888_rgba5551 0x9d01e41c           0x30          48   
.text.argb8888_rgba5551 0x9d01e44c           0x30          48   
.text.DRV_I2C_TransferS 0x9d01e47c           0x30          48   
.text.DRV_TMR0_AlarmEna 0x9d01e4ac           0x30          48   
.text.DRV_TMR_Start     0x9d01e4dc           0x30          48   
.text.free              0x9d01e50c           0x30          48   
.text.JPEG_bReadByte    0x9d01e53c           0x2c          44   
.text.lodepng_read32bit 0x9d01e568           0x2c          44   
.text.lodepng_chunk_nex 0x9d01e594           0x2c          44   
.text.lodepng_color_mod 0x9d01e5c0           0x2c          44   
.text.getDiscreteValueA 0x9d01e5ec           0x2c          44   
.text.getOffsetFromInde 0x9d01e618           0x2c          44   
.text.defDrawModeSet    0x9d01e644           0x2c          44   
.text.defDrawColorSet   0x9d01e670           0x2c          44   
.text.defDrawAlphaEnabl 0x9d01e69c           0x2c          44   
.text.defDrawAlphaValue 0x9d01e6c8           0x2c          44   
.text.defDrawMaskEnable 0x9d01e6f4           0x2c          44   
.text.defDrawMaskValueS 0x9d01e720           0x2c          44   
.text.defDrawThicknessS 0x9d01e74c           0x2c          44   
.text.defDrawClipEnable 0x9d01e778           0x2c          44   
.text.indexGet1bpp      0x9d01e7a4           0x2c          44   
.text.GFX_UtilOrientPoi 0x9d01e7d0           0x2c          44   
.text.GFX_LayerSizeFrom 0x9d01e7fc           0x2c          44   
.text.GFX_LayerSizeToOr 0x9d01e828           0x2c          44   
.text.rgb565_argb8888   0x9d01e854           0x2c          44   
.text.GFX_Percent       0x9d01e880           0x2c          44   
.text.SYS_Tasks         0x9d01e8ac           0x2c          44   
.text._stub_sbd_memlayo 0x9d01e8d8           0x2c          44   
.text.readBitFromRevers 0x9d01e904           0x28          40   
.text.lodepng_decoder_s 0x9d01e92c           0x28          40   
.text.headerReadRequest 0x9d01e954           0x28          40   
.text.laContext_SetStri 0x9d01e97c           0x28          40   
.text.laWidget_SetBorde 0x9d01e9a4           0x28          40   
.text.laWidget_SetDrawB 0x9d01e9cc           0x28          40   
.text.GFX_Initialize    0x9d01e9f4           0x28          40   
.text.orient_0          0x9d01ea1c           0x28          40   
.text.rgb332_rgb565     0x9d01ea44           0x28          40   
.text.rgb332_rgba5551   0x9d01ea6c           0x28          40   
.text.rgb565_rgba8888   0x9d01ea94           0x28          40   
.text.rgb888_rgba5551   0x9d01eabc           0x28          40   
.text.DRV_I2C_BufferEve 0x9d01eae4           0x28          40   
.text.DRV_TMR_AlarmEnab 0x9d01eb0c           0x28          40   
.text.GFX_InitializeDri 0x9d01eb34           0x28          40   
.text.APP_TimerCallback 0x9d01eb5c           0x24          36   
.text.laList_Create     0x9d01eb80           0x24          36   
.text.laString_Initiali 0x9d01eba4           0x24          36   
.text.defEnd            0x9d01ebc8           0x24          36   
.text.defLayerEnabledGe 0x9d01ebec           0x24          36   
.text.defLayerVisibleGe 0x9d01ec10           0x24          36   
.text.defLayerBufferCou 0x9d01ec34           0x24          36   
.text.defLayerVsyncGet  0x9d01ec58           0x24          36   
.text.defLayerSwapGet   0x9d01ec7c           0x24          36   
.text.defLayerAlphaEnab 0x9d01eca0           0x24          36   
.text.defLayerAlphaAmou 0x9d01ecc4           0x24          36   
.text.defLayerMaskEnabl 0x9d01ece8           0x24          36   
.text.defLayerMaskColor 0x9d01ed0c           0x24          36   
.text.indexGet4bpp      0x9d01ed30           0x24          36   
.text.rgb565_rgb888     0x9d01ed54           0x24          36   
.text.rgb888_rgb332     0x9d01ed78           0x24          36   
.text.rgba8888_rgb888   0x9d01ed9c           0x24          36   
.text.DRV_TMR0_AlarmDis 0x9d01edc0           0x24          36   
.text.main              0x9d01ede4           0x20          32   
.text.getDiscreteValueA 0x9d01ee04           0x20          32   
.text.laLayer_Delete    0x9d01ee24           0x20          32   
.text.defBrightnessGet  0x9d01ee44           0x20          32   
.text.defVSyncCallbackG 0x9d01ee64           0x20          32   
.text.defHSyncCallbackG 0x9d01ee84           0x20          32   
.text.defOrientationGet 0x9d01eea4           0x20          32   
.text.defMirroringGet   0x9d01eec4           0x20          32   
.text.defColorModeGet   0x9d01eee4           0x20          32   
.text.defLayerActiveGet 0x9d01ef04           0x20          32   
.text.defDrawModeGet    0x9d01ef24           0x20          32   
.text.defDrawColorGet   0x9d01ef44           0x20          32   
.text.defDrawBlendModeG 0x9d01ef64           0x20          32   
.text.defDrawAlphaEnabl 0x9d01ef84           0x20          32   
.text.defDrawAlphaValue 0x9d01efa4           0x20          32   
.text.defDrawMaskEnable 0x9d01efc4           0x20          32   
.text.defDrawMaskValueG 0x9d01efe4           0x20          32   
.text.defDrawThicknessG 0x9d01f004           0x20          32   
.text.defDrawClipEnable 0x9d01f024           0x20          32   
.text.gs8_rgb565        0x9d01f044           0x20          32   
.text.gs8_rgba5551      0x9d01f064           0x20          32   
.text.rgb565_rgb332     0x9d01f084           0x20          32   
.text.rgba5551_rgb332   0x9d01f0a4           0x20          32   
.text.rgb888_rgb565     0x9d01f0c4           0x20          32   
.text.rgba8888_rgb332   0x9d01f0e4           0x20          32   
.text.rgba8888_rgb565   0x9d01f104           0x20          32   
.text.driverLCCContextI 0x9d01f124           0x20          32   
.text.SYS_CLK_Periphera 0x9d01f144           0x20          32   
.text.Delay_ms          0x9d01f164           0x1c          28   
.text.laUpdate          0x9d01f180           0x1c          28   
.text.laContext_GetStri 0x9d01f19c           0x1c          28   
.text.laContext_GetStri 0x9d01f1b8           0x1c          28   
.text.laContext_GetEdit 0x9d01f1d4           0x1c          28   
.text.laLayer_SetBuffer 0x9d01f1f0           0x1c          28   
.text._laLayer_Invalida 0x9d01f20c           0x1c          28   
.text._laRectangleWidge 0x9d01f228           0x1c          28   
.text.defPixelGet       0x9d01f244           0x1c          28   
.text.defPixelSet       0x9d01f260           0x1c          28   
.text.GFX_DriverIntfIni 0x9d01f27c           0x1c          28   
.text.gs8_rgba8888      0x9d01f298           0x1c          28   
.text.gs8_argb8888      0x9d01f2b4           0x1c          28   
.text.lerp_gs8          0x9d01f2d0           0x1c          28   
.text.getDiscreteValueA 0x9d01f2ec           0x18          24   
.text.GFXU_DecodeASCII  0x9d01f304           0x18          24   
.text.GFX_DisplayInfoPt 0x9d01f31c           0x18          24   
.text.gs8_rgb332        0x9d01f334           0x18          24   
.text.rgb565_rgba5551   0x9d01f34c           0x18          24   
.text.IsQueueEmpty_0    0x9d01f364           0x18          24   
.text                   0x9d01f37c           0x18          24  App's exec code 
.text.paletteReadReques 0x9d01f394           0x28          40   
.text.fontDataRequestCo 0x9d01f3bc           0x14          20   
.text.laContext_GetDefa 0x9d01f3d0           0x14          20   
.text.laScreen_GetLayer 0x9d01f3e4           0x14          20   
.text.defBrightnessRang 0x9d01f3f8           0x14          20   
.text.get_displayCount  0x9d01f40c           0x14          20   
.text.get_driverCount   0x9d01f420           0x14          20   
.text.gs8_rgb888        0x9d01f434           0x14          20   
.text.rgba5551_rgb565   0x9d01f448           0x14          20   
.text.SYS_DMA_Suspend   0x9d01f45c           0x14          20   
.text.SYS_DMA_Resume    0x9d01f470           0x14          20   
.text.SYS_INT_Initializ 0x9d01f484           0x14          20   
.text.SYS_DEVCON_Initia 0x9d01f498           0x14          20   
.rodata                 0x9d01f4ac           0x20          32  Read-only const 
.text.blend_rgba5551    0x9d01f4cc           0x10          16   
.text.alpha_rgba8888    0x9d01f4dc           0x10          16   
.text.QueueInitialize_0 0x9d01f4ec           0x10          16   
.text.DRV_I2C_Open      0x9d01f4fc           0x10          16   
.text.__exception_handl 0x9d01f50c            0xc          12   
.text.calcOffset24bpp   0x9d01f518            0xc          12   
.text.laContext_SetActi 0x9d01f524            0xc          12   
.text.GFX_DriverIntfPtr 0x9d01f530            0xc          12   
.text.alpha_rgba5551    0x9d01f53c            0xc          12   
.text.alpha_argb8888    0x9d01f548            0xc          12   
.text.rgb888_rgba8888   0x9d01f554            0xc          12   
.text.rgb888_argb8888   0x9d01f560            0xc          12   
.text.DRV_I2C0_BufferEv 0x9d01f56c            0xc          12   
.text.SYS_CLK_SystemFre 0x9d01f578            0xc          12   
.text.getDiscreteValueA 0x9d01f584            0x8           8   
.text.calcOffset1bpp    0x9d01f58c            0x8           8   
.text.calcOffset4bpp    0x9d01f594            0x8           8   
.text.calcOffset8bpp    0x9d01f59c            0x8           8   
.text.calcOffset16bpp   0x9d01f5a4            0x8           8   
.text.calcOffset32bpp   0x9d01f5ac            0x8           8   
.text.laContext_GetActi 0x9d01f5b4            0x8           8   
.text.update            0x9d01f5bc            0x8           8   
.text.moved             0x9d01f5c4            0x8           8   
.text.resized           0x9d01f5cc            0x8           8   
.text.focusGained       0x9d01f5d4            0x8           8   
.text.focusLost         0x9d01f5dc            0x8           8   
.text.touchDownEvent    0x9d01f5e4            0x8           8   
.text.touchUpEvent      0x9d01f5ec            0x8           8   
.text.touchMovedEvent   0x9d01f5f4            0x8           8   
.text.GFX_ActiveContext 0x9d01f5fc            0x8           8   
.text.GFX_ContextActive 0x9d01f604            0x8           8   
.text._GFX_DefaultSyncC 0x9d01f60c            0x8           8   
.text.defUpdate         0x9d01f614            0x8           8   
.text.defLayerSwapped   0x9d01f61c            0x8           8   
.text.defDrawLock       0x9d01f624            0x8           8   
.text.defDrawUnlock     0x9d01f62c            0x8           8   
.text.defInterrupt      0x9d01f634            0x8           8   
.text.get_unimplemented 0x9d01f63c            0x8           8   
.text.set_unimplemented 0x9d01f644            0x8           8   
.text.blend_none        0x9d01f64c            0x8           8   
.text.alpha_none        0x9d01f654            0x8           8   
.text.no_conv           0x9d01f65c            0x8           8   
.text.gs8_yuv           0x9d01f664            0x8           8   
.text.rgb332_yuv        0x9d01f66c            0x8           8   
.text.rgb565_yuv        0x9d01f674            0x8           8   
.text.rgba5551_gs8      0x9d01f67c            0x8           8   
.text.rgba5551_yuv      0x9d01f684            0x8           8   
.text.rgb888_gs8        0x9d01f68c            0x8           8   
.text.rgb888_yuv        0x9d01f694            0x8           8   
.text.rgba8888_gs8      0x9d01f69c            0x8           8   
.text.rgba8888_argb8888 0x9d01f6a4            0x8           8   
.text.rgba8888_yuv      0x9d01f6ac            0x8           8   
.text.argb8888_rgb888   0x9d01f6b4            0x8           8   
.text.argb8888_rgba8888 0x9d01f6bc            0x8           8   
.text.yuv_gs8           0x9d01f6c4            0x8           8   
.text.yuv_rgb332        0x9d01f6cc            0x8           8   
.text.yuv_rgb565        0x9d01f6d4            0x8           8   
.text.yuv_rgba5551      0x9d01f6dc            0x8           8   
.text.yuv_rgb888        0x9d01f6e4            0x8           8   
.text.yuv_rgba8888      0x9d01f6ec            0x8           8   
.text.yuv_argb8888      0x9d01f6f4            0x8           8   
.text.lut_yuv           0x9d01f6fc            0x8           8   
.text.cpuDrawLine_AA    0x9d01f704            0x8           8   
.text.cpuDrawRect_Line_ 0x9d01f70c            0x8           8   
.text.cpuDrawRect_Fill_ 0x9d01f714            0x8           8   
.text.DRV_I2C0_Transfer 0x9d01f71c            0x8           8   
.text.DRV_TMR_Open      0x9d01f724            0x8           8   
.text.layerBufferCountS 0x9d01f72c            0x8           8   
.text.layerBufferAddres 0x9d01f734            0x8           8   
.text.layerBufferAlloca 0x9d01f73c            0x8           8   
.text._on_reset         0x9d01f744            0x8           8   
.text._on_bootstrap     0x9d01f74c            0x8           8   
.rodata                 0x9d01f754            0x8           8  Read-only const 
      Total kseg0_program_mem used  :     0x1f75c      128860  6.1% of 0x200000

kseg0 Boot-Memory Usage
section                    address  length [bytes]      (dec)  Description
-------                 ----------  -------------------------  -----------
         Total kseg0_boot_mem used  :           0           0  

kseg1 Boot-Memory Usage
section                    address  length [bytes]      (dec)  Description
-------                 ----------  -------------------------  -----------
.reset                  0xbfc00000          0x210         528  Reset handler 
.bev_excpt              0xbfc00380           0x10          16  BEV-Exception 
         Total kseg1_boot_mem used  :       0x220         544  47.2% of 0x480
        --------------------------------------------------------------------------
         Total Program Memory used  :     0x1f97c      129404  6.2% of 0x200480
        --------------------------------------------------------------------------


kseg0 Data-Memory Usage
section                    address  length [bytes]      (dec)  Description
-------                 ----------  -------------------------  -----------
reserve_data_0_kseg0    0x80000000          0x280         640   
.sdata                  0x80000280          0x210         528  Small init data 
.sbss                   0x80000490          0x124         292  Small uninit data 
.bss                    0x800005b4          0x19c         412  Uninitialized data 
.data                   0x80040350         0x2100        8448  Initialized data 
.bss                    0x80042450          0x9f8        2552  Uninitialized data 
.data                   0x80042e48          0x460        1120  Initialized data 
.bss                    0x800432a8          0x134         308  Uninitialized data 
.data                   0x800433dc           0xf4         244  Initialized data 
.bss                    0x800434d0           0x44          68  Uninitialized data 
.data                   0x80043514           0x18          24  Initialized data 
.bss                    0x8004352c           0x14          20  Uninitialized data 
.data                   0x80043540           0x1c          28  Initialized data 
.bss.errno              0x8004355c            0x4           4   
.bss.frameBuffer.frameB 0x80000750        0x3fc00      261120   
         Total kseg0_data_mem used  :     0x43560      275808  52.6% of 0x80000

kseg1 Data-Memory Usage
section                    address  length [bytes]      (dec)  Description
-------                 ----------  -------------------------  -----------
reserve_data_0_kseg1    0xa0000000          0x280         640   
         Total kseg1_data_mem used  :       0x280         640  100.0% of 0x280
        --------------------------------------------------------------------------
            Total Data Memory used  :     0x437e0      276448  52.7% of 0x80280
        --------------------------------------------------------------------------


Dynamic Data-Memory Reservation
section                    address  length [bytes]      (dec)  Description
-------                 ----------  -------------------------  -----------
heap                    0x80043568        0x19000      102400  Reserved for heap 
stack                   0x8005c580        0x23a78      146040  Reserved for stack 

        --------------------------------------------------------------------------

Discarded input sections

 .text          0x00000000        0x0 c:/program files (x86)/microchip/xc32/v1.42/bin/bin/../../lib/gcc/pic32mx/4.8.3/../../../../pic32mx/lib/./proc/32MZ2048ECM144/crt0_mips32r2.o
 .data          0x00000000        0x0 c:/program files (x86)/microchip/xc32/v1.42/bin/bin/../../lib/gcc/pic32mx/4.8.3/../../../../pic32mx/lib/./proc/32MZ2048ECM144/crt0_mips32r2.o
 .bss           0x00000000        0x0 c:/program files (x86)/microchip/xc32/v1.42/bin/bin/../../lib/gcc/pic32mx/4.8.3/../../../../pic32mx/lib/./proc/32MZ2048ECM144/crt0_mips32r2.o
 .text          0x00000000        0x0 c:/program files (x86)/microchip/xc32/v1.42/bin/bin/../../lib/gcc/pic32mx/4.8.3/../../../../pic32mx/lib\software-debug-break.o
 .data          0x00000000        0x0 c:/program files (x86)/microchip/xc32/v1.42/bin/bin/../../lib/gcc/pic32mx/4.8.3/../../../../pic32mx/lib\software-debug-break.o
 .bss           0x00000000        0x0 c:/program files (x86)/microchip/xc32/v1.42/bin/bin/../../lib/gcc/pic32mx/4.8.3/../../../../pic32mx/lib\software-debug-break.o
 .reginfo       0x00000000       0x18 c:/program files (x86)/microchip/xc32/v1.42/bin/bin/../../lib/gcc/pic32mx/4.8.3/../../../../pic32mx/lib\software-debug-break.o
 .text          0x00000000        0x0 build/pic32mz_ef_sk_meb2/debug/_ext/1360937237/app.o
 .data          0x00000000        0x0 build/pic32mz_ef_sk_meb2/debug/_ext/1360937237/app.o
 .bss           0x00000000        0x0 build/pic32mz_ef_sk_meb2/debug/_ext/1360937237/app.o
 .reginfo       0x00000000       0x18 build/pic32mz_ef_sk_meb2/debug/_ext/1360937237/app.o
 COMMON         0x00000000        0x0 build/pic32mz_ef_sk_meb2/debug/_ext/1360937237/app.o
 .text          0x00000000        0x0 build/pic32mz_ef_sk_meb2/debug/_ext/1360937237/main.o
 .data          0x00000000        0x0 build/pic32mz_ef_sk_meb2/debug/_ext/1360937237/main.o
 .bss           0x00000000        0x0 build/pic32mz_ef_sk_meb2/debug/_ext/1360937237/main.o
 .reginfo       0x00000000       0x18 build/pic32mz_ef_sk_meb2/debug/_ext/1360937237/main.o
 .text          0x00000000        0x0 build/pic32mz_ef_sk_meb2/debug/_ext/1360937237/ov2640.o
 .data          0x00000000        0x0 build/pic32mz_ef_sk_meb2/debug/_ext/1360937237/ov2640.o
 .bss           0x00000000        0x0 build/pic32mz_ef_sk_meb2/debug/_ext/1360937237/ov2640.o
 .reginfo       0x00000000       0x18 build/pic32mz_ef_sk_meb2/debug/_ext/1360937237/ov2640.o
 .text.DRV_CAMERA_OVM7690_RegisterGet
                0x00000000       0x48 build/pic32mz_ef_sk_meb2/debug/_ext/1360937237/ov2640.o
 .text          0x00000000        0x0 build/pic32mz_ef_sk_meb2/debug/_ext/1360937237/i2c_master_noint.o
 .data          0x00000000        0x0 build/pic32mz_ef_sk_meb2/debug/_ext/1360937237/i2c_master_noint.o
 .bss           0x00000000        0x0 build/pic32mz_ef_sk_meb2/debug/_ext/1360937237/i2c_master_noint.o
 .reginfo       0x00000000       0x18 build/pic32mz_ef_sk_meb2/debug/_ext/1360937237/i2c_master_noint.o
 .text.i2c_master_setup
                0x00000000       0x28 build/pic32mz_ef_sk_meb2/debug/_ext/1360937237/i2c_master_noint.o
 .text.i2c_master_start
                0x00000000       0x30 build/pic32mz_ef_sk_meb2/debug/_ext/1360937237/i2c_master_noint.o
 .text.i2c_master_restart
                0x00000000       0x30 build/pic32mz_ef_sk_meb2/debug/_ext/1360937237/i2c_master_noint.o
 .text.i2c_master_send
                0x00000000       0x2c build/pic32mz_ef_sk_meb2/debug/_ext/1360937237/i2c_master_noint.o
 .text.i2c_master_recv
                0x00000000       0x34 build/pic32mz_ef_sk_meb2/debug/_ext/1360937237/i2c_master_noint.o
 .text.i2c_master_ack
                0x00000000       0x3c build/pic32mz_ef_sk_meb2/debug/_ext/1360937237/i2c_master_noint.o
 .text.i2c_master_stop
                0x00000000       0x54 build/pic32mz_ef_sk_meb2/debug/_ext/1360937237/i2c_master_noint.o
 .text          0x00000000        0x0 build/pic32mz_ef_sk_meb2/debug/_ext/426253641/jidctint.o
 .data          0x00000000        0x0 build/pic32mz_ef_sk_meb2/debug/_ext/426253641/jidctint.o
 .bss           0x00000000        0x0 build/pic32mz_ef_sk_meb2/debug/_ext/426253641/jidctint.o
 .reginfo       0x00000000       0x18 build/pic32mz_ef_sk_meb2/debug/_ext/426253641/jidctint.o
 .text          0x00000000        0x0 build/pic32mz_ef_sk_meb2/debug/_ext/1597685232/gfxu_image.o
 .data          0x00000000        0x0 build/pic32mz_ef_sk_meb2/debug/_ext/1597685232/gfxu_image.o
 .bss           0x00000000        0x0 build/pic32mz_ef_sk_meb2/debug/_ext/1597685232/gfxu_image.o
 .reginfo       0x00000000       0x18 build/pic32mz_ef_sk_meb2/debug/_ext/1597685232/gfxu_image.o
 .text          0x00000000        0x0 build/pic32mz_ef_sk_meb2/debug/_ext/1597685232/gfxu_image_png_external.o
 .data          0x00000000        0x0 build/pic32mz_ef_sk_meb2/debug/_ext/1597685232/gfxu_image_png_external.o
 .bss           0x00000000        0x0 build/pic32mz_ef_sk_meb2/debug/_ext/1597685232/gfxu_image_png_external.o
 .reginfo       0x00000000       0x18 build/pic32mz_ef_sk_meb2/debug/_ext/1597685232/gfxu_image_png_external.o
 .text.imageReadRequestCompleted
                0x00000000       0x10 build/pic32mz_ef_sk_meb2/debug/_ext/1597685232/gfxu_image_png_external.o
 .text.run      0x00000000      0x240 build/pic32mz_ef_sk_meb2/debug/_ext/1597685232/gfxu_image_png_external.o
 .text.GFXU_DrawImagePngExternal
                0x00000000       0xcc build/pic32mz_ef_sk_meb2/debug/_ext/1597685232/gfxu_image_png_external.o
 .text          0x00000000        0x0 build/pic32mz_ef_sk_meb2/debug/_ext/1597685232/gfxu_image_png_internal.o
 .data          0x00000000        0x0 build/pic32mz_ef_sk_meb2/debug/_ext/1597685232/gfxu_image_png_internal.o
 .bss           0x00000000        0x0 build/pic32mz_ef_sk_meb2/debug/_ext/1597685232/gfxu_image_png_internal.o
 .reginfo       0x00000000       0x18 build/pic32mz_ef_sk_meb2/debug/_ext/1597685232/gfxu_image_png_internal.o
 .text          0x00000000        0x0 build/pic32mz_ef_sk_meb2/debug/_ext/1597685232/gfxu_image_jpg_internal.o
 .data          0x00000000        0x0 build/pic32mz_ef_sk_meb2/debug/_ext/1597685232/gfxu_image_jpg_internal.o
 .reginfo       0x00000000       0x18 build/pic32mz_ef_sk_meb2/debug/_ext/1597685232/gfxu_image_jpg_internal.o
 .text.JPEG_bInterpretResourceHeader
                0x00000000       0x50 build/pic32mz_ef_sk_meb2/debug/_ext/1597685232/gfxu_image_jpg_internal.o
 .text          0x00000000        0x0 build/pic32mz_ef_sk_meb2/debug/_ext/493934858/lodepng.o
 .data          0x00000000        0x0 build/pic32mz_ef_sk_meb2/debug/_ext/493934858/lodepng.o
 .bss           0x00000000        0x0 build/pic32mz_ef_sk_meb2/debug/_ext/493934858/lodepng.o
 .reginfo       0x00000000       0x18 build/pic32mz_ef_sk_meb2/debug/_ext/493934858/lodepng.o
 .text.bpmnode_create
                0x00000000      0x124 build/pic32mz_ef_sk_meb2/debug/_ext/493934858/lodepng.o
 .text.boundaryPM
                0x00000000      0x184 build/pic32mz_ef_sk_meb2/debug/_ext/493934858/lodepng.o
 .text.searchCodeIndex
                0x00000000       0x68 build/pic32mz_ef_sk_meb2/debug/_ext/493934858/lodepng.o
 .text.getHash  0x00000000       0x78 build/pic32mz_ef_sk_meb2/debug/_ext/493934858/lodepng.o
 .text.updateHashChain
                0x00000000       0x84 build/pic32mz_ef_sk_meb2/debug/_ext/493934858/lodepng.o
 .text.filterScanline
                0x00000000      0x318 build/pic32mz_ef_sk_meb2/debug/_ext/493934858/lodepng.o
 .text.addPaddingBits
                0x00000000       0xe0 build/pic32mz_ef_sk_meb2/debug/_ext/493934858/lodepng.o
 .text.addBitsToStream
                0x00000000       0xb4 build/pic32mz_ef_sk_meb2/debug/_ext/493934858/lodepng.o
 .text.addBitsToStreamReversed
                0x00000000       0xbc build/pic32mz_ef_sk_meb2/debug/_ext/493934858/lodepng.o
 .text.lodepng_add32bitInt
                0x00000000       0x64 build/pic32mz_ef_sk_meb2/debug/_ext/493934858/lodepng.o
 .text.writeLZ77data
                0x00000000      0x150 build/pic32mz_ef_sk_meb2/debug/_ext/493934858/lodepng.o
 .text.uivector_push_back
                0x00000000       0x64 build/pic32mz_ef_sk_meb2/debug/_ext/493934858/lodepng.o
 .text.encodeLZ77
                0x00000000      0x6bc build/pic32mz_ef_sk_meb2/debug/_ext/493934858/lodepng.o
 .text.lodepng_load_file
                0x00000000      0x144 build/pic32mz_ef_sk_meb2/debug/_ext/493934858/lodepng.o
 .text.lodepng_save_file
                0x00000000       0x70 build/pic32mz_ef_sk_meb2/debug/_ext/493934858/lodepng.o
 .text.lodepng_huffman_code_lengths
                0x00000000      0x498 build/pic32mz_ef_sk_meb2/debug/_ext/493934858/lodepng.o
 .text.HuffmanTree_makeFromFrequencies
                0x00000000       0xec build/pic32mz_ef_sk_meb2/debug/_ext/493934858/lodepng.o
 .text.lodepng_deflate
                0x00000000      0xf50 build/pic32mz_ef_sk_meb2/debug/_ext/493934858/lodepng.o
 .text.lodepng_zlib_compress
                0x00000000      0x1c8 build/pic32mz_ef_sk_meb2/debug/_ext/493934858/lodepng.o
 .text.zlib_compress
                0x00000000       0x3c build/pic32mz_ef_sk_meb2/debug/_ext/493934858/lodepng.o
 .text.lodepng_decompress_settings_init
                0x00000000       0x14 build/pic32mz_ef_sk_meb2/debug/_ext/493934858/lodepng.o
 .text.lodepng_chunk_length
                0x00000000       0x1c build/pic32mz_ef_sk_meb2/debug/_ext/493934858/lodepng.o
 .text.lodepng_chunk_type
                0x00000000       0x28 build/pic32mz_ef_sk_meb2/debug/_ext/493934858/lodepng.o
 .text.lodepng_chunk_ancillary
                0x00000000        0xc build/pic32mz_ef_sk_meb2/debug/_ext/493934858/lodepng.o
 .text.lodepng_chunk_private
                0x00000000        0xc build/pic32mz_ef_sk_meb2/debug/_ext/493934858/lodepng.o
 .text.lodepng_chunk_safetocopy
                0x00000000        0xc build/pic32mz_ef_sk_meb2/debug/_ext/493934858/lodepng.o
 .text.lodepng_chunk_data
                0x00000000        0x8 build/pic32mz_ef_sk_meb2/debug/_ext/493934858/lodepng.o
 .text.lodepng_chunk_data_const
                0x00000000        0x8 build/pic32mz_ef_sk_meb2/debug/_ext/493934858/lodepng.o
 .text.lodepng_chunk_generate_crc
                0x00000000       0x64 build/pic32mz_ef_sk_meb2/debug/_ext/493934858/lodepng.o
 .text.lodepng_chunk_next
                0x00000000       0x2c build/pic32mz_ef_sk_meb2/debug/_ext/493934858/lodepng.o
 .text.addUnknownChunks
                0x00000000       0x9c build/pic32mz_ef_sk_meb2/debug/_ext/493934858/lodepng.o
 .text.lodepng_chunk_create
                0x00000000      0x108 build/pic32mz_ef_sk_meb2/debug/_ext/493934858/lodepng.o
 .text.addChunk
                0x00000000       0x48 build/pic32mz_ef_sk_meb2/debug/_ext/493934858/lodepng.o
 .text.addChunk_PLTE
                0x00000000       0xa4 build/pic32mz_ef_sk_meb2/debug/_ext/493934858/lodepng.o
 .text.addChunk_tRNS
                0x00000000      0x170 build/pic32mz_ef_sk_meb2/debug/_ext/493934858/lodepng.o
 .text.addChunk_tEXt
                0x00000000       0xec build/pic32mz_ef_sk_meb2/debug/_ext/493934858/lodepng.o
 .text.lodepng_color_mode_cleanup
                0x00000000       0x1c build/pic32mz_ef_sk_meb2/debug/_ext/493934858/lodepng.o
 .text.lodepng_palette_add
                0x00000000       0xd0 build/pic32mz_ef_sk_meb2/debug/_ext/493934858/lodepng.o
 .text.filter   0x00000000      0xa18 build/pic32mz_ef_sk_meb2/debug/_ext/493934858/lodepng.o
 .text.preProcessScanlines
                0x00000000      0x640 build/pic32mz_ef_sk_meb2/debug/_ext/493934858/lodepng.o
 .text.lodepng_get_channels
                0x00000000       0x1c build/pic32mz_ef_sk_meb2/debug/_ext/493934858/lodepng.o
 .text.lodepng_is_greyscale_type
                0x00000000       0x14 build/pic32mz_ef_sk_meb2/debug/_ext/493934858/lodepng.o
 .text.lodepng_is_alpha_type
                0x00000000        0xc build/pic32mz_ef_sk_meb2/debug/_ext/493934858/lodepng.o
 .text.lodepng_is_palette_type
                0x00000000       0x10 build/pic32mz_ef_sk_meb2/debug/_ext/493934858/lodepng.o
 .text.lodepng_has_palette_alpha
                0x00000000       0x64 build/pic32mz_ef_sk_meb2/debug/_ext/493934858/lodepng.o
 .text.lodepng_can_have_alpha
                0x00000000       0x40 build/pic32mz_ef_sk_meb2/debug/_ext/493934858/lodepng.o
 .text.lodepng_get_raw_size_lct
                0x00000000       0x64 build/pic32mz_ef_sk_meb2/debug/_ext/493934858/lodepng.o
 .text.lodepng_clear_text
                0x00000000       0x1c build/pic32mz_ef_sk_meb2/debug/_ext/493934858/lodepng.o
 .text.lodepng_clear_itext
                0x00000000       0x1c build/pic32mz_ef_sk_meb2/debug/_ext/493934858/lodepng.o
 .text.lodepng_info_copy
                0x00000000      0x228 build/pic32mz_ef_sk_meb2/debug/_ext/493934858/lodepng.o
 .text.lodepng_info_swap
                0x00000000       0xac build/pic32mz_ef_sk_meb2/debug/_ext/493934858/lodepng.o
 .text.lodepng_color_profile_init
                0x00000000       0x28 build/pic32mz_ef_sk_meb2/debug/_ext/493934858/lodepng.o
 .text.lodepng_get_color_profile
                0x00000000      0x798 build/pic32mz_ef_sk_meb2/debug/_ext/493934858/lodepng.o
 .text.lodepng_auto_choose_color
                0x00000000      0x260 build/pic32mz_ef_sk_meb2/debug/_ext/493934858/lodepng.o
 .text.lodepng_state_copy
                0x00000000       0xbc build/pic32mz_ef_sk_meb2/debug/_ext/493934858/lodepng.o
 .text.lodepng_encode
                0x00000000      0xb68 build/pic32mz_ef_sk_meb2/debug/_ext/493934858/lodepng.o
 .text.lodepng_decode32
                0x00000000       0x30 build/pic32mz_ef_sk_meb2/debug/_ext/493934858/lodepng.o
 .text.lodepng_decode24
                0x00000000       0x30 build/pic32mz_ef_sk_meb2/debug/_ext/493934858/lodepng.o
 .text.lodepng_decode_file
                0x00000000       0x98 build/pic32mz_ef_sk_meb2/debug/_ext/493934858/lodepng.o
 .text.lodepng_decode32_file
                0x00000000       0x28 build/pic32mz_ef_sk_meb2/debug/_ext/493934858/lodepng.o
 .text.lodepng_decode24_file
                0x00000000       0x28 build/pic32mz_ef_sk_meb2/debug/_ext/493934858/lodepng.o
 .text.lodepng_encode_memory
                0x00000000       0xb0 build/pic32mz_ef_sk_meb2/debug/_ext/493934858/lodepng.o
 .text.lodepng_encode32
                0x00000000       0x30 build/pic32mz_ef_sk_meb2/debug/_ext/493934858/lodepng.o
 .text.lodepng_encode24
                0x00000000       0x30 build/pic32mz_ef_sk_meb2/debug/_ext/493934858/lodepng.o
 .text.lodepng_encode_file
                0x00000000       0x80 build/pic32mz_ef_sk_meb2/debug/_ext/493934858/lodepng.o
 .text.lodepng_encode32_file
                0x00000000       0x28 build/pic32mz_ef_sk_meb2/debug/_ext/493934858/lodepng.o
 .text.lodepng_encode24_file
                0x00000000       0x28 build/pic32mz_ef_sk_meb2/debug/_ext/493934858/lodepng.o
 .text.lodepng_error_text
                0x00000000      0x574 build/pic32mz_ef_sk_meb2/debug/_ext/493934858/lodepng.o
 .text          0x00000000        0x0 build/pic32mz_ef_sk_meb2/debug/_ext/1597685232/gfxu_image_raw_external.o
 .data          0x00000000        0x0 build/pic32mz_ef_sk_meb2/debug/_ext/1597685232/gfxu_image_raw_external.o
 .bss           0x00000000        0x0 build/pic32mz_ef_sk_meb2/debug/_ext/1597685232/gfxu_image_raw_external.o
 .reginfo       0x00000000       0x18 build/pic32mz_ef_sk_meb2/debug/_ext/1597685232/gfxu_image_raw_external.o
 .text          0x00000000        0x0 build/pic32mz_ef_sk_meb2/debug/_ext/1597685232/gfxu_image_raw_internal.o
 .data          0x00000000        0x0 build/pic32mz_ef_sk_meb2/debug/_ext/1597685232/gfxu_image_raw_internal.o
 .bss           0x00000000        0x0 build/pic32mz_ef_sk_meb2/debug/_ext/1597685232/gfxu_image_raw_internal.o
 .reginfo       0x00000000       0x18 build/pic32mz_ef_sk_meb2/debug/_ext/1597685232/gfxu_image_raw_internal.o
 .text          0x00000000        0x0 build/pic32mz_ef_sk_meb2/debug/_ext/1597685232/gfxu_image_rle_external.o
 .data          0x00000000        0x0 build/pic32mz_ef_sk_meb2/debug/_ext/1597685232/gfxu_image_rle_external.o
 .bss           0x00000000        0x0 build/pic32mz_ef_sk_meb2/debug/_ext/1597685232/gfxu_image_rle_external.o
 .reginfo       0x00000000       0x18 build/pic32mz_ef_sk_meb2/debug/_ext/1597685232/gfxu_image_rle_external.o
 .text          0x00000000        0x0 build/pic32mz_ef_sk_meb2/debug/_ext/1597685232/gfxu_image_rle_internal.o
 .data          0x00000000        0x0 build/pic32mz_ef_sk_meb2/debug/_ext/1597685232/gfxu_image_rle_internal.o
 .bss           0x00000000        0x0 build/pic32mz_ef_sk_meb2/debug/_ext/1597685232/gfxu_image_rle_internal.o
 .reginfo       0x00000000       0x18 build/pic32mz_ef_sk_meb2/debug/_ext/1597685232/gfxu_image_rle_internal.o
 .text          0x00000000        0x0 build/pic32mz_ef_sk_meb2/debug/_ext/1597685232/gfxu_image_utils.o
 .bss           0x00000000        0x0 build/pic32mz_ef_sk_meb2/debug/_ext/1597685232/gfxu_image_utils.o
 .reginfo       0x00000000       0x18 build/pic32mz_ef_sk_meb2/debug/_ext/1597685232/gfxu_image_utils.o
 .text.convertColorAndSetDraw
                0x00000000       0x68 build/pic32mz_ef_sk_meb2/debug/_ext/1597685232/gfxu_image_utils.o
 .text          0x00000000        0x0 build/pic32mz_ef_sk_meb2/debug/_ext/1597685232/gfxu_palette.o
 .data          0x00000000        0x0 build/pic32mz_ef_sk_meb2/debug/_ext/1597685232/gfxu_palette.o
 .bss           0x00000000        0x0 build/pic32mz_ef_sk_meb2/debug/_ext/1597685232/gfxu_palette.o
 .reginfo       0x00000000       0x18 build/pic32mz_ef_sk_meb2/debug/_ext/1597685232/gfxu_palette.o
 .text.GFXU_PaletteGetColor
                0x00000000        0x8 build/pic32mz_ef_sk_meb2/debug/_ext/1597685232/gfxu_palette.o
 .text          0x00000000        0x0 build/pic32mz_ef_sk_meb2/debug/_ext/1597685232/gfxu_string.o
 .data          0x00000000        0x0 build/pic32mz_ef_sk_meb2/debug/_ext/1597685232/gfxu_string.o
 .bss           0x00000000        0x0 build/pic32mz_ef_sk_meb2/debug/_ext/1597685232/gfxu_string.o
 .reginfo       0x00000000       0x18 build/pic32mz_ef_sk_meb2/debug/_ext/1597685232/gfxu_string.o
 .text          0x00000000        0x0 build/pic32mz_ef_sk_meb2/debug/_ext/1597685232/gfxu_string_external.o
 .data          0x00000000        0x0 build/pic32mz_ef_sk_meb2/debug/_ext/1597685232/gfxu_string_external.o
 .bss           0x00000000        0x0 build/pic32mz_ef_sk_meb2/debug/_ext/1597685232/gfxu_string_external.o
 .reginfo       0x00000000       0x18 build/pic32mz_ef_sk_meb2/debug/_ext/1597685232/gfxu_string_external.o
 .text          0x00000000        0x0 build/pic32mz_ef_sk_meb2/debug/_ext/1597685232/gfxu_string_internal.o
 .data          0x00000000        0x0 build/pic32mz_ef_sk_meb2/debug/_ext/1597685232/gfxu_string_internal.o
 .bss           0x00000000        0x0 build/pic32mz_ef_sk_meb2/debug/_ext/1597685232/gfxu_string_internal.o
 .reginfo       0x00000000       0x18 build/pic32mz_ef_sk_meb2/debug/_ext/1597685232/gfxu_string_internal.o
 .text          0x00000000        0x0 build/pic32mz_ef_sk_meb2/debug/_ext/1597685232/gfxu_string_query.o
 .data          0x00000000        0x0 build/pic32mz_ef_sk_meb2/debug/_ext/1597685232/gfxu_string_query.o
 .bss           0x00000000        0x0 build/pic32mz_ef_sk_meb2/debug/_ext/1597685232/gfxu_string_query.o
 .reginfo       0x00000000       0x18 build/pic32mz_ef_sk_meb2/debug/_ext/1597685232/gfxu_string_query.o
 .text.GFXU_GetCharAt
                0x00000000      0x108 build/pic32mz_ef_sk_meb2/debug/_ext/1597685232/gfxu_string_query.o
 .text.GFXU_GetStringLength
                0x00000000       0xc0 build/pic32mz_ef_sk_meb2/debug/_ext/1597685232/gfxu_string_query.o
 .text.GFXU_GetCharWidth
                0x00000000       0x44 build/pic32mz_ef_sk_meb2/debug/_ext/1597685232/gfxu_string_query.o
 .text.GFXU_CalculatePartialStringWidth
                0x00000000      0x150 build/pic32mz_ef_sk_meb2/debug/_ext/1597685232/gfxu_string_query.o
 .text.GFXU_CalculatePartialCharStringWidth
                0x00000000       0xe0 build/pic32mz_ef_sk_meb2/debug/_ext/1597685232/gfxu_string_query.o
 .text          0x00000000        0x0 build/pic32mz_ef_sk_meb2/debug/_ext/1597685232/gfxu_string_utils.o
 .bss           0x00000000        0x0 build/pic32mz_ef_sk_meb2/debug/_ext/1597685232/gfxu_string_utils.o
 .reginfo       0x00000000       0x18 build/pic32mz_ef_sk_meb2/debug/_ext/1597685232/gfxu_string_utils.o
 .text.GFXU_ExtractString
                0x00000000      0x138 build/pic32mz_ef_sk_meb2/debug/_ext/1597685232/gfxu_string_utils.o
 .text          0x00000000        0x0 build/pic32mz_ef_sk_meb2/debug/_ext/1907747181/libaria.o
 .data          0x00000000        0x0 build/pic32mz_ef_sk_meb2/debug/_ext/1907747181/libaria.o
 .bss           0x00000000        0x0 build/pic32mz_ef_sk_meb2/debug/_ext/1907747181/libaria.o
 .reginfo       0x00000000       0x18 build/pic32mz_ef_sk_meb2/debug/_ext/1907747181/libaria.o
 .text.laShutdown
                0x00000000       0x44 build/pic32mz_ef_sk_meb2/debug/_ext/1907747181/libaria.o
 .text          0x00000000        0x0 build/pic32mz_ef_sk_meb2/debug/_ext/1907747181/libaria_context.o
 .data          0x00000000        0x0 build/pic32mz_ef_sk_meb2/debug/_ext/1907747181/libaria_context.o
 .bss           0x00000000        0x0 build/pic32mz_ef_sk_meb2/debug/_ext/1907747181/libaria_context.o
 .reginfo       0x00000000       0x18 build/pic32mz_ef_sk_meb2/debug/_ext/1907747181/libaria_context.o
 .text.laContext_Destroy
                0x00000000        0xc build/pic32mz_ef_sk_meb2/debug/_ext/1907747181/libaria_context.o
 .text.laContext_GetColorMode
                0x00000000       0x1c build/pic32mz_ef_sk_meb2/debug/_ext/1907747181/libaria_context.o
 .text.laContext_RemoveScreen
                0x00000000       0x44 build/pic32mz_ef_sk_meb2/debug/_ext/1907747181/libaria_context.o
 .text.laContext_GetActiveScreen
                0x00000000       0x1c build/pic32mz_ef_sk_meb2/debug/_ext/1907747181/libaria_context.o
 .text.laContext_HideActiveScreen
                0x00000000       0x3c build/pic32mz_ef_sk_meb2/debug/_ext/1907747181/libaria_context.o
 .text.laContext_GetPremptionLevel
                0x00000000       0x1c build/pic32mz_ef_sk_meb2/debug/_ext/1907747181/libaria_context.o
 .text.laContext_SetPremptionLevel
                0x00000000       0x20 build/pic32mz_ef_sk_meb2/debug/_ext/1907747181/libaria_context.o
 .text.laContext_SetStringLanguage
                0x00000000       0x28 build/pic32mz_ef_sk_meb2/debug/_ext/1907747181/libaria_context.o
 .text.laContext_GetFocusWidget
                0x00000000       0x1c build/pic32mz_ef_sk_meb2/debug/_ext/1907747181/libaria_context.o
 .text          0x00000000        0x0 build/pic32mz_ef_sk_meb2/debug/_ext/1907747181/libaria_context_paint.o
 .data          0x00000000        0x0 build/pic32mz_ef_sk_meb2/debug/_ext/1907747181/libaria_context_paint.o
 .bss           0x00000000        0x0 build/pic32mz_ef_sk_meb2/debug/_ext/1907747181/libaria_context_paint.o
 .reginfo       0x00000000       0x18 build/pic32mz_ef_sk_meb2/debug/_ext/1907747181/libaria_context_paint.o
 .text          0x00000000        0x0 build/pic32mz_ef_sk_meb2/debug/_ext/1907747181/libaria_draw.o
 .data          0x00000000        0x0 build/pic32mz_ef_sk_meb2/debug/_ext/1907747181/libaria_draw.o
 .bss           0x00000000        0x0 build/pic32mz_ef_sk_meb2/debug/_ext/1907747181/libaria_draw.o
 .reginfo       0x00000000       0x18 build/pic32mz_ef_sk_meb2/debug/_ext/1907747181/libaria_draw.o
 .text.laDraw_2x1BevelBorder
                0x00000000      0x14c build/pic32mz_ef_sk_meb2/debug/_ext/1907747181/libaria_draw.o
 .text          0x00000000        0x0 build/pic32mz_ef_sk_meb2/debug/_ext/1907747181/libaria_editwidget.o
 .data          0x00000000        0x0 build/pic32mz_ef_sk_meb2/debug/_ext/1907747181/libaria_editwidget.o
 .bss           0x00000000        0x0 build/pic32mz_ef_sk_meb2/debug/_ext/1907747181/libaria_editwidget.o
 .reginfo       0x00000000       0x18 build/pic32mz_ef_sk_meb2/debug/_ext/1907747181/libaria_editwidget.o
 .text.startEdit
                0x00000000        0x8 build/pic32mz_ef_sk_meb2/debug/_ext/1907747181/libaria_editwidget.o
 .text.endEdit  0x00000000        0x8 build/pic32mz_ef_sk_meb2/debug/_ext/1907747181/libaria_editwidget.o
 .text.clear    0x00000000        0x8 build/pic32mz_ef_sk_meb2/debug/_ext/1907747181/libaria_editwidget.o
 .text.accept   0x00000000        0x8 build/pic32mz_ef_sk_meb2/debug/_ext/1907747181/libaria_editwidget.o
 .text.set      0x00000000       0x10 build/pic32mz_ef_sk_meb2/debug/_ext/1907747181/libaria_editwidget.o
 .text.append   0x00000000       0x10 build/pic32mz_ef_sk_meb2/debug/_ext/1907747181/libaria_editwidget.o
 .text.backspace
                0x00000000        0x8 build/pic32mz_ef_sk_meb2/debug/_ext/1907747181/libaria_editwidget.o
 .text._laEditWidget_Constructor
                0x00000000       0x80 build/pic32mz_ef_sk_meb2/debug/_ext/1907747181/libaria_editwidget.o
 .text._laEditWidget_Destructor
                0x00000000       0x28 build/pic32mz_ef_sk_meb2/debug/_ext/1907747181/libaria_editwidget.o
 .text.laEditWidget_Clear
                0x00000000       0x30 build/pic32mz_ef_sk_meb2/debug/_ext/1907747181/libaria_editwidget.o
 .text.laEditWidget_Accept
                0x00000000       0x30 build/pic32mz_ef_sk_meb2/debug/_ext/1907747181/libaria_editwidget.o
 .text.laEditWidget_Set
                0x00000000       0x54 build/pic32mz_ef_sk_meb2/debug/_ext/1907747181/libaria_editwidget.o
 .text.laEditWidget_Append
                0x00000000       0x54 build/pic32mz_ef_sk_meb2/debug/_ext/1907747181/libaria_editwidget.o
 .text.laEditWidget_Backspace
                0x00000000       0x30 build/pic32mz_ef_sk_meb2/debug/_ext/1907747181/libaria_editwidget.o
 .text          0x00000000        0x0 build/pic32mz_ef_sk_meb2/debug/_ext/1907747181/libaria_event.o
 .data          0x00000000        0x0 build/pic32mz_ef_sk_meb2/debug/_ext/1907747181/libaria_event.o
 .bss           0x00000000        0x0 build/pic32mz_ef_sk_meb2/debug/_ext/1907747181/libaria_event.o
 .reginfo       0x00000000       0x18 build/pic32mz_ef_sk_meb2/debug/_ext/1907747181/libaria_event.o
 .text.laEvent_GetCount
                0x00000000       0x28 build/pic32mz_ef_sk_meb2/debug/_ext/1907747181/libaria_event.o
 .text.laEvent_SetFilter
                0x00000000       0x34 build/pic32mz_ef_sk_meb2/debug/_ext/1907747181/libaria_event.o
 .text.laEvent_ClearList
                0x00000000       0x30 build/pic32mz_ef_sk_meb2/debug/_ext/1907747181/libaria_event.o
 .text          0x00000000        0x0 build/pic32mz_ef_sk_meb2/debug/_ext/1907747181/libaria_input.o
 .data          0x00000000        0x0 build/pic32mz_ef_sk_meb2/debug/_ext/1907747181/libaria_input.o
 .bss           0x00000000        0x0 build/pic32mz_ef_sk_meb2/debug/_ext/1907747181/libaria_input.o
 .reginfo       0x00000000       0x18 build/pic32mz_ef_sk_meb2/debug/_ext/1907747181/libaria_input.o
 .text.laInput_GetEnabled
                0x00000000       0x28 build/pic32mz_ef_sk_meb2/debug/_ext/1907747181/libaria_input.o
 .text.laInput_InjectTouchDown
                0x00000000       0xe8 build/pic32mz_ef_sk_meb2/debug/_ext/1907747181/libaria_input.o
 .text.laInput_InjectTouchUp
                0x00000000       0xcc build/pic32mz_ef_sk_meb2/debug/_ext/1907747181/libaria_input.o
 .text.laInput_InjectTouchMoved
                0x00000000       0xe0 build/pic32mz_ef_sk_meb2/debug/_ext/1907747181/libaria_input.o
 .text          0x00000000        0x0 build/pic32mz_ef_sk_meb2/debug/_ext/1907747181/libaria_layer.o
 .data          0x00000000        0x0 build/pic32mz_ef_sk_meb2/debug/_ext/1907747181/libaria_layer.o
 .bss           0x00000000        0x0 build/pic32mz_ef_sk_meb2/debug/_ext/1907747181/libaria_layer.o
 .reginfo       0x00000000       0x18 build/pic32mz_ef_sk_meb2/debug/_ext/1907747181/libaria_layer.o
 .text.laLayer_SetAlphaEnable
                0x00000000       0x78 build/pic32mz_ef_sk_meb2/debug/_ext/1907747181/libaria_layer.o
 .text.laLayer_SetAlphaAmount
                0x00000000       0x78 build/pic32mz_ef_sk_meb2/debug/_ext/1907747181/libaria_layer.o
 .text.laLayer_GetMaskEnable
                0x00000000       0x18 build/pic32mz_ef_sk_meb2/debug/_ext/1907747181/libaria_layer.o
 .text.laLayer_SetMaskEnable
                0x00000000       0x84 build/pic32mz_ef_sk_meb2/debug/_ext/1907747181/libaria_layer.o
 .text.laLayer_GetMaskColor
                0x00000000       0x18 build/pic32mz_ef_sk_meb2/debug/_ext/1907747181/libaria_layer.o
 .text.laLayer_SetMaskColor
                0x00000000       0x84 build/pic32mz_ef_sk_meb2/debug/_ext/1907747181/libaria_layer.o
 .text.laLayer_GetBufferCount
                0x00000000       0x18 build/pic32mz_ef_sk_meb2/debug/_ext/1907747181/libaria_layer.o
 .text.laLayer_GetVSync
                0x00000000       0x18 build/pic32mz_ef_sk_meb2/debug/_ext/1907747181/libaria_layer.o
 .text.laLayer_SetVSync
                0x00000000       0x1c build/pic32mz_ef_sk_meb2/debug/_ext/1907747181/libaria_layer.o
 .text._laLayer_InvalidateArea
                0x00000000       0xcc build/pic32mz_ef_sk_meb2/debug/_ext/1907747181/libaria_layer.o
 .text          0x00000000        0x0 build/pic32mz_ef_sk_meb2/debug/_ext/1907747181/libaria_list.o
 .data          0x00000000        0x0 build/pic32mz_ef_sk_meb2/debug/_ext/1907747181/libaria_list.o
 .bss           0x00000000        0x0 build/pic32mz_ef_sk_meb2/debug/_ext/1907747181/libaria_list.o
 .reginfo       0x00000000       0x18 build/pic32mz_ef_sk_meb2/debug/_ext/1907747181/libaria_list.o
 .text.laList_Assign
                0x00000000       0x5c build/pic32mz_ef_sk_meb2/debug/_ext/1907747181/libaria_list.o
 .text.laList_PushFront
                0x00000000       0x9c build/pic32mz_ef_sk_meb2/debug/_ext/1907747181/libaria_list.o
 .text.laList_PopFront
                0x00000000       0x98 build/pic32mz_ef_sk_meb2/debug/_ext/1907747181/libaria_list.o
 .text.laList_InsertAt
                0x00000000       0xdc build/pic32mz_ef_sk_meb2/debug/_ext/1907747181/libaria_list.o
 .text.laList_RemoveAt
                0x00000000       0xdc build/pic32mz_ef_sk_meb2/debug/_ext/1907747181/libaria_list.o
 .text.laList_Copy
                0x00000000       0xc4 build/pic32mz_ef_sk_meb2/debug/_ext/1907747181/libaria_list.o
 .text          0x00000000        0x0 build/pic32mz_ef_sk_meb2/debug/_ext/1907747181/libaria_scheme.o
 .data          0x00000000        0x0 build/pic32mz_ef_sk_meb2/debug/_ext/1907747181/libaria_scheme.o
 .bss           0x00000000        0x0 build/pic32mz_ef_sk_meb2/debug/_ext/1907747181/libaria_scheme.o
 .reginfo       0x00000000       0x18 build/pic32mz_ef_sk_meb2/debug/_ext/1907747181/libaria_scheme.o
 .text          0x00000000        0x0 build/pic32mz_ef_sk_meb2/debug/_ext/1907747181/libaria_screen.o
 .data          0x00000000        0x0 build/pic32mz_ef_sk_meb2/debug/_ext/1907747181/libaria_screen.o
 .bss           0x00000000        0x0 build/pic32mz_ef_sk_meb2/debug/_ext/1907747181/libaria_screen.o
 .reginfo       0x00000000       0x18 build/pic32mz_ef_sk_meb2/debug/_ext/1907747181/libaria_screen.o
 .text.laScreen_Delete
                0x00000000       0x98 build/pic32mz_ef_sk_meb2/debug/_ext/1907747181/libaria_screen.o
 .text.laScreen_GetOrientation
                0x00000000       0x18 build/pic32mz_ef_sk_meb2/debug/_ext/1907747181/libaria_screen.o
 .text.laScreen_SetOrientation
                0x00000000       0x1c build/pic32mz_ef_sk_meb2/debug/_ext/1907747181/libaria_screen.o
 .text.laScreen_GetShowEventCallback
                0x00000000       0x18 build/pic32mz_ef_sk_meb2/debug/_ext/1907747181/libaria_screen.o
 .text.laScreen_SetShowEventCallback
                0x00000000       0x1c build/pic32mz_ef_sk_meb2/debug/_ext/1907747181/libaria_screen.o
 .text.laScreen_GetHideEventCallback
                0x00000000       0x18 build/pic32mz_ef_sk_meb2/debug/_ext/1907747181/libaria_screen.o
 .text.laScreen_SetHideEventCallback
                0x00000000       0x1c build/pic32mz_ef_sk_meb2/debug/_ext/1907747181/libaria_screen.o
 .text          0x00000000        0x0 build/pic32mz_ef_sk_meb2/debug/_ext/1907747181/libaria_string.o
 .data          0x00000000        0x0 build/pic32mz_ef_sk_meb2/debug/_ext/1907747181/libaria_string.o
 .bss           0x00000000        0x0 build/pic32mz_ef_sk_meb2/debug/_ext/1907747181/libaria_string.o
 .reginfo       0x00000000       0x18 build/pic32mz_ef_sk_meb2/debug/_ext/1907747181/libaria_string.o
 .text.laString_Delete
                0x00000000       0x7c build/pic32mz_ef_sk_meb2/debug/_ext/1907747181/libaria_string.o
 .text.laString_Allocate
                0x00000000       0xb4 build/pic32mz_ef_sk_meb2/debug/_ext/1907747181/libaria_string.o
 .text.laString_CreateFromCharBuffer
                0x00000000      0x174 build/pic32mz_ef_sk_meb2/debug/_ext/1907747181/libaria_string.o
 .text.laString_Set
                0x00000000       0xec build/pic32mz_ef_sk_meb2/debug/_ext/1907747181/libaria_string.o
 .text.laString_CreateFromBuffer
                0x00000000       0xc4 build/pic32mz_ef_sk_meb2/debug/_ext/1907747181/libaria_string.o
 .text.laString_New
                0x00000000       0x6c build/pic32mz_ef_sk_meb2/debug/_ext/1907747181/libaria_string.o
 .text.laString_ExtractFromTable
                0x00000000       0xe0 build/pic32mz_ef_sk_meb2/debug/_ext/1907747181/libaria_string.o
 .text.laString_CharAt
                0x00000000       0x88 build/pic32mz_ef_sk_meb2/debug/_ext/1907747181/libaria_string.o
 .text.laString_Length
                0x00000000       0x6c build/pic32mz_ef_sk_meb2/debug/_ext/1907747181/libaria_string.o
 .text.laString_ReduceLength
                0x00000000       0x3c build/pic32mz_ef_sk_meb2/debug/_ext/1907747181/libaria_string.o
 .text.laString_Capacity
                0x00000000       0x18 build/pic32mz_ef_sk_meb2/debug/_ext/1907747181/libaria_string.o
 .text.laString_SetCapacity
                0x00000000      0x124 build/pic32mz_ef_sk_meb2/debug/_ext/1907747181/libaria_string.o
 .text.laString_CompareBuffer
                0x00000000       0x40 build/pic32mz_ef_sk_meb2/debug/_ext/1907747181/libaria_string.o
 .text.laString_Append
                0x00000000      0x21c build/pic32mz_ef_sk_meb2/debug/_ext/1907747181/libaria_string.o
 .text.laString_Insert
                0x00000000      0x198 build/pic32mz_ef_sk_meb2/debug/_ext/1907747181/libaria_string.o
 .text.laString_Clear
                0x00000000       0x28 build/pic32mz_ef_sk_meb2/debug/_ext/1907747181/libaria_string.o
 .text.laString_ToCharBuffer
                0x00000000       0x70 build/pic32mz_ef_sk_meb2/debug/_ext/1907747181/libaria_string.o
 .text.laString_GetHeight
                0x00000000       0x7c build/pic32mz_ef_sk_meb2/debug/_ext/1907747181/libaria_string.o
 .text.laString_GetCharOffset
                0x00000000       0x90 build/pic32mz_ef_sk_meb2/debug/_ext/1907747181/libaria_string.o
 .text.laString_GetCharWidth
                0x00000000       0xbc build/pic32mz_ef_sk_meb2/debug/_ext/1907747181/libaria_string.o
 .text.laString_GetCharIndexAtPoint
                0x00000000       0xcc build/pic32mz_ef_sk_meb2/debug/_ext/1907747181/libaria_string.o
 .text          0x00000000        0x0 build/pic32mz_ef_sk_meb2/debug/_ext/1907747181/libaria_utils.o
 .data          0x00000000        0x0 build/pic32mz_ef_sk_meb2/debug/_ext/1907747181/libaria_utils.o
 .bss           0x00000000        0x0 build/pic32mz_ef_sk_meb2/debug/_ext/1907747181/libaria_utils.o
 .reginfo       0x00000000       0x18 build/pic32mz_ef_sk_meb2/debug/_ext/1907747181/libaria_utils.o
 .text.pickChildRect
                0x00000000       0xfc build/pic32mz_ef_sk_meb2/debug/_ext/1907747181/libaria_utils.o
 .text.laUtils_PickRect
                0x00000000      0x13c build/pic32mz_ef_sk_meb2/debug/_ext/1907747181/libaria_utils.o
 .text.laUtils_PointToScreenSpace
                0x00000000       0x70 build/pic32mz_ef_sk_meb2/debug/_ext/1907747181/libaria_utils.o
 .text.laUtils_PointScreenToLocalSpace
                0x00000000       0x70 build/pic32mz_ef_sk_meb2/debug/_ext/1907747181/libaria_utils.o
 .text.laUtils_RectToParentSpace
                0x00000000       0x48 build/pic32mz_ef_sk_meb2/debug/_ext/1907747181/libaria_utils.o
 .text.laUtils_RectFromParentSpace
                0x00000000       0x48 build/pic32mz_ef_sk_meb2/debug/_ext/1907747181/libaria_utils.o
 .text.laUtils_ListOcclusionCullTest
                0x00000000      0x174 build/pic32mz_ef_sk_meb2/debug/_ext/1907747181/libaria_utils.o
 .text          0x00000000        0x0 build/pic32mz_ef_sk_meb2/debug/_ext/1907747181/libaria_widget.o
 .data          0x00000000        0x0 build/pic32mz_ef_sk_meb2/debug/_ext/1907747181/libaria_widget.o
 .bss           0x00000000        0x0 build/pic32mz_ef_sk_meb2/debug/_ext/1907747181/libaria_widget.o
 .reginfo       0x00000000       0x18 build/pic32mz_ef_sk_meb2/debug/_ext/1907747181/libaria_widget.o
 .text.laWidget_New
                0x00000000       0x58 build/pic32mz_ef_sk_meb2/debug/_ext/1907747181/libaria_widget.o
 .text.laWidget_Delete
                0x00000000       0x54 build/pic32mz_ef_sk_meb2/debug/_ext/1907747181/libaria_widget.o
 .text._laWidget_Update
                0x00000000        0x8 build/pic32mz_ef_sk_meb2/debug/_ext/1907747181/libaria_widget.o
 .text.laWidget_GetEnabled
                0x00000000       0x18 build/pic32mz_ef_sk_meb2/debug/_ext/1907747181/libaria_widget.o
 .text.laWidget_GetVisible
                0x00000000       0x18 build/pic32mz_ef_sk_meb2/debug/_ext/1907747181/libaria_widget.o
 .text.laWidget_GetX
                0x00000000       0x18 build/pic32mz_ef_sk_meb2/debug/_ext/1907747181/libaria_widget.o
 .text.laWidget_GetY
                0x00000000       0x18 build/pic32mz_ef_sk_meb2/debug/_ext/1907747181/libaria_widget.o
 .text.laWidget_GetWidth
                0x00000000       0x18 build/pic32mz_ef_sk_meb2/debug/_ext/1907747181/libaria_widget.o
 .text.laWidget_GetHeight
                0x00000000       0x18 build/pic32mz_ef_sk_meb2/debug/_ext/1907747181/libaria_widget.o
 .text.laWidget_GetAlphaEnable
                0x00000000       0x18 build/pic32mz_ef_sk_meb2/debug/_ext/1907747181/libaria_widget.o
 .text.laWidget_GetAlphaAmount
                0x00000000       0x18 build/pic32mz_ef_sk_meb2/debug/_ext/1907747181/libaria_widget.o
 .text.laWidget_isOpaque
                0x00000000       0x44 build/pic32mz_ef_sk_meb2/debug/_ext/1907747181/libaria_widget.o
 .text.laWidget_RectToParentSpace
                0x00000000       0x6c build/pic32mz_ef_sk_meb2/debug/_ext/1907747181/libaria_widget.o
 .text.laWidget_RectToLayerSpace
                0x00000000       0xa4 build/pic32mz_ef_sk_meb2/debug/_ext/1907747181/libaria_widget.o
 .text.laWidget_RectToScreenSpace
                0x00000000       0x8c build/pic32mz_ef_sk_meb2/debug/_ext/1907747181/libaria_widget.o
 .text.laWidget_GetBorderType
                0x00000000       0x18 build/pic32mz_ef_sk_meb2/debug/_ext/1907747181/libaria_widget.o
 .text.laWidget_GetDrawBackground
                0x00000000       0x18 build/pic32mz_ef_sk_meb2/debug/_ext/1907747181/libaria_widget.o
 .text.laWidget_GetLocalRedraw
                0x00000000       0x18 build/pic32mz_ef_sk_meb2/debug/_ext/1907747181/libaria_widget.o
 .text.laWidget_GetMargins
                0x00000000       0x24 build/pic32mz_ef_sk_meb2/debug/_ext/1907747181/libaria_widget.o
 .text.laWidget_HasFocus
                0x00000000       0x40 build/pic32mz_ef_sk_meb2/debug/_ext/1907747181/libaria_widget.o
 .text.laWidget_SetFocus
                0x00000000       0x1c build/pic32mz_ef_sk_meb2/debug/_ext/1907747181/libaria_widget.o
 .text.laWidget_OverrideTouchDownEvent
                0x00000000       0x2c build/pic32mz_ef_sk_meb2/debug/_ext/1907747181/libaria_widget.o
 .text.laWidget_OverrideTouchUpEvent
                0x00000000       0x2c build/pic32mz_ef_sk_meb2/debug/_ext/1907747181/libaria_widget.o
 .text.laWidget_OverrideTouchMovedEvent
                0x00000000       0x2c build/pic32mz_ef_sk_meb2/debug/_ext/1907747181/libaria_widget.o
 .text.laWidget_GetChildCount
                0x00000000       0x18 build/pic32mz_ef_sk_meb2/debug/_ext/1907747181/libaria_widget.o
 .text.laWidget_GetChildAtIndex
                0x00000000       0x48 build/pic32mz_ef_sk_meb2/debug/_ext/1907747181/libaria_widget.o
 .text.laWidget_GetIndexOfChild
                0x00000000       0x40 build/pic32mz_ef_sk_meb2/debug/_ext/1907747181/libaria_widget.o
 .text.laWidget_GetScheme
                0x00000000       0x18 build/pic32mz_ef_sk_meb2/debug/_ext/1907747181/libaria_widget.o
 .text.laWidget_SetEnabled
                0x00000000       0x34 build/pic32mz_ef_sk_meb2/debug/_ext/1907747181/libaria_widget.o
 .text.laWidget_SetVisible
                0x00000000       0x34 build/pic32mz_ef_sk_meb2/debug/_ext/1907747181/libaria_widget.o
 .text.laWidget_SetX
                0x00000000       0x44 build/pic32mz_ef_sk_meb2/debug/_ext/1907747181/libaria_widget.o
 .text.laWidget_SetY
                0x00000000       0x44 build/pic32mz_ef_sk_meb2/debug/_ext/1907747181/libaria_widget.o
 .text.laWidget_SetWidth
                0x00000000       0x44 build/pic32mz_ef_sk_meb2/debug/_ext/1907747181/libaria_widget.o
 .text.laWidget_SetHeight
                0x00000000       0x44 build/pic32mz_ef_sk_meb2/debug/_ext/1907747181/libaria_widget.o
 .text.laWidget_SetAlphaEnable
                0x00000000       0x48 build/pic32mz_ef_sk_meb2/debug/_ext/1907747181/libaria_widget.o
 .text.laWidget_SetAlphaAmount
                0x00000000       0x50 build/pic32mz_ef_sk_meb2/debug/_ext/1907747181/libaria_widget.o
 .text.laWidget_SetLocalRedraw
                0x00000000       0x28 build/pic32mz_ef_sk_meb2/debug/_ext/1907747181/libaria_widget.o
 .text.laWidget_SetMargins
                0x00000000       0x6c build/pic32mz_ef_sk_meb2/debug/_ext/1907747181/libaria_widget.o
 .text.laWidget_SetParent
                0x00000000       0x68 build/pic32mz_ef_sk_meb2/debug/_ext/1907747181/libaria_widget.o
 .text.laWidget_Translate
                0x00000000       0x8c build/pic32mz_ef_sk_meb2/debug/_ext/1907747181/libaria_widget.o
 .text.laWidget_Resize
                0x00000000       0xa8 build/pic32mz_ef_sk_meb2/debug/_ext/1907747181/libaria_widget.o
 .text          0x00000000        0x0 build/pic32mz_ef_sk_meb2/debug/_ext/1907747181/libaria_widget_skin_classic.o
 .data          0x00000000        0x0 build/pic32mz_ef_sk_meb2/debug/_ext/1907747181/libaria_widget_skin_classic.o
 .bss           0x00000000        0x0 build/pic32mz_ef_sk_meb2/debug/_ext/1907747181/libaria_widget_skin_classic.o
 .reginfo       0x00000000       0x18 build/pic32mz_ef_sk_meb2/debug/_ext/1907747181/libaria_widget_skin_classic.o
 .text          0x00000000        0x0 build/pic32mz_ef_sk_meb2/debug/_ext/1907747181/libaria_widget_button.o
 .data          0x00000000        0x0 build/pic32mz_ef_sk_meb2/debug/_ext/1907747181/libaria_widget_button.o
 .bss           0x00000000        0x0 build/pic32mz_ef_sk_meb2/debug/_ext/1907747181/libaria_widget_button.o
 .reginfo       0x00000000       0x18 build/pic32mz_ef_sk_meb2/debug/_ext/1907747181/libaria_widget_button.o
 .text.laButtonWidget_GetToggleable
                0x00000000       0x18 build/pic32mz_ef_sk_meb2/debug/_ext/1907747181/libaria_widget_button.o
 .text.laButtonWidget_SetToggleable
                0x00000000       0x14 build/pic32mz_ef_sk_meb2/debug/_ext/1907747181/libaria_widget_button.o
 .text.laButtonWidget_GetPressed
                0x00000000       0x20 build/pic32mz_ef_sk_meb2/debug/_ext/1907747181/libaria_widget_button.o
 .text.laButtonWidget_SetPressed
                0x00000000      0x100 build/pic32mz_ef_sk_meb2/debug/_ext/1907747181/libaria_widget_button.o
 .text.laButtonWidget_GetHAlignment
                0x00000000       0x18 build/pic32mz_ef_sk_meb2/debug/_ext/1907747181/libaria_widget_button.o
 .text.laButtonWidget_SetHAlignment
                0x00000000       0x34 build/pic32mz_ef_sk_meb2/debug/_ext/1907747181/libaria_widget_button.o
 .text.laButtonWidget_GetVAlignment
                0x00000000       0x18 build/pic32mz_ef_sk_meb2/debug/_ext/1907747181/libaria_widget_button.o
 .text.laButtonWidget_SetVAlignment
                0x00000000       0x34 build/pic32mz_ef_sk_meb2/debug/_ext/1907747181/libaria_widget_button.o
 .text.laButtonWidget_GetText
                0x00000000       0x2c build/pic32mz_ef_sk_meb2/debug/_ext/1907747181/libaria_widget_button.o
 .text.laButtonWidget_GetPressedImage
                0x00000000       0x18 build/pic32mz_ef_sk_meb2/debug/_ext/1907747181/libaria_widget_button.o
 .text.laButtonWidget_SetPressedImage
                0x00000000       0x34 build/pic32mz_ef_sk_meb2/debug/_ext/1907747181/libaria_widget_button.o
 .text.laButtonWidget_GetReleasedImage
                0x00000000       0x18 build/pic32mz_ef_sk_meb2/debug/_ext/1907747181/libaria_widget_button.o
 .text.laButtonWidget_SetReleasedImage
                0x00000000       0x34 build/pic32mz_ef_sk_meb2/debug/_ext/1907747181/libaria_widget_button.o
 .text.laButtonWidget_GetImagePosition
                0x00000000       0x18 build/pic32mz_ef_sk_meb2/debug/_ext/1907747181/libaria_widget_button.o
 .text.laButtonWidget_SetImagePosition
                0x00000000       0x34 build/pic32mz_ef_sk_meb2/debug/_ext/1907747181/libaria_widget_button.o
 .text.laButtonWidget_GetImageMargin
                0x00000000       0x18 build/pic32mz_ef_sk_meb2/debug/_ext/1907747181/libaria_widget_button.o
 .text.laButtonWidget_SetImageMargin
                0x00000000       0x34 build/pic32mz_ef_sk_meb2/debug/_ext/1907747181/libaria_widget_button.o
 .text.laButtonWidget_GetPressedOffset
                0x00000000       0x18 build/pic32mz_ef_sk_meb2/debug/_ext/1907747181/libaria_widget_button.o
 .text.laButtonWidget_SetPressedOffset
                0x00000000       0x44 build/pic32mz_ef_sk_meb2/debug/_ext/1907747181/libaria_widget_button.o
 .text.laButtonWidget_GetPressedEventCallback
                0x00000000       0x18 build/pic32mz_ef_sk_meb2/debug/_ext/1907747181/libaria_widget_button.o
 .text.laButtonWidget_SetPressedEventCallback
                0x00000000       0x1c build/pic32mz_ef_sk_meb2/debug/_ext/1907747181/libaria_widget_button.o
 .text.laButtonWidget_GetReleasedEventCallback
                0x00000000       0x18 build/pic32mz_ef_sk_meb2/debug/_ext/1907747181/libaria_widget_button.o
 .text.laButtonWidget_SetReleasedEventCallback
                0x00000000       0x1c build/pic32mz_ef_sk_meb2/debug/_ext/1907747181/libaria_widget_button.o
 .text          0x00000000        0x0 build/pic32mz_ef_sk_meb2/debug/_ext/1907747181/libaria_widget_button_skin_classic.o
 .data          0x00000000        0x0 build/pic32mz_ef_sk_meb2/debug/_ext/1907747181/libaria_widget_button_skin_classic.o
 .bss           0x00000000        0x0 build/pic32mz_ef_sk_meb2/debug/_ext/1907747181/libaria_widget_button_skin_classic.o
 .reginfo       0x00000000       0x18 build/pic32mz_ef_sk_meb2/debug/_ext/1907747181/libaria_widget_button_skin_classic.o
 .text          0x00000000        0x0 build/pic32mz_ef_sk_meb2/debug/_ext/1907747181/libaria_widget_checkbox.o
 .data          0x00000000        0x0 build/pic32mz_ef_sk_meb2/debug/_ext/1907747181/libaria_widget_checkbox.o
 .bss           0x00000000        0x0 build/pic32mz_ef_sk_meb2/debug/_ext/1907747181/libaria_widget_checkbox.o
 .reginfo       0x00000000       0x18 build/pic32mz_ef_sk_meb2/debug/_ext/1907747181/libaria_widget_checkbox.o
 .text._laCheckBoxWidget_TouchMovedEvent
                0x00000000        0xc build/pic32mz_ef_sk_meb2/debug/_ext/1907747181/libaria_widget_checkbox.o
 .text._laCheckBoxWidget_Destructor
                0x00000000       0x54 build/pic32mz_ef_sk_meb2/debug/_ext/1907747181/libaria_widget_checkbox.o
 .text._laCheckBoxWidget_TouchDownEvent
                0x00000000       0x7c build/pic32mz_ef_sk_meb2/debug/_ext/1907747181/libaria_widget_checkbox.o
 .text._laCheckBoxWidget_TouchUpEvent
                0x00000000       0xb8 build/pic32mz_ef_sk_meb2/debug/_ext/1907747181/libaria_widget_checkbox.o
 .text._laCheckBoxWidget_Constructor
                0x00000000       0xa4 build/pic32mz_ef_sk_meb2/debug/_ext/1907747181/libaria_widget_checkbox.o
 .text.laCheckBoxWidget_New
                0x00000000       0x58 build/pic32mz_ef_sk_meb2/debug/_ext/1907747181/libaria_widget_checkbox.o
 .text.laButtonWidget_GetChecked
                0x00000000       0x18 build/pic32mz_ef_sk_meb2/debug/_ext/1907747181/libaria_widget_checkbox.o
 .text.laCheckBoxWidget_SetChecked
                0x00000000       0x14 build/pic32mz_ef_sk_meb2/debug/_ext/1907747181/libaria_widget_checkbox.o
 .text.laCheckBoxWidget_GetHAlignment
                0x00000000       0x18 build/pic32mz_ef_sk_meb2/debug/_ext/1907747181/libaria_widget_checkbox.o
 .text.laCheckBoxWidget_SetHAlignment
                0x00000000       0x34 build/pic32mz_ef_sk_meb2/debug/_ext/1907747181/libaria_widget_checkbox.o
 .text.laCheckBoxWidget_GetVAlignment
                0x00000000       0x18 build/pic32mz_ef_sk_meb2/debug/_ext/1907747181/libaria_widget_checkbox.o
 .text.laCheckBoxWidget_SetVAlignment
                0x00000000       0x34 build/pic32mz_ef_sk_meb2/debug/_ext/1907747181/libaria_widget_checkbox.o
 .text.laCheckBoxWidget_GetText
                0x00000000       0x2c build/pic32mz_ef_sk_meb2/debug/_ext/1907747181/libaria_widget_checkbox.o
 .text.laCheckBoxWidget_SetText
                0x00000000       0x64 build/pic32mz_ef_sk_meb2/debug/_ext/1907747181/libaria_widget_checkbox.o
 .text.laCheckBoxWidget_GetCheckedImage
                0x00000000       0x18 build/pic32mz_ef_sk_meb2/debug/_ext/1907747181/libaria_widget_checkbox.o
 .text.laCheckBoxWidget_SetCheckedImage
                0x00000000       0x34 build/pic32mz_ef_sk_meb2/debug/_ext/1907747181/libaria_widget_checkbox.o
 .text.laCheckBoxWidget_GetUncheckedImage
                0x00000000       0x18 build/pic32mz_ef_sk_meb2/debug/_ext/1907747181/libaria_widget_checkbox.o
 .text.laCheckBoxWidget_SetUncheckedImage
                0x00000000       0x34 build/pic32mz_ef_sk_meb2/debug/_ext/1907747181/libaria_widget_checkbox.o
 .text.laCheckBoxWidget_GetImagePosition
                0x00000000       0x18 build/pic32mz_ef_sk_meb2/debug/_ext/1907747181/libaria_widget_checkbox.o
 .text.laCheckBoxWidget_SetImagePosition
                0x00000000       0x34 build/pic32mz_ef_sk_meb2/debug/_ext/1907747181/libaria_widget_checkbox.o
 .text.laCheckBoxWidget_GetImageMargin
                0x00000000       0x18 build/pic32mz_ef_sk_meb2/debug/_ext/1907747181/libaria_widget_checkbox.o
 .text.laCheckBoxWidget_SetImageMargin
                0x00000000       0x34 build/pic32mz_ef_sk_meb2/debug/_ext/1907747181/libaria_widget_checkbox.o
 .text.laCheckBoxWidget_GetCheckedEventCallback
                0x00000000       0x18 build/pic32mz_ef_sk_meb2/debug/_ext/1907747181/libaria_widget_checkbox.o
 .text.laCheckBoxWidget_SetCheckedEventCallback
                0x00000000       0x10 build/pic32mz_ef_sk_meb2/debug/_ext/1907747181/libaria_widget_checkbox.o
 .text.laCheckBoxWidget_GetUncheckedEventCallback
                0x00000000       0x18 build/pic32mz_ef_sk_meb2/debug/_ext/1907747181/libaria_widget_checkbox.o
 .text.laCheckBoxWidget_SetUncheckedEventCallback
                0x00000000       0x10 build/pic32mz_ef_sk_meb2/debug/_ext/1907747181/libaria_widget_checkbox.o
 .text          0x00000000        0x0 build/pic32mz_ef_sk_meb2/debug/_ext/1907747181/libaria_widget_checkbox_skin_classic.o
 .data          0x00000000        0x0 build/pic32mz_ef_sk_meb2/debug/_ext/1907747181/libaria_widget_checkbox_skin_classic.o
 .bss           0x00000000        0x0 build/pic32mz_ef_sk_meb2/debug/_ext/1907747181/libaria_widget_checkbox_skin_classic.o
 .reginfo       0x00000000       0x18 build/pic32mz_ef_sk_meb2/debug/_ext/1907747181/libaria_widget_checkbox_skin_classic.o
 .text.drawBackground
                0x00000000       0xc8 build/pic32mz_ef_sk_meb2/debug/_ext/1907747181/libaria_widget_checkbox_skin_classic.o
 .text.waitImage
                0x00000000       0xdc build/pic32mz_ef_sk_meb2/debug/_ext/1907747181/libaria_widget_checkbox_skin_classic.o
 .text.drawBorder
                0x00000000       0xe0 build/pic32mz_ef_sk_meb2/debug/_ext/1907747181/libaria_widget_checkbox_skin_classic.o
 .text.waitString
                0x00000000       0xb4 build/pic32mz_ef_sk_meb2/debug/_ext/1907747181/libaria_widget_checkbox_skin_classic.o
 .text.drawString
                0x00000000      0x1dc build/pic32mz_ef_sk_meb2/debug/_ext/1907747181/libaria_widget_checkbox_skin_classic.o
 .text.drawImage
                0x00000000      0x380 build/pic32mz_ef_sk_meb2/debug/_ext/1907747181/libaria_widget_checkbox_skin_classic.o
 .text._laCheckBoxWidget_GetImageRect
                0x00000000      0x138 build/pic32mz_ef_sk_meb2/debug/_ext/1907747181/libaria_widget_checkbox_skin_classic.o
 .text._laCheckBoxWidget_Paint
                0x00000000       0x4c build/pic32mz_ef_sk_meb2/debug/_ext/1907747181/libaria_widget_checkbox_skin_classic.o
 .text          0x00000000        0x0 build/pic32mz_ef_sk_meb2/debug/_ext/1907747181/libaria_widget_circle.o
 .data          0x00000000        0x0 build/pic32mz_ef_sk_meb2/debug/_ext/1907747181/libaria_widget_circle.o
 .bss           0x00000000        0x0 build/pic32mz_ef_sk_meb2/debug/_ext/1907747181/libaria_widget_circle.o
 .reginfo       0x00000000       0x18 build/pic32mz_ef_sk_meb2/debug/_ext/1907747181/libaria_widget_circle.o
 .text._laCircleWidget_Destructor
                0x00000000       0x1c build/pic32mz_ef_sk_meb2/debug/_ext/1907747181/libaria_widget_circle.o
 .text._laCircleWidget_Constructor
                0x00000000       0x68 build/pic32mz_ef_sk_meb2/debug/_ext/1907747181/libaria_widget_circle.o
 .text.laCircleWidget_New
                0x00000000       0x58 build/pic32mz_ef_sk_meb2/debug/_ext/1907747181/libaria_widget_circle.o
 .text.laCircleWidget_GetOrigin
                0x00000000       0x48 build/pic32mz_ef_sk_meb2/debug/_ext/1907747181/libaria_widget_circle.o
 .text.laCircleWidget_SetOrigin
                0x00000000       0x48 build/pic32mz_ef_sk_meb2/debug/_ext/1907747181/libaria_widget_circle.o
 .text.laCircleWidget_GetRadius
                0x00000000       0x18 build/pic32mz_ef_sk_meb2/debug/_ext/1907747181/libaria_widget_circle.o
 .text.laCircleWidget_SetRadius
                0x00000000       0x44 build/pic32mz_ef_sk_meb2/debug/_ext/1907747181/libaria_widget_circle.o
 .text          0x00000000        0x0 build/pic32mz_ef_sk_meb2/debug/_ext/1907747181/libaria_widget_circle_skin_classic.o
 .data          0x00000000        0x0 build/pic32mz_ef_sk_meb2/debug/_ext/1907747181/libaria_widget_circle_skin_classic.o
 .bss           0x00000000        0x0 build/pic32mz_ef_sk_meb2/debug/_ext/1907747181/libaria_widget_circle_skin_classic.o
 .reginfo       0x00000000       0x18 build/pic32mz_ef_sk_meb2/debug/_ext/1907747181/libaria_widget_circle_skin_classic.o
 .text.drawCircle
                0x00000000       0xb4 build/pic32mz_ef_sk_meb2/debug/_ext/1907747181/libaria_widget_circle_skin_classic.o
 .text.drawBorder
                0x00000000       0xd0 build/pic32mz_ef_sk_meb2/debug/_ext/1907747181/libaria_widget_circle_skin_classic.o
 .text.drawBackground
                0x00000000       0xc8 build/pic32mz_ef_sk_meb2/debug/_ext/1907747181/libaria_widget_circle_skin_classic.o
 .text._laCircleWidget_Paint
                0x00000000       0x68 build/pic32mz_ef_sk_meb2/debug/_ext/1907747181/libaria_widget_circle_skin_classic.o
 .text          0x00000000        0x0 build/pic32mz_ef_sk_meb2/debug/_ext/1907747181/libaria_widget_drawsurface.o
 .data          0x00000000        0x0 build/pic32mz_ef_sk_meb2/debug/_ext/1907747181/libaria_widget_drawsurface.o
 .bss           0x00000000        0x0 build/pic32mz_ef_sk_meb2/debug/_ext/1907747181/libaria_widget_drawsurface.o
 .reginfo       0x00000000       0x18 build/pic32mz_ef_sk_meb2/debug/_ext/1907747181/libaria_widget_drawsurface.o
 .text._laDrawSurfaceWidget_Destructor
                0x00000000       0x1c build/pic32mz_ef_sk_meb2/debug/_ext/1907747181/libaria_widget_drawsurface.o
 .text._laDrawSurfaceWidget_Constructor
                0x00000000       0x60 build/pic32mz_ef_sk_meb2/debug/_ext/1907747181/libaria_widget_drawsurface.o
 .text.laDrawSurfaceWidget_New
                0x00000000       0x58 build/pic32mz_ef_sk_meb2/debug/_ext/1907747181/libaria_widget_drawsurface.o
 .text.laDrawSurfaceWidget_GetDrawCallback
                0x00000000       0x18 build/pic32mz_ef_sk_meb2/debug/_ext/1907747181/libaria_widget_drawsurface.o
 .text.laDrawSurfaceWidget_SetDrawCallback
                0x00000000       0x48 build/pic32mz_ef_sk_meb2/debug/_ext/1907747181/libaria_widget_drawsurface.o
 .text          0x00000000        0x0 build/pic32mz_ef_sk_meb2/debug/_ext/1907747181/libaria_widget_drawsurface_skin_classic.o
 .data          0x00000000        0x0 build/pic32mz_ef_sk_meb2/debug/_ext/1907747181/libaria_widget_drawsurface_skin_classic.o
 .bss           0x00000000        0x0 build/pic32mz_ef_sk_meb2/debug/_ext/1907747181/libaria_widget_drawsurface_skin_classic.o
 .reginfo       0x00000000       0x18 build/pic32mz_ef_sk_meb2/debug/_ext/1907747181/libaria_widget_drawsurface_skin_classic.o
 .text.drawBackground
                0x00000000      0x108 build/pic32mz_ef_sk_meb2/debug/_ext/1907747181/libaria_widget_drawsurface_skin_classic.o
 .text.drawCallback
                0x00000000       0xbc build/pic32mz_ef_sk_meb2/debug/_ext/1907747181/libaria_widget_drawsurface_skin_classic.o
 .text.drawBorder
                0x00000000       0xe0 build/pic32mz_ef_sk_meb2/debug/_ext/1907747181/libaria_widget_drawsurface_skin_classic.o
 .text._laDrawSurfaceWidget_Paint
                0x00000000       0x4c build/pic32mz_ef_sk_meb2/debug/_ext/1907747181/libaria_widget_drawsurface_skin_classic.o
 .text          0x00000000        0x0 build/pic32mz_ef_sk_meb2/debug/_ext/1907747181/libaria_widget_gradient.o
 .data          0x00000000        0x0 build/pic32mz_ef_sk_meb2/debug/_ext/1907747181/libaria_widget_gradient.o
 .bss           0x00000000        0x0 build/pic32mz_ef_sk_meb2/debug/_ext/1907747181/libaria_widget_gradient.o
 .reginfo       0x00000000       0x18 build/pic32mz_ef_sk_meb2/debug/_ext/1907747181/libaria_widget_gradient.o
 .text._laGradientWidget_Destructor
                0x00000000       0x1c build/pic32mz_ef_sk_meb2/debug/_ext/1907747181/libaria_widget_gradient.o
 .text._laGradientWidget_Constructor
                0x00000000       0x60 build/pic32mz_ef_sk_meb2/debug/_ext/1907747181/libaria_widget_gradient.o
 .text.laGradientWidget_New
                0x00000000       0x58 build/pic32mz_ef_sk_meb2/debug/_ext/1907747181/libaria_widget_gradient.o
 .text.laGradientWidget_GetDirection
                0x00000000       0x18 build/pic32mz_ef_sk_meb2/debug/_ext/1907747181/libaria_widget_gradient.o
 .text.laGradientWidget_SetDirection
                0x00000000       0x44 build/pic32mz_ef_sk_meb2/debug/_ext/1907747181/libaria_widget_gradient.o
 .text          0x00000000        0x0 build/pic32mz_ef_sk_meb2/debug/_ext/1907747181/libaria_widget_gradient_skin_classic.o
 .data          0x00000000        0x0 build/pic32mz_ef_sk_meb2/debug/_ext/1907747181/libaria_widget_gradient_skin_classic.o
 .bss           0x00000000        0x0 build/pic32mz_ef_sk_meb2/debug/_ext/1907747181/libaria_widget_gradient_skin_classic.o
 .reginfo       0x00000000       0x18 build/pic32mz_ef_sk_meb2/debug/_ext/1907747181/libaria_widget_gradient_skin_classic.o
 .text.drawBorder
                0x00000000       0xd0 build/pic32mz_ef_sk_meb2/debug/_ext/1907747181/libaria_widget_gradient_skin_classic.o
 .text.drawBackground
                0x00000000      0x128 build/pic32mz_ef_sk_meb2/debug/_ext/1907747181/libaria_widget_gradient_skin_classic.o
 .text._laGradientWidget_Paint
                0x00000000       0x7c build/pic32mz_ef_sk_meb2/debug/_ext/1907747181/libaria_widget_gradient_skin_classic.o
 .text          0x00000000        0x0 build/pic32mz_ef_sk_meb2/debug/_ext/1907747181/libaria_widget_groupbox.o
 .data          0x00000000        0x0 build/pic32mz_ef_sk_meb2/debug/_ext/1907747181/libaria_widget_groupbox.o
 .bss           0x00000000        0x0 build/pic32mz_ef_sk_meb2/debug/_ext/1907747181/libaria_widget_groupbox.o
 .reginfo       0x00000000       0x18 build/pic32mz_ef_sk_meb2/debug/_ext/1907747181/libaria_widget_groupbox.o
 .text._laGroupBoxWidget_Destructor
                0x00000000       0x30 build/pic32mz_ef_sk_meb2/debug/_ext/1907747181/libaria_widget_groupbox.o
 .text._laGroupBoxWidget_Constructor
                0x00000000       0x60 build/pic32mz_ef_sk_meb2/debug/_ext/1907747181/libaria_widget_groupbox.o
 .text.laGroupBoxWidget_New
                0x00000000       0x50 build/pic32mz_ef_sk_meb2/debug/_ext/1907747181/libaria_widget_groupbox.o
 .text.laGroupBoxWidget_GetAlignment
                0x00000000       0x18 build/pic32mz_ef_sk_meb2/debug/_ext/1907747181/libaria_widget_groupbox.o
 .text.laGroupBoxWidget_SetAlignment
                0x00000000       0x48 build/pic32mz_ef_sk_meb2/debug/_ext/1907747181/libaria_widget_groupbox.o
 .text.laGroupBoxWidget_GetText
                0x00000000       0x2c build/pic32mz_ef_sk_meb2/debug/_ext/1907747181/libaria_widget_groupbox.o
 .text.laGroupBoxWidget_SetText
                0x00000000       0x64 build/pic32mz_ef_sk_meb2/debug/_ext/1907747181/libaria_widget_groupbox.o
 .text          0x00000000        0x0 build/pic32mz_ef_sk_meb2/debug/_ext/1907747181/libaria_widget_groupbox_skin_classic.o
 .data          0x00000000        0x0 build/pic32mz_ef_sk_meb2/debug/_ext/1907747181/libaria_widget_groupbox_skin_classic.o
 .bss           0x00000000        0x0 build/pic32mz_ef_sk_meb2/debug/_ext/1907747181/libaria_widget_groupbox_skin_classic.o
 .reginfo       0x00000000       0x18 build/pic32mz_ef_sk_meb2/debug/_ext/1907747181/libaria_widget_groupbox_skin_classic.o
 .text.drawBackground
                0x00000000       0xc8 build/pic32mz_ef_sk_meb2/debug/_ext/1907747181/libaria_widget_groupbox_skin_classic.o
 .text.waitString
                0x00000000       0xa8 build/pic32mz_ef_sk_meb2/debug/_ext/1907747181/libaria_widget_groupbox_skin_classic.o
 .text.drawOutline
                0x00000000      0x330 build/pic32mz_ef_sk_meb2/debug/_ext/1907747181/libaria_widget_groupbox_skin_classic.o
 .text.drawBorder
                0x00000000       0xd0 build/pic32mz_ef_sk_meb2/debug/_ext/1907747181/libaria_widget_groupbox_skin_classic.o
 .text.drawString
                0x00000000      0x174 build/pic32mz_ef_sk_meb2/debug/_ext/1907747181/libaria_widget_groupbox_skin_classic.o
 .text._laGroupBoxWidget_Paint
                0x00000000       0x4c build/pic32mz_ef_sk_meb2/debug/_ext/1907747181/libaria_widget_groupbox_skin_classic.o
 .rodata        0x00000000       0x10 build/pic32mz_ef_sk_meb2/debug/_ext/1907747181/libaria_widget_groupbox_skin_classic.o
 .text          0x00000000        0x0 build/pic32mz_ef_sk_meb2/debug/_ext/1907747181/libaria_widget_image.o
 .data          0x00000000        0x0 build/pic32mz_ef_sk_meb2/debug/_ext/1907747181/libaria_widget_image.o
 .bss           0x00000000        0x0 build/pic32mz_ef_sk_meb2/debug/_ext/1907747181/libaria_widget_image.o
 .reginfo       0x00000000       0x18 build/pic32mz_ef_sk_meb2/debug/_ext/1907747181/libaria_widget_image.o
 .text.laImageWidget_GetHAlignment
                0x00000000       0x18 build/pic32mz_ef_sk_meb2/debug/_ext/1907747181/libaria_widget_image.o
 .text.laImageWidget_SetHAlignment
                0x00000000       0x34 build/pic32mz_ef_sk_meb2/debug/_ext/1907747181/libaria_widget_image.o
 .text.laImageWidget_GetVAlignment
                0x00000000       0x18 build/pic32mz_ef_sk_meb2/debug/_ext/1907747181/libaria_widget_image.o
 .text.laImageWidget_SetVAlignment
                0x00000000       0x34 build/pic32mz_ef_sk_meb2/debug/_ext/1907747181/libaria_widget_image.o
 .text.laImageWidget_GetImage
                0x00000000       0x18 build/pic32mz_ef_sk_meb2/debug/_ext/1907747181/libaria_widget_image.o
 .text          0x00000000        0x0 build/pic32mz_ef_sk_meb2/debug/_ext/1907747181/libaria_widget_image_skin_classic.o
 .data          0x00000000        0x0 build/pic32mz_ef_sk_meb2/debug/_ext/1907747181/libaria_widget_image_skin_classic.o
 .bss           0x00000000        0x0 build/pic32mz_ef_sk_meb2/debug/_ext/1907747181/libaria_widget_image_skin_classic.o
 .reginfo       0x00000000       0x18 build/pic32mz_ef_sk_meb2/debug/_ext/1907747181/libaria_widget_image_skin_classic.o
 .text          0x00000000        0x0 build/pic32mz_ef_sk_meb2/debug/_ext/1907747181/libaria_widget_imagesequence.o
 .data          0x00000000        0x0 build/pic32mz_ef_sk_meb2/debug/_ext/1907747181/libaria_widget_imagesequence.o
 .bss           0x00000000        0x0 build/pic32mz_ef_sk_meb2/debug/_ext/1907747181/libaria_widget_imagesequence.o
 .reginfo       0x00000000       0x18 build/pic32mz_ef_sk_meb2/debug/_ext/1907747181/libaria_widget_imagesequence.o
 .text._laImageSequenceWidget_Destructor
                0x00000000       0x48 build/pic32mz_ef_sk_meb2/debug/_ext/1907747181/libaria_widget_imagesequence.o
 .text._laImageSequenceWidget_Update
                0x00000000       0xe8 build/pic32mz_ef_sk_meb2/debug/_ext/1907747181/libaria_widget_imagesequence.o
 .text._laImageSequenceWidget_Constructor
                0x00000000       0x80 build/pic32mz_ef_sk_meb2/debug/_ext/1907747181/libaria_widget_imagesequence.o
 .text.laImageSequenceWidget_New
                0x00000000       0x44 build/pic32mz_ef_sk_meb2/debug/_ext/1907747181/libaria_widget_imagesequence.o
 .text.laImageSequenceWidget_GetImageCount
                0x00000000       0x18 build/pic32mz_ef_sk_meb2/debug/_ext/1907747181/libaria_widget_imagesequence.o
 .text.laImageSequenceWidget_SetImageCount
                0x00000000       0xc4 build/pic32mz_ef_sk_meb2/debug/_ext/1907747181/libaria_widget_imagesequence.o
 .text.laImageSequenceWidget_GetImage
                0x00000000       0x34 build/pic32mz_ef_sk_meb2/debug/_ext/1907747181/libaria_widget_imagesequence.o
 .text.laImageSequenceWidget_SetImage
                0x00000000       0x80 build/pic32mz_ef_sk_meb2/debug/_ext/1907747181/libaria_widget_imagesequence.o
 .text.laImageSequenceWidget_GetImageDelay
                0x00000000       0x30 build/pic32mz_ef_sk_meb2/debug/_ext/1907747181/libaria_widget_imagesequence.o
 .text.laImageSequenceWidget_SetImageDelay
                0x00000000       0x3c build/pic32mz_ef_sk_meb2/debug/_ext/1907747181/libaria_widget_imagesequence.o
 .text.laImageSequenceWidget_GetImageHAlignment
                0x00000000       0x30 build/pic32mz_ef_sk_meb2/debug/_ext/1907747181/libaria_widget_imagesequence.o
 .text.laImageSequenceWidget_SetImageHAlignment
                0x00000000       0x80 build/pic32mz_ef_sk_meb2/debug/_ext/1907747181/libaria_widget_imagesequence.o
 .text.laImageSequenceWidget_GetImageVAlignment
                0x00000000       0x30 build/pic32mz_ef_sk_meb2/debug/_ext/1907747181/libaria_widget_imagesequence.o
 .text.laImageSequenceWidget_SetImageVAlignment
                0x00000000       0x80 build/pic32mz_ef_sk_meb2/debug/_ext/1907747181/libaria_widget_imagesequence.o
 .text.laImageSequenceWidget_Stop
                0x00000000       0x1c build/pic32mz_ef_sk_meb2/debug/_ext/1907747181/libaria_widget_imagesequence.o
 .text.laImageSequenceWidget_Play
                0x00000000       0x20 build/pic32mz_ef_sk_meb2/debug/_ext/1907747181/libaria_widget_imagesequence.o
 .text.laImageSequenceWidget_Rewind
                0x00000000       0x24 build/pic32mz_ef_sk_meb2/debug/_ext/1907747181/libaria_widget_imagesequence.o
 .text.laImageSequenceWidget_IsPlaying
                0x00000000       0x18 build/pic32mz_ef_sk_meb2/debug/_ext/1907747181/libaria_widget_imagesequence.o
 .text.laImageSequenceWidget_GetRepeat
                0x00000000       0x18 build/pic32mz_ef_sk_meb2/debug/_ext/1907747181/libaria_widget_imagesequence.o
 .text.laImageSequenceWidget_SetRepeat
                0x00000000       0x1c build/pic32mz_ef_sk_meb2/debug/_ext/1907747181/libaria_widget_imagesequence.o
 .text.laImageSequenceWidget_ShowImage
                0x00000000       0x68 build/pic32mz_ef_sk_meb2/debug/_ext/1907747181/libaria_widget_imagesequence.o
 .text.laImageSequenceWidget_ShowNextImage
                0x00000000       0x5c build/pic32mz_ef_sk_meb2/debug/_ext/1907747181/libaria_widget_imagesequence.o
 .text.laImageSequenceWidget_ShowPreviousImage
                0x00000000       0x58 build/pic32mz_ef_sk_meb2/debug/_ext/1907747181/libaria_widget_imagesequence.o
 .text.laImageSequenceWidget_GetImageChangedEventCallback
                0x00000000       0x18 build/pic32mz_ef_sk_meb2/debug/_ext/1907747181/libaria_widget_imagesequence.o
 .text.laImageSequenceWidget_SetImageChangedEventCallback
                0x00000000       0x1c build/pic32mz_ef_sk_meb2/debug/_ext/1907747181/libaria_widget_imagesequence.o
 .text          0x00000000        0x0 build/pic32mz_ef_sk_meb2/debug/_ext/1907747181/libaria_widget_imagesequence_skin_classic.o
 .data          0x00000000        0x0 build/pic32mz_ef_sk_meb2/debug/_ext/1907747181/libaria_widget_imagesequence_skin_classic.o
 .bss           0x00000000        0x0 build/pic32mz_ef_sk_meb2/debug/_ext/1907747181/libaria_widget_imagesequence_skin_classic.o
 .reginfo       0x00000000       0x18 build/pic32mz_ef_sk_meb2/debug/_ext/1907747181/libaria_widget_imagesequence_skin_classic.o
 .text.drawBackground
                0x00000000      0x12c build/pic32mz_ef_sk_meb2/debug/_ext/1907747181/libaria_widget_imagesequence_skin_classic.o
 .text.waitImage
                0x00000000       0xa8 build/pic32mz_ef_sk_meb2/debug/_ext/1907747181/libaria_widget_imagesequence_skin_classic.o
 .text.drawBorder
                0x00000000       0xd0 build/pic32mz_ef_sk_meb2/debug/_ext/1907747181/libaria_widget_imagesequence_skin_classic.o
 .text.drawImage
                0x00000000      0x1d8 build/pic32mz_ef_sk_meb2/debug/_ext/1907747181/libaria_widget_imagesequence_skin_classic.o
 .text._laImageSequenceWidget_Paint
                0x00000000       0x4c build/pic32mz_ef_sk_meb2/debug/_ext/1907747181/libaria_widget_imagesequence_skin_classic.o
 .rodata        0x00000000       0x10 build/pic32mz_ef_sk_meb2/debug/_ext/1907747181/libaria_widget_imagesequence_skin_classic.o
 .text          0x00000000        0x0 build/pic32mz_ef_sk_meb2/debug/_ext/1907747181/libaria_widget_keypad.o
 .data          0x00000000        0x0 build/pic32mz_ef_sk_meb2/debug/_ext/1907747181/libaria_widget_keypad.o
 .bss           0x00000000        0x0 build/pic32mz_ef_sk_meb2/debug/_ext/1907747181/libaria_widget_keypad.o
 .reginfo       0x00000000       0x18 build/pic32mz_ef_sk_meb2/debug/_ext/1907747181/libaria_widget_keypad.o
 .text._buttonClicked
                0x00000000      0x12c build/pic32mz_ef_sk_meb2/debug/_ext/1907747181/libaria_widget_keypad.o
 .text._getButton
                0x00000000       0x60 build/pic32mz_ef_sk_meb2/debug/_ext/1907747181/libaria_widget_keypad.o
 .text._resizeCells
                0x00000000      0x154 build/pic32mz_ef_sk_meb2/debug/_ext/1907747181/libaria_widget_keypad.o
 .text._resized
                0x00000000       0x1c build/pic32mz_ef_sk_meb2/debug/_ext/1907747181/libaria_widget_keypad.o
 .text._laKeyPadWidget_Destructor
                0x00000000       0xa0 build/pic32mz_ef_sk_meb2/debug/_ext/1907747181/libaria_widget_keypad.o
 .text._laKeyPadWidget_Constructor
                0x00000000      0x110 build/pic32mz_ef_sk_meb2/debug/_ext/1907747181/libaria_widget_keypad.o
 .text.laKeyPadWidget_New
                0x00000000       0x70 build/pic32mz_ef_sk_meb2/debug/_ext/1907747181/libaria_widget_keypad.o
 .text.laKeyPadWidget_GetKeyClickEventCallback
                0x00000000       0x18 build/pic32mz_ef_sk_meb2/debug/_ext/1907747181/libaria_widget_keypad.o
 .text.laKeyPadWidget_SetKeyClickEventCallback
                0x00000000       0x10 build/pic32mz_ef_sk_meb2/debug/_ext/1907747181/libaria_widget_keypad.o
 .text.laKeyPadWidget_GetKeyEnabled
                0x00000000       0x5c build/pic32mz_ef_sk_meb2/debug/_ext/1907747181/libaria_widget_keypad.o
 .text.laKeyPadWidget_SetKeyEnabled
                0x00000000       0x5c build/pic32mz_ef_sk_meb2/debug/_ext/1907747181/libaria_widget_keypad.o
 .text.laKeyPadWidget_GetKeyText
                0x00000000       0x5c build/pic32mz_ef_sk_meb2/debug/_ext/1907747181/libaria_widget_keypad.o
 .text.laKeyPadWidget_SetKeyText
                0x00000000       0x68 build/pic32mz_ef_sk_meb2/debug/_ext/1907747181/libaria_widget_keypad.o
 .text.laKeyPadWidget_GetKeyPressedImage
                0x00000000       0x60 build/pic32mz_ef_sk_meb2/debug/_ext/1907747181/libaria_widget_keypad.o
 .text.laKeyPadWidget_SetKeyPressedImage
                0x00000000       0x5c build/pic32mz_ef_sk_meb2/debug/_ext/1907747181/libaria_widget_keypad.o
 .text.laKeyPadWidget_GetKeyReleasedImage
                0x00000000       0x60 build/pic32mz_ef_sk_meb2/debug/_ext/1907747181/libaria_widget_keypad.o
 .text.laKeyPadWidget_SetKeyReleasedImage
                0x00000000       0x5c build/pic32mz_ef_sk_meb2/debug/_ext/1907747181/libaria_widget_keypad.o
 .text.laKeyPadWidget_GetKeyImagePosition
                0x00000000       0x5c build/pic32mz_ef_sk_meb2/debug/_ext/1907747181/libaria_widget_keypad.o
 .text.laKeyPadWidget_SetKeyImagePosition
                0x00000000       0x5c build/pic32mz_ef_sk_meb2/debug/_ext/1907747181/libaria_widget_keypad.o
 .text.laKeyPadWidget_GetKeyImageMargin
                0x00000000       0x5c build/pic32mz_ef_sk_meb2/debug/_ext/1907747181/libaria_widget_keypad.o
 .text.laKeyPadWidget_SetKeyImageMargin
                0x00000000       0x5c build/pic32mz_ef_sk_meb2/debug/_ext/1907747181/libaria_widget_keypad.o
 .text.laKeyPadWidget_GetKeyDrawBackground
                0x00000000       0x5c build/pic32mz_ef_sk_meb2/debug/_ext/1907747181/libaria_widget_keypad.o
 .text.laKeyPadWidget_SetKeyDrawBackground
                0x00000000       0x5c build/pic32mz_ef_sk_meb2/debug/_ext/1907747181/libaria_widget_keypad.o
 .text.laKeyPadWidget_GetKeyAction
                0x00000000       0x44 build/pic32mz_ef_sk_meb2/debug/_ext/1907747181/libaria_widget_keypad.o
 .text.laKeyPadWidget_SetKeyAction
                0x00000000       0x4c build/pic32mz_ef_sk_meb2/debug/_ext/1907747181/libaria_widget_keypad.o
 .text.laKeyPadWidget_GetKeyValue
                0x00000000       0x60 build/pic32mz_ef_sk_meb2/debug/_ext/1907747181/libaria_widget_keypad.o
 .text.laKeyPadWidget_SetKeyValue
                0x00000000       0xa8 build/pic32mz_ef_sk_meb2/debug/_ext/1907747181/libaria_widget_keypad.o
 .text          0x00000000        0x0 build/pic32mz_ef_sk_meb2/debug/_ext/1907747181/libaria_widget_keypad_skin_classic.o
 .data          0x00000000        0x0 build/pic32mz_ef_sk_meb2/debug/_ext/1907747181/libaria_widget_keypad_skin_classic.o
 .bss           0x00000000        0x0 build/pic32mz_ef_sk_meb2/debug/_ext/1907747181/libaria_widget_keypad_skin_classic.o
 .reginfo       0x00000000       0x18 build/pic32mz_ef_sk_meb2/debug/_ext/1907747181/libaria_widget_keypad_skin_classic.o
 .text.drawBorder
                0x00000000       0xb4 build/pic32mz_ef_sk_meb2/debug/_ext/1907747181/libaria_widget_keypad_skin_classic.o
 .text.drawBackground
                0x00000000       0xe8 build/pic32mz_ef_sk_meb2/debug/_ext/1907747181/libaria_widget_keypad_skin_classic.o
 .text._laKeyPadWidget_Paint
                0x00000000       0xd8 build/pic32mz_ef_sk_meb2/debug/_ext/1907747181/libaria_widget_keypad_skin_classic.o
 .text          0x00000000        0x0 build/pic32mz_ef_sk_meb2/debug/_ext/1907747181/libaria_widget_label.o
 .data          0x00000000        0x0 build/pic32mz_ef_sk_meb2/debug/_ext/1907747181/libaria_widget_label.o
 .bss           0x00000000        0x0 build/pic32mz_ef_sk_meb2/debug/_ext/1907747181/libaria_widget_label.o
 .reginfo       0x00000000       0x18 build/pic32mz_ef_sk_meb2/debug/_ext/1907747181/libaria_widget_label.o
 .text.laLabelWidget_GetHAlignment
                0x00000000       0x18 build/pic32mz_ef_sk_meb2/debug/_ext/1907747181/libaria_widget_label.o
 .text.laLabelWidget_SetHAlignment
                0x00000000       0x34 build/pic32mz_ef_sk_meb2/debug/_ext/1907747181/libaria_widget_label.o
 .text.laLabelWidget_GetVAlignment
                0x00000000       0x18 build/pic32mz_ef_sk_meb2/debug/_ext/1907747181/libaria_widget_label.o
 .text.laLabelWidget_SetVAlignment
                0x00000000       0x34 build/pic32mz_ef_sk_meb2/debug/_ext/1907747181/libaria_widget_label.o
 .text.laLabelWidget_GetText
                0x00000000       0x2c build/pic32mz_ef_sk_meb2/debug/_ext/1907747181/libaria_widget_label.o
 .text          0x00000000        0x0 build/pic32mz_ef_sk_meb2/debug/_ext/1907747181/libaria_widget_label_skin_classic.o
 .data          0x00000000        0x0 build/pic32mz_ef_sk_meb2/debug/_ext/1907747181/libaria_widget_label_skin_classic.o
 .bss           0x00000000        0x0 build/pic32mz_ef_sk_meb2/debug/_ext/1907747181/libaria_widget_label_skin_classic.o
 .reginfo       0x00000000       0x18 build/pic32mz_ef_sk_meb2/debug/_ext/1907747181/libaria_widget_label_skin_classic.o
 .text          0x00000000        0x0 build/pic32mz_ef_sk_meb2/debug/_ext/1907747181/libaria_widget_line.o
 .data          0x00000000        0x0 build/pic32mz_ef_sk_meb2/debug/_ext/1907747181/libaria_widget_line.o
 .bss           0x00000000        0x0 build/pic32mz_ef_sk_meb2/debug/_ext/1907747181/libaria_widget_line.o
 .reginfo       0x00000000       0x18 build/pic32mz_ef_sk_meb2/debug/_ext/1907747181/libaria_widget_line.o
 .text._laLineWidget_Destructor
                0x00000000       0x1c build/pic32mz_ef_sk_meb2/debug/_ext/1907747181/libaria_widget_line.o
 .text._laLineWidget_Constructor
                0x00000000       0x6c build/pic32mz_ef_sk_meb2/debug/_ext/1907747181/libaria_widget_line.o
 .text.laLineWidget_New
                0x00000000       0x58 build/pic32mz_ef_sk_meb2/debug/_ext/1907747181/libaria_widget_line.o
 .text.laLineWidget_GetStartPoint
                0x00000000       0x48 build/pic32mz_ef_sk_meb2/debug/_ext/1907747181/libaria_widget_line.o
 .text.laLineWidget_SetStartPoint
                0x00000000       0x48 build/pic32mz_ef_sk_meb2/debug/_ext/1907747181/libaria_widget_line.o
 .text.laLineWidget_GetEndPoint
                0x00000000       0x48 build/pic32mz_ef_sk_meb2/debug/_ext/1907747181/libaria_widget_line.o
 .text.laLineWidget_SetEndPoint
                0x00000000       0x48 build/pic32mz_ef_sk_meb2/debug/_ext/1907747181/libaria_widget_line.o
 .text          0x00000000        0x0 build/pic32mz_ef_sk_meb2/debug/_ext/1907747181/libaria_widget_line_skin_classic.o
 .data          0x00000000        0x0 build/pic32mz_ef_sk_meb2/debug/_ext/1907747181/libaria_widget_line_skin_classic.o
 .bss           0x00000000        0x0 build/pic32mz_ef_sk_meb2/debug/_ext/1907747181/libaria_widget_line_skin_classic.o
 .reginfo       0x00000000       0x18 build/pic32mz_ef_sk_meb2/debug/_ext/1907747181/libaria_widget_line_skin_classic.o
 .text.drawLine
                0x00000000       0xc8 build/pic32mz_ef_sk_meb2/debug/_ext/1907747181/libaria_widget_line_skin_classic.o
 .text.drawBorder
                0x00000000       0xd0 build/pic32mz_ef_sk_meb2/debug/_ext/1907747181/libaria_widget_line_skin_classic.o
 .text.drawBackground
                0x00000000       0xc8 build/pic32mz_ef_sk_meb2/debug/_ext/1907747181/libaria_widget_line_skin_classic.o
 .text._laLineWidget_Paint
                0x00000000       0x68 build/pic32mz_ef_sk_meb2/debug/_ext/1907747181/libaria_widget_line_skin_classic.o
 .text          0x00000000        0x0 build/pic32mz_ef_sk_meb2/debug/_ext/1907747181/libaria_widget_list.o
 .data          0x00000000        0x0 build/pic32mz_ef_sk_meb2/debug/_ext/1907747181/libaria_widget_list.o
 .bss           0x00000000        0x0 build/pic32mz_ef_sk_meb2/debug/_ext/1907747181/libaria_widget_list.o
 .reginfo       0x00000000       0x18 build/pic32mz_ef_sk_meb2/debug/_ext/1907747181/libaria_widget_list.o
 .text.resized  0x00000000       0x54 build/pic32mz_ef_sk_meb2/debug/_ext/1907747181/libaria_widget_list.o
 .text.scrollBarMoved
                0x00000000       0x1c build/pic32mz_ef_sk_meb2/debug/_ext/1907747181/libaria_widget_list.o
 .text._laListWidget_GetRowRect
                0x00000000       0x84 build/pic32mz_ef_sk_meb2/debug/_ext/1907747181/libaria_widget_list.o
 .text.getRowAtPoint
                0x00000000       0xc4 build/pic32mz_ef_sk_meb2/debug/_ext/1907747181/libaria_widget_list.o
 .text.touchMoved
                0x00000000       0x88 build/pic32mz_ef_sk_meb2/debug/_ext/1907747181/libaria_widget_list.o
 .text.touchDown
                0x00000000       0x88 build/pic32mz_ef_sk_meb2/debug/_ext/1907747181/libaria_widget_list.o
 .text._laListWidget_GetRowY
                0x00000000       0x78 build/pic32mz_ef_sk_meb2/debug/_ext/1907747181/libaria_widget_list.o
 .text._laListWidget_GetLogicalRect
                0x00000000       0x88 build/pic32mz_ef_sk_meb2/debug/_ext/1907747181/libaria_widget_list.o
 .text.recalculateScrollBarValues
                0x00000000       0x80 build/pic32mz_ef_sk_meb2/debug/_ext/1907747181/libaria_widget_list.o
 .text._laListWidget_Constructor
                0x00000000      0x118 build/pic32mz_ef_sk_meb2/debug/_ext/1907747181/libaria_widget_list.o
 .text.laListWidget_New
                0x00000000       0x50 build/pic32mz_ef_sk_meb2/debug/_ext/1907747181/libaria_widget_list.o
 .text.laListWidget_GetSelectionMode
                0x00000000       0x18 build/pic32mz_ef_sk_meb2/debug/_ext/1907747181/libaria_widget_list.o
 .text.laListWidget_GetAllowEmptySelection
                0x00000000       0x18 build/pic32mz_ef_sk_meb2/debug/_ext/1907747181/libaria_widget_list.o
 .text.laListWidget_GetAlignment
                0x00000000       0x18 build/pic32mz_ef_sk_meb2/debug/_ext/1907747181/libaria_widget_list.o
 .text.laListWidget_SetAlignment
                0x00000000       0x44 build/pic32mz_ef_sk_meb2/debug/_ext/1907747181/libaria_widget_list.o
 .text.laListWidget_GetIconPosition
                0x00000000       0x18 build/pic32mz_ef_sk_meb2/debug/_ext/1907747181/libaria_widget_list.o
 .text.laListWidget_SetIconPosition
                0x00000000       0x50 build/pic32mz_ef_sk_meb2/debug/_ext/1907747181/libaria_widget_list.o
 .text.laListWidget_GetIconMargin
                0x00000000       0x18 build/pic32mz_ef_sk_meb2/debug/_ext/1907747181/libaria_widget_list.o
 .text.laListWidget_SetIconMargin
                0x00000000       0x44 build/pic32mz_ef_sk_meb2/debug/_ext/1907747181/libaria_widget_list.o
 .text.laListWidget_GetItemCount
                0x00000000       0x18 build/pic32mz_ef_sk_meb2/debug/_ext/1907747181/libaria_widget_list.o
 .text.laListWidget_RemoveItem
                0x00000000       0xa8 build/pic32mz_ef_sk_meb2/debug/_ext/1907747181/libaria_widget_list.o
 .text.laListWidget_RemoveAllItems
                0x00000000       0x9c build/pic32mz_ef_sk_meb2/debug/_ext/1907747181/libaria_widget_list.o
 .text._laListWidget_Destructor
                0x00000000       0x50 build/pic32mz_ef_sk_meb2/debug/_ext/1907747181/libaria_widget_list.o
 .text.laListWidget_GetItemSelected
                0x00000000       0x3c build/pic32mz_ef_sk_meb2/debug/_ext/1907747181/libaria_widget_list.o
 .text.laListWidget_DeselectAll
                0x00000000       0xb4 build/pic32mz_ef_sk_meb2/debug/_ext/1907747181/libaria_widget_list.o
 .text.laListWidget_SetSelectionMode
                0x00000000       0x44 build/pic32mz_ef_sk_meb2/debug/_ext/1907747181/libaria_widget_list.o
 .text.laListWidget_GetFirstSelectedItem
                0x00000000       0x84 build/pic32mz_ef_sk_meb2/debug/_ext/1907747181/libaria_widget_list.o
 .text.laListWidget_GetLastSelectedItem
                0x00000000       0x94 build/pic32mz_ef_sk_meb2/debug/_ext/1907747181/libaria_widget_list.o
 .text.laListWidget_GetSelectionCount
                0x00000000       0x98 build/pic32mz_ef_sk_meb2/debug/_ext/1907747181/libaria_widget_list.o
 .text.laListWidget_SetItemSelected
                0x00000000      0x2e0 build/pic32mz_ef_sk_meb2/debug/_ext/1907747181/libaria_widget_list.o
 .text.laListWidget_ToggleItemSelected
                0x00000000       0x64 build/pic32mz_ef_sk_meb2/debug/_ext/1907747181/libaria_widget_list.o
 .text.touchUp  0x00000000       0x70 build/pic32mz_ef_sk_meb2/debug/_ext/1907747181/libaria_widget_list.o
 .text.laListWidget_SelectAll
                0x00000000       0xdc build/pic32mz_ef_sk_meb2/debug/_ext/1907747181/libaria_widget_list.o
 .text.laListWidget_SetAllowEmptySelection
                0x00000000       0x68 build/pic32mz_ef_sk_meb2/debug/_ext/1907747181/libaria_widget_list.o
 .text.laListWidget_AppendItem
                0x00000000       0xa4 build/pic32mz_ef_sk_meb2/debug/_ext/1907747181/libaria_widget_list.o
 .text.laListWidget_InsertItem
                0x00000000       0xa8 build/pic32mz_ef_sk_meb2/debug/_ext/1907747181/libaria_widget_list.o
 .text.laListWidget_GetItemText
                0x00000000       0x50 build/pic32mz_ef_sk_meb2/debug/_ext/1907747181/libaria_widget_list.o
 .text.laListWidget_SetItemText
                0x00000000       0x60 build/pic32mz_ef_sk_meb2/debug/_ext/1907747181/libaria_widget_list.o
 .text.laListWidget_GetItemIcon
                0x00000000       0x4c build/pic32mz_ef_sk_meb2/debug/_ext/1907747181/libaria_widget_list.o
 .text.laListWidget_SetItemIcon
                0x00000000       0x54 build/pic32mz_ef_sk_meb2/debug/_ext/1907747181/libaria_widget_list.o
 .text.laListWidget_SetItemVisible
                0x00000000       0x48 build/pic32mz_ef_sk_meb2/debug/_ext/1907747181/libaria_widget_list.o
 .text.laListWidget_GetSelectedItemChangedEventCallback
                0x00000000       0x18 build/pic32mz_ef_sk_meb2/debug/_ext/1907747181/libaria_widget_list.o
 .text.laListWidget_SetSelectedItemChangedEventCallback
                0x00000000       0x1c build/pic32mz_ef_sk_meb2/debug/_ext/1907747181/libaria_widget_list.o
 .text          0x00000000        0x0 build/pic32mz_ef_sk_meb2/debug/_ext/1907747181/libaria_widget_list_skin_classic.o
 .data          0x00000000        0x0 build/pic32mz_ef_sk_meb2/debug/_ext/1907747181/libaria_widget_list_skin_classic.o
 .bss           0x00000000        0x0 build/pic32mz_ef_sk_meb2/debug/_ext/1907747181/libaria_widget_list_skin_classic.o
 .reginfo       0x00000000       0x18 build/pic32mz_ef_sk_meb2/debug/_ext/1907747181/libaria_widget_list_skin_classic.o
 .text.nextItem
                0x00000000       0x70 build/pic32mz_ef_sk_meb2/debug/_ext/1907747181/libaria_widget_list_skin_classic.o
 .text.drawBorder
                0x00000000       0xd8 build/pic32mz_ef_sk_meb2/debug/_ext/1907747181/libaria_widget_list_skin_classic.o
 .text.drawString
                0x00000000      0x334 build/pic32mz_ef_sk_meb2/debug/_ext/1907747181/libaria_widget_list_skin_classic.o
 .text.waitIcon
                0x00000000       0x8c build/pic32mz_ef_sk_meb2/debug/_ext/1907747181/libaria_widget_list_skin_classic.o
 .text.waitString
                0x00000000       0xb0 build/pic32mz_ef_sk_meb2/debug/_ext/1907747181/libaria_widget_list_skin_classic.o
 .text.drawBackground
                0x00000000      0x118 build/pic32mz_ef_sk_meb2/debug/_ext/1907747181/libaria_widget_list_skin_classic.o
 .text.drawIcon
                0x00000000      0x218 build/pic32mz_ef_sk_meb2/debug/_ext/1907747181/libaria_widget_list_skin_classic.o
 .text._laListWidget_Paint
                0x00000000       0xb8 build/pic32mz_ef_sk_meb2/debug/_ext/1907747181/libaria_widget_list_skin_classic.o
 .text          0x00000000        0x0 build/pic32mz_ef_sk_meb2/debug/_ext/1907747181/libaria_widget_listwheel.o
 .data          0x00000000        0x0 build/pic32mz_ef_sk_meb2/debug/_ext/1907747181/libaria_widget_listwheel.o
 .bss           0x00000000        0x0 build/pic32mz_ef_sk_meb2/debug/_ext/1907747181/libaria_widget_listwheel.o
 .reginfo       0x00000000       0x18 build/pic32mz_ef_sk_meb2/debug/_ext/1907747181/libaria_widget_listwheel.o
 .text.touchDown
                0x00000000       0x14 build/pic32mz_ef_sk_meb2/debug/_ext/1907747181/libaria_widget_listwheel.o
 .text.touchUp  0x00000000        0xc build/pic32mz_ef_sk_meb2/debug/_ext/1907747181/libaria_widget_listwheel.o
 .text._laListWheelWidget_Constructor
                0x00000000       0xa8 build/pic32mz_ef_sk_meb2/debug/_ext/1907747181/libaria_widget_listwheel.o
 .text.laListWheelWidget_New
                0x00000000       0x50 build/pic32mz_ef_sk_meb2/debug/_ext/1907747181/libaria_widget_listwheel.o
 .text.laListWheelWidget_GetAlignment
                0x00000000       0x18 build/pic32mz_ef_sk_meb2/debug/_ext/1907747181/libaria_widget_listwheel.o
 .text.laListWheelWidget_SetAlignment
                0x00000000       0x44 build/pic32mz_ef_sk_meb2/debug/_ext/1907747181/libaria_widget_listwheel.o
 .text.laListWheelWidget_GetIconPosition
                0x00000000       0x18 build/pic32mz_ef_sk_meb2/debug/_ext/1907747181/libaria_widget_listwheel.o
 .text.laListWheelWidget_SetIconPosition
                0x00000000       0x50 build/pic32mz_ef_sk_meb2/debug/_ext/1907747181/libaria_widget_listwheel.o
 .text.laListWheelWidget_GetIconMargin
                0x00000000       0x18 build/pic32mz_ef_sk_meb2/debug/_ext/1907747181/libaria_widget_listwheel.o
 .text.laListWheelWidget_SetIconMargin
                0x00000000       0x44 build/pic32mz_ef_sk_meb2/debug/_ext/1907747181/libaria_widget_listwheel.o
 .text.laListWheelWidget_GetItemCount
                0x00000000       0x18 build/pic32mz_ef_sk_meb2/debug/_ext/1907747181/libaria_widget_listwheel.o
 .text.laListWheelWidget_AppendItem
                0x00000000       0x7c build/pic32mz_ef_sk_meb2/debug/_ext/1907747181/libaria_widget_listwheel.o
 .text.laListWheelWidget_InsertItem
                0x00000000       0x88 build/pic32mz_ef_sk_meb2/debug/_ext/1907747181/libaria_widget_listwheel.o
 .text.laListWheelWidget_RemoveItem
                0x00000000       0xb8 build/pic32mz_ef_sk_meb2/debug/_ext/1907747181/libaria_widget_listwheel.o
 .text.laListWheelWidget_RemoveAllItems
                0x00000000       0x98 build/pic32mz_ef_sk_meb2/debug/_ext/1907747181/libaria_widget_listwheel.o
 .text._laListWheelWidget_Destructor
                0x00000000       0x50 build/pic32mz_ef_sk_meb2/debug/_ext/1907747181/libaria_widget_listwheel.o
 .text.laListWheelWidget_GetSelectedItem
                0x00000000       0x18 build/pic32mz_ef_sk_meb2/debug/_ext/1907747181/libaria_widget_listwheel.o
 .text.laListWheelWidget_SetSelectedItem
                0x00000000       0x6c build/pic32mz_ef_sk_meb2/debug/_ext/1907747181/libaria_widget_listwheel.o
 .text.laListWheelWidget_SelectPreviousItem
                0x00000000       0x78 build/pic32mz_ef_sk_meb2/debug/_ext/1907747181/libaria_widget_listwheel.o
 .text.laListWheelWidget_SelectNextItem
                0x00000000       0x84 build/pic32mz_ef_sk_meb2/debug/_ext/1907747181/libaria_widget_listwheel.o
 .text.touchMoved
                0x00000000       0xd0 build/pic32mz_ef_sk_meb2/debug/_ext/1907747181/libaria_widget_listwheel.o
 .text.laListWheelWidget_GetItemText
                0x00000000       0x50 build/pic32mz_ef_sk_meb2/debug/_ext/1907747181/libaria_widget_listwheel.o
 .text.laListWheelWidget_SetItemText
                0x00000000       0x58 build/pic32mz_ef_sk_meb2/debug/_ext/1907747181/libaria_widget_listwheel.o
 .text.laListWheelWidget_GetItemIcon
                0x00000000       0x4c build/pic32mz_ef_sk_meb2/debug/_ext/1907747181/libaria_widget_listwheel.o
 .text.laListWheelWidget_SetItemIcon
                0x00000000       0x54 build/pic32mz_ef_sk_meb2/debug/_ext/1907747181/libaria_widget_listwheel.o
 .text.laListWheelWidget_GetSelectedItemChangedEventCallback
                0x00000000       0x18 build/pic32mz_ef_sk_meb2/debug/_ext/1907747181/libaria_widget_listwheel.o
 .text.laListWheelWidget_SetSelectedItemChangedEventCallback
                0x00000000       0x1c build/pic32mz_ef_sk_meb2/debug/_ext/1907747181/libaria_widget_listwheel.o
 .text          0x00000000        0x0 build/pic32mz_ef_sk_meb2/debug/_ext/1907747181/libaria_widget_listwheel_skin_classic.o
 .data          0x00000000        0x0 build/pic32mz_ef_sk_meb2/debug/_ext/1907747181/libaria_widget_listwheel_skin_classic.o
 .bss           0x00000000        0x0 build/pic32mz_ef_sk_meb2/debug/_ext/1907747181/libaria_widget_listwheel_skin_classic.o
 .reginfo       0x00000000       0x18 build/pic32mz_ef_sk_meb2/debug/_ext/1907747181/libaria_widget_listwheel_skin_classic.o
 .text.nextItem
                0x00000000       0x78 build/pic32mz_ef_sk_meb2/debug/_ext/1907747181/libaria_widget_listwheel_skin_classic.o
 .text.drawBorder
                0x00000000       0xd0 build/pic32mz_ef_sk_meb2/debug/_ext/1907747181/libaria_widget_listwheel_skin_classic.o
 .text.drawString
                0x00000000      0x28c build/pic32mz_ef_sk_meb2/debug/_ext/1907747181/libaria_widget_listwheel_skin_classic.o
 .text.waitIcon
                0x00000000       0x8c build/pic32mz_ef_sk_meb2/debug/_ext/1907747181/libaria_widget_listwheel_skin_classic.o
 .text.waitString
                0x00000000       0xb0 build/pic32mz_ef_sk_meb2/debug/_ext/1907747181/libaria_widget_listwheel_skin_classic.o
 .text.drawIcon
                0x00000000      0x210 build/pic32mz_ef_sk_meb2/debug/_ext/1907747181/libaria_widget_listwheel_skin_classic.o
 .text.drawBackground
                0x00000000      0x1ec build/pic32mz_ef_sk_meb2/debug/_ext/1907747181/libaria_widget_listwheel_skin_classic.o
 .text._laListWheelWidget_Paint
                0x00000000       0xf4 build/pic32mz_ef_sk_meb2/debug/_ext/1907747181/libaria_widget_listwheel_skin_classic.o
 .text          0x00000000        0x0 build/pic32mz_ef_sk_meb2/debug/_ext/1907747181/libaria_widget_progressbar.o
 .data          0x00000000        0x0 build/pic32mz_ef_sk_meb2/debug/_ext/1907747181/libaria_widget_progressbar.o
 .bss           0x00000000        0x0 build/pic32mz_ef_sk_meb2/debug/_ext/1907747181/libaria_widget_progressbar.o
 .reginfo       0x00000000       0x18 build/pic32mz_ef_sk_meb2/debug/_ext/1907747181/libaria_widget_progressbar.o
 .text._laProgressBarWidget_Destructor
                0x00000000       0x1c build/pic32mz_ef_sk_meb2/debug/_ext/1907747181/libaria_widget_progressbar.o
 .text._laProgressBarWidget_Constructor
                0x00000000       0x64 build/pic32mz_ef_sk_meb2/debug/_ext/1907747181/libaria_widget_progressbar.o
 .text.laProgressBarWidget_New
                0x00000000       0x58 build/pic32mz_ef_sk_meb2/debug/_ext/1907747181/libaria_widget_progressbar.o
 .text.laProgressBarWidget_GetDirection
                0x00000000       0x18 build/pic32mz_ef_sk_meb2/debug/_ext/1907747181/libaria_widget_progressbar.o
 .text.laProgressBarWidget_SetDirection
                0x00000000       0x44 build/pic32mz_ef_sk_meb2/debug/_ext/1907747181/libaria_widget_progressbar.o
 .text.laProgressBarWidget_GetValue
                0x00000000       0x18 build/pic32mz_ef_sk_meb2/debug/_ext/1907747181/libaria_widget_progressbar.o
 .text.laProgressBarWidget_SetValue
                0x00000000       0x6c build/pic32mz_ef_sk_meb2/debug/_ext/1907747181/libaria_widget_progressbar.o
 .text.laProgressBarWidget_GetValueChangedEventCallback
                0x00000000       0x18 build/pic32mz_ef_sk_meb2/debug/_ext/1907747181/libaria_widget_progressbar.o
 .text.laProgressBarWidget_SetValueChangedCallback
                0x00000000       0x1c build/pic32mz_ef_sk_meb2/debug/_ext/1907747181/libaria_widget_progressbar.o
 .text          0x00000000        0x0 build/pic32mz_ef_sk_meb2/debug/_ext/1907747181/libaria_widget_progressbar_skin_classic.o
 .data          0x00000000        0x0 build/pic32mz_ef_sk_meb2/debug/_ext/1907747181/libaria_widget_progressbar_skin_classic.o
 .bss           0x00000000        0x0 build/pic32mz_ef_sk_meb2/debug/_ext/1907747181/libaria_widget_progressbar_skin_classic.o
 .reginfo       0x00000000       0x18 build/pic32mz_ef_sk_meb2/debug/_ext/1907747181/libaria_widget_progressbar_skin_classic.o
 .text.drawBorder
                0x00000000       0xd0 build/pic32mz_ef_sk_meb2/debug/_ext/1907747181/libaria_widget_progressbar_skin_classic.o
 .text.drawFill
                0x00000000      0x19c build/pic32mz_ef_sk_meb2/debug/_ext/1907747181/libaria_widget_progressbar_skin_classic.o
 .text.drawBackground
                0x00000000      0x108 build/pic32mz_ef_sk_meb2/debug/_ext/1907747181/libaria_widget_progressbar_skin_classic.o
 .text._laProgressBarWidget_Paint
                0x00000000       0x94 build/pic32mz_ef_sk_meb2/debug/_ext/1907747181/libaria_widget_progressbar_skin_classic.o
 .text          0x00000000        0x0 build/pic32mz_ef_sk_meb2/debug/_ext/1907747181/libaria_widget_radiobutton.o
 .data          0x00000000        0x0 build/pic32mz_ef_sk_meb2/debug/_ext/1907747181/libaria_widget_radiobutton.o
 .bss           0x00000000        0x0 build/pic32mz_ef_sk_meb2/debug/_ext/1907747181/libaria_widget_radiobutton.o
 .reginfo       0x00000000       0x18 build/pic32mz_ef_sk_meb2/debug/_ext/1907747181/libaria_widget_radiobutton.o
 .text._laRadioButtonWidget_TouchMovedEvent
                0x00000000        0xc build/pic32mz_ef_sk_meb2/debug/_ext/1907747181/libaria_widget_radiobutton.o
 .text._laRadioButtonWidget_Destructor
                0x00000000       0x68 build/pic32mz_ef_sk_meb2/debug/_ext/1907747181/libaria_widget_radiobutton.o
 .text._laRadioButtonWidget_TouchDownEvent
                0x00000000       0x84 build/pic32mz_ef_sk_meb2/debug/_ext/1907747181/libaria_widget_radiobutton.o
 .text._laRadioButtonWidget_TouchUpEvent
                0x00000000       0x74 build/pic32mz_ef_sk_meb2/debug/_ext/1907747181/libaria_widget_radiobutton.o
 .text._laRadioButtonWidget_Constructor
                0x00000000       0xac build/pic32mz_ef_sk_meb2/debug/_ext/1907747181/libaria_widget_radiobutton.o
 .text.laRadioButtonWidget_New
                0x00000000       0x58 build/pic32mz_ef_sk_meb2/debug/_ext/1907747181/libaria_widget_radiobutton.o
 .text.laRadioButtonWidget_GetGroup
                0x00000000       0x18 build/pic32mz_ef_sk_meb2/debug/_ext/1907747181/libaria_widget_radiobutton.o
 .text.laRadioButtonWidget_GetSelected
                0x00000000       0x34 build/pic32mz_ef_sk_meb2/debug/_ext/1907747181/libaria_widget_radiobutton.o
 .text.laRadioButtonWidget_SetSelected
                0x00000000       0x5c build/pic32mz_ef_sk_meb2/debug/_ext/1907747181/libaria_widget_radiobutton.o
 .text._laRadioButtonWidget_Select
                0x00000000       0x4c build/pic32mz_ef_sk_meb2/debug/_ext/1907747181/libaria_widget_radiobutton.o
 .text._laRadioButtonWidget_Deselect
                0x00000000       0x48 build/pic32mz_ef_sk_meb2/debug/_ext/1907747181/libaria_widget_radiobutton.o
 .text.laRadioButtonWidget_GetHAlignment
                0x00000000       0x18 build/pic32mz_ef_sk_meb2/debug/_ext/1907747181/libaria_widget_radiobutton.o
 .text.laRadioButtonWidget_SetHAlignment
                0x00000000       0x34 build/pic32mz_ef_sk_meb2/debug/_ext/1907747181/libaria_widget_radiobutton.o
 .text.laRadioButtonWidget_GetVAlignment
                0x00000000       0x18 build/pic32mz_ef_sk_meb2/debug/_ext/1907747181/libaria_widget_radiobutton.o
 .text.laRadioButtonWidget_SetVAlignment
                0x00000000       0x34 build/pic32mz_ef_sk_meb2/debug/_ext/1907747181/libaria_widget_radiobutton.o
 .text.laRadioButtonWidget_GetText
                0x00000000       0x2c build/pic32mz_ef_sk_meb2/debug/_ext/1907747181/libaria_widget_radiobutton.o
 .text.laRadioButtonWidget_SetText
                0x00000000       0x64 build/pic32mz_ef_sk_meb2/debug/_ext/1907747181/libaria_widget_radiobutton.o
 .text.laRadioButtonWidget_GetSelectedImage
                0x00000000       0x18 build/pic32mz_ef_sk_meb2/debug/_ext/1907747181/libaria_widget_radiobutton.o
 .text.laRadioButtonWidget_SetSelectedImage
                0x00000000       0x34 build/pic32mz_ef_sk_meb2/debug/_ext/1907747181/libaria_widget_radiobutton.o
 .text.laRadioButtonWidget_GetUnselectedImage
                0x00000000       0x18 build/pic32mz_ef_sk_meb2/debug/_ext/1907747181/libaria_widget_radiobutton.o
 .text.laRadioButtonWidget_SetUnselectedImage
                0x00000000       0x34 build/pic32mz_ef_sk_meb2/debug/_ext/1907747181/libaria_widget_radiobutton.o
 .text.laRadioButtonWidget_GetImagePosition
                0x00000000       0x18 build/pic32mz_ef_sk_meb2/debug/_ext/1907747181/libaria_widget_radiobutton.o
 .text.laRadioButtonWidget_SetImagePosition
                0x00000000       0x34 build/pic32mz_ef_sk_meb2/debug/_ext/1907747181/libaria_widget_radiobutton.o
 .text.laRadioButtonWidget_GetImageMargin
                0x00000000       0x18 build/pic32mz_ef_sk_meb2/debug/_ext/1907747181/libaria_widget_radiobutton.o
 .text.laRadioButtonWidget_SetImageMargin
                0x00000000       0x34 build/pic32mz_ef_sk_meb2/debug/_ext/1907747181/libaria_widget_radiobutton.o
 .text.laRadioButtonWidget_GetSelectedEventCallback
                0x00000000       0x18 build/pic32mz_ef_sk_meb2/debug/_ext/1907747181/libaria_widget_radiobutton.o
 .text.laRadioButtonWidget_SetSelectedEventCallback
                0x00000000       0x1c build/pic32mz_ef_sk_meb2/debug/_ext/1907747181/libaria_widget_radiobutton.o
 .text.laRadioButtonWidget_GetDeselectedEventCallback
                0x00000000       0x18 build/pic32mz_ef_sk_meb2/debug/_ext/1907747181/libaria_widget_radiobutton.o
 .text.laRadioButtonWidget_SetDeselectedEventCallback
                0x00000000       0x1c build/pic32mz_ef_sk_meb2/debug/_ext/1907747181/libaria_widget_radiobutton.o
 .text          0x00000000        0x0 build/pic32mz_ef_sk_meb2/debug/_ext/1907747181/libaria_widget_radiobutton_skin_classic.o
 .data          0x00000000        0x0 build/pic32mz_ef_sk_meb2/debug/_ext/1907747181/libaria_widget_radiobutton_skin_classic.o
 .bss           0x00000000        0x0 build/pic32mz_ef_sk_meb2/debug/_ext/1907747181/libaria_widget_radiobutton_skin_classic.o
 .reginfo       0x00000000       0x18 build/pic32mz_ef_sk_meb2/debug/_ext/1907747181/libaria_widget_radiobutton_skin_classic.o
 .text.drawBackground
                0x00000000       0xd4 build/pic32mz_ef_sk_meb2/debug/_ext/1907747181/libaria_widget_radiobutton_skin_classic.o
 .text.waitImage
                0x00000000       0xdc build/pic32mz_ef_sk_meb2/debug/_ext/1907747181/libaria_widget_radiobutton_skin_classic.o
 .text.waitString
                0x00000000       0xa8 build/pic32mz_ef_sk_meb2/debug/_ext/1907747181/libaria_widget_radiobutton_skin_classic.o
 .text.drawBorder
                0x00000000       0xd0 build/pic32mz_ef_sk_meb2/debug/_ext/1907747181/libaria_widget_radiobutton_skin_classic.o
 .text.drawString
                0x00000000      0x1ec build/pic32mz_ef_sk_meb2/debug/_ext/1907747181/libaria_widget_radiobutton_skin_classic.o
 .text.drawImage
                0x00000000      0x5f0 build/pic32mz_ef_sk_meb2/debug/_ext/1907747181/libaria_widget_radiobutton_skin_classic.o
 .text._laRadioButtonWidget_GetImageRect
                0x00000000      0x14c build/pic32mz_ef_sk_meb2/debug/_ext/1907747181/libaria_widget_radiobutton_skin_classic.o
 .text._laRadioButtonWidget_Paint
                0x00000000       0x4c build/pic32mz_ef_sk_meb2/debug/_ext/1907747181/libaria_widget_radiobutton_skin_classic.o
 .text          0x00000000        0x0 build/pic32mz_ef_sk_meb2/debug/_ext/1907747181/libaria_radiobutton_group.o
 .data          0x00000000        0x0 build/pic32mz_ef_sk_meb2/debug/_ext/1907747181/libaria_radiobutton_group.o
 .bss           0x00000000        0x0 build/pic32mz_ef_sk_meb2/debug/_ext/1907747181/libaria_radiobutton_group.o
 .reginfo       0x00000000       0x18 build/pic32mz_ef_sk_meb2/debug/_ext/1907747181/libaria_radiobutton_group.o
 .text.laRadioButtonGroup_Create
                0x00000000       0x8c build/pic32mz_ef_sk_meb2/debug/_ext/1907747181/libaria_radiobutton_group.o
 .text.laRadioButtonGroup_Destroy
                0x00000000       0x40 build/pic32mz_ef_sk_meb2/debug/_ext/1907747181/libaria_radiobutton_group.o
 .text.laRadioButtonGroup_AddButton
                0x00000000       0x88 build/pic32mz_ef_sk_meb2/debug/_ext/1907747181/libaria_radiobutton_group.o
 .text.laRadioButtonGroup_RemoveButton
                0x00000000       0x8c build/pic32mz_ef_sk_meb2/debug/_ext/1907747181/libaria_radiobutton_group.o
 .text.laRadioButtonGroup_SelectButton
                0x00000000       0x84 build/pic32mz_ef_sk_meb2/debug/_ext/1907747181/libaria_radiobutton_group.o
 .text          0x00000000        0x0 build/pic32mz_ef_sk_meb2/debug/_ext/1907747181/libaria_widget_rectangle.o
 .data          0x00000000        0x0 build/pic32mz_ef_sk_meb2/debug/_ext/1907747181/libaria_widget_rectangle.o
 .bss           0x00000000        0x0 build/pic32mz_ef_sk_meb2/debug/_ext/1907747181/libaria_widget_rectangle.o
 .reginfo       0x00000000       0x18 build/pic32mz_ef_sk_meb2/debug/_ext/1907747181/libaria_widget_rectangle.o
 .text.laRectangleWidget_GetThickness
                0x00000000       0x18 build/pic32mz_ef_sk_meb2/debug/_ext/1907747181/libaria_widget_rectangle.o
 .text.laRectangleWidget_SetThickness
                0x00000000       0x44 build/pic32mz_ef_sk_meb2/debug/_ext/1907747181/libaria_widget_rectangle.o
 .text          0x00000000        0x0 build/pic32mz_ef_sk_meb2/debug/_ext/1907747181/libaria_widget_rectangle_skin_classic.o
 .data          0x00000000        0x0 build/pic32mz_ef_sk_meb2/debug/_ext/1907747181/libaria_widget_rectangle_skin_classic.o
 .bss           0x00000000        0x0 build/pic32mz_ef_sk_meb2/debug/_ext/1907747181/libaria_widget_rectangle_skin_classic.o
 .reginfo       0x00000000       0x18 build/pic32mz_ef_sk_meb2/debug/_ext/1907747181/libaria_widget_rectangle_skin_classic.o
 .text          0x00000000        0x0 build/pic32mz_ef_sk_meb2/debug/_ext/1907747181/libaria_widget_scrollbar.o
 .data          0x00000000        0x0 build/pic32mz_ef_sk_meb2/debug/_ext/1907747181/libaria_widget_scrollbar.o
 .bss           0x00000000        0x0 build/pic32mz_ef_sk_meb2/debug/_ext/1907747181/libaria_widget_scrollbar.o
 .reginfo       0x00000000       0x18 build/pic32mz_ef_sk_meb2/debug/_ext/1907747181/libaria_widget_scrollbar.o
 .text._laScrollBarWidget_Update
                0x00000000        0x8 build/pic32mz_ef_sk_meb2/debug/_ext/1907747181/libaria_widget_scrollbar.o
 .text._laScrollBarWidget_Destructor
                0x00000000       0x1c build/pic32mz_ef_sk_meb2/debug/_ext/1907747181/libaria_widget_scrollbar.o
 .text._laScrollBar_GetUpLeftButtonRect
                0x00000000       0x30 build/pic32mz_ef_sk_meb2/debug/_ext/1907747181/libaria_widget_scrollbar.o
 .text._laScrollBar_GetDownRightButtonRect
                0x00000000       0x48 build/pic32mz_ef_sk_meb2/debug/_ext/1907747181/libaria_widget_scrollbar.o
 .text._laScrollBar_GetScrollAreaRect
                0x00000000       0x50 build/pic32mz_ef_sk_meb2/debug/_ext/1907747181/libaria_widget_scrollbar.o
 .text._laScrollWidget_GetExtent
                0x00000000       0x1c build/pic32mz_ef_sk_meb2/debug/_ext/1907747181/libaria_widget_scrollbar.o
 .text._laScrollBar_GetHandleRect
                0x00000000       0xf8 build/pic32mz_ef_sk_meb2/debug/_ext/1907747181/libaria_widget_scrollbar.o
 .text._laScrollBarWidget_TouchDownEvent
                0x00000000      0x150 build/pic32mz_ef_sk_meb2/debug/_ext/1907747181/libaria_widget_scrollbar.o
 .text._laScrollBar_GetPercentFromPoint
                0x00000000       0xe4 build/pic32mz_ef_sk_meb2/debug/_ext/1907747181/libaria_widget_scrollbar.o
 .text._laScrollBar_GetValueFromPercent
                0x00000000       0x38 build/pic32mz_ef_sk_meb2/debug/_ext/1907747181/libaria_widget_scrollbar.o
 .text._laScrollBarWidget_Constructor
                0x00000000       0xa8 build/pic32mz_ef_sk_meb2/debug/_ext/1907747181/libaria_widget_scrollbar.o
 .text.laScrollBarWidget_New
                0x00000000       0x50 build/pic32mz_ef_sk_meb2/debug/_ext/1907747181/libaria_widget_scrollbar.o
 .text.laScrollBarWidget_GetOrientation
                0x00000000       0x18 build/pic32mz_ef_sk_meb2/debug/_ext/1907747181/libaria_widget_scrollbar.o
 .text.laScrollBarWidget_SetOrientation
                0x00000000       0x4c build/pic32mz_ef_sk_meb2/debug/_ext/1907747181/libaria_widget_scrollbar.o
 .text.laScrollBarWidget_GetValueChangedEventCallback
                0x00000000       0x18 build/pic32mz_ef_sk_meb2/debug/_ext/1907747181/libaria_widget_scrollbar.o
 .text.laScrollBarWidget_GetMaxinumValue
                0x00000000       0x18 build/pic32mz_ef_sk_meb2/debug/_ext/1907747181/libaria_widget_scrollbar.o
 .text.laScrollBarWidget_SetMaximumValue
                0x00000000       0x44 build/pic32mz_ef_sk_meb2/debug/_ext/1907747181/libaria_widget_scrollbar.o
 .text.laScrollBarWidget_GetExtentValue
                0x00000000       0x18 build/pic32mz_ef_sk_meb2/debug/_ext/1907747181/libaria_widget_scrollbar.o
 .text.laScrollBarWidget_SetExtentValue
                0x00000000       0x44 build/pic32mz_ef_sk_meb2/debug/_ext/1907747181/libaria_widget_scrollbar.o
 .text.laScrollBarWidget_GetScrollPercentage
                0x00000000       0x34 build/pic32mz_ef_sk_meb2/debug/_ext/1907747181/libaria_widget_scrollbar.o
 .text.laScrollBarWidget_SetScrollPercentage
                0x00000000       0x5c build/pic32mz_ef_sk_meb2/debug/_ext/1907747181/libaria_widget_scrollbar.o
 .text.laScrollBarWidget_GetScrollValue
                0x00000000       0x18 build/pic32mz_ef_sk_meb2/debug/_ext/1907747181/libaria_widget_scrollbar.o
 .text.laScrollBarWidget_SetScrollValue
                0x00000000       0x68 build/pic32mz_ef_sk_meb2/debug/_ext/1907747181/libaria_widget_scrollbar.o
 .text._laScrollBarWidget_TouchMovedEvent
                0x00000000      0x1fc build/pic32mz_ef_sk_meb2/debug/_ext/1907747181/libaria_widget_scrollbar.o
 .text.laScrollBarWidget_GetStepSize
                0x00000000       0x18 build/pic32mz_ef_sk_meb2/debug/_ext/1907747181/libaria_widget_scrollbar.o
 .text.laScrollBarWidget_SetStepSize
                0x00000000       0x1c build/pic32mz_ef_sk_meb2/debug/_ext/1907747181/libaria_widget_scrollbar.o
 .text.laScrollBarWidget_StepBackward
                0x00000000       0x70 build/pic32mz_ef_sk_meb2/debug/_ext/1907747181/libaria_widget_scrollbar.o
 .text.laScrollBarWidget_StepForward
                0x00000000       0x70 build/pic32mz_ef_sk_meb2/debug/_ext/1907747181/libaria_widget_scrollbar.o
 .text._laScrollBarWidget_TouchUpEvent
                0x00000000      0x11c build/pic32mz_ef_sk_meb2/debug/_ext/1907747181/libaria_widget_scrollbar.o
 .text.laScrollBarWidget_SetValueChangedEventCallback
                0x00000000       0x1c build/pic32mz_ef_sk_meb2/debug/_ext/1907747181/libaria_widget_scrollbar.o
 .text          0x00000000        0x0 build/pic32mz_ef_sk_meb2/debug/_ext/1907747181/libaria_widget_scrollbar_skin_classic.o
 .data          0x00000000        0x0 build/pic32mz_ef_sk_meb2/debug/_ext/1907747181/libaria_widget_scrollbar_skin_classic.o
 .bss           0x00000000        0x0 build/pic32mz_ef_sk_meb2/debug/_ext/1907747181/libaria_widget_scrollbar_skin_classic.o
 .reginfo       0x00000000       0x18 build/pic32mz_ef_sk_meb2/debug/_ext/1907747181/libaria_widget_scrollbar_skin_classic.o
 .text.drawBackground
                0x00000000       0xac build/pic32mz_ef_sk_meb2/debug/_ext/1907747181/libaria_widget_scrollbar_skin_classic.o
 .text.drawUpButton
                0x00000000      0x29c build/pic32mz_ef_sk_meb2/debug/_ext/1907747181/libaria_widget_scrollbar_skin_classic.o
 .text.drawDownButton
                0x00000000      0x29c build/pic32mz_ef_sk_meb2/debug/_ext/1907747181/libaria_widget_scrollbar_skin_classic.o
 .text.drawHandle
                0x00000000       0xdc build/pic32mz_ef_sk_meb2/debug/_ext/1907747181/libaria_widget_scrollbar_skin_classic.o
 .text._laScrollBarWidget_Paint
                0x00000000       0x4c build/pic32mz_ef_sk_meb2/debug/_ext/1907747181/libaria_widget_scrollbar_skin_classic.o
 .text          0x00000000        0x0 build/pic32mz_ef_sk_meb2/debug/_ext/1907747181/libaria_widget_slider.o
 .data          0x00000000        0x0 build/pic32mz_ef_sk_meb2/debug/_ext/1907747181/libaria_widget_slider.o
 .bss           0x00000000        0x0 build/pic32mz_ef_sk_meb2/debug/_ext/1907747181/libaria_widget_slider.o
 .reginfo       0x00000000       0x18 build/pic32mz_ef_sk_meb2/debug/_ext/1907747181/libaria_widget_slider.o
 .text._laSliderWidget_Update
                0x00000000        0x8 build/pic32mz_ef_sk_meb2/debug/_ext/1907747181/libaria_widget_slider.o
 .text._laSliderWidget_TouchUpEvent
                0x00000000       0x10 build/pic32mz_ef_sk_meb2/debug/_ext/1907747181/libaria_widget_slider.o
 .text._laSliderWidget_Destructor
                0x00000000       0x1c build/pic32mz_ef_sk_meb2/debug/_ext/1907747181/libaria_widget_slider.o
 .text._laSlider_GetSlideAreaRect
                0x00000000       0xa0 build/pic32mz_ef_sk_meb2/debug/_ext/1907747181/libaria_widget_slider.o
 .text._laSlider_GetHandleRect
                0x00000000       0xe0 build/pic32mz_ef_sk_meb2/debug/_ext/1907747181/libaria_widget_slider.o
 .text._laSlider_GetPercentFromPoint
                0x00000000       0xcc build/pic32mz_ef_sk_meb2/debug/_ext/1907747181/libaria_widget_slider.o
 .text._laSlider_GetValueFromPercent
                0x00000000       0x54 build/pic32mz_ef_sk_meb2/debug/_ext/1907747181/libaria_widget_slider.o
 .text._laSliderWidget_TouchDownEvent
                0x00000000      0x11c build/pic32mz_ef_sk_meb2/debug/_ext/1907747181/libaria_widget_slider.o
 .text._laSliderWidget_TouchMovedEvent
                0x00000000       0x98 build/pic32mz_ef_sk_meb2/debug/_ext/1907747181/libaria_widget_slider.o
 .text._laSliderWidget_Constructor
                0x00000000       0xac build/pic32mz_ef_sk_meb2/debug/_ext/1907747181/libaria_widget_slider.o
 .text.laSliderWidget_New
                0x00000000       0x50 build/pic32mz_ef_sk_meb2/debug/_ext/1907747181/libaria_widget_slider.o
 .text.laSliderWidget_GetOrientation
                0x00000000       0x18 build/pic32mz_ef_sk_meb2/debug/_ext/1907747181/libaria_widget_slider.o
 .text.laSliderWidget_SetOrientation
                0x00000000       0x64 build/pic32mz_ef_sk_meb2/debug/_ext/1907747181/libaria_widget_slider.o
 .text.laSliderWidget_GetGripSize
                0x00000000       0x18 build/pic32mz_ef_sk_meb2/debug/_ext/1907747181/libaria_widget_slider.o
 .text.laSliderWidget_SetGripSize
                0x00000000       0x44 build/pic32mz_ef_sk_meb2/debug/_ext/1907747181/libaria_widget_slider.o
 .text.laSliderWidget_GetMininumValue
                0x00000000       0x18 build/pic32mz_ef_sk_meb2/debug/_ext/1907747181/libaria_widget_slider.o
 .text.laSliderWidget_SetMinimumValue
                0x00000000       0x58 build/pic32mz_ef_sk_meb2/debug/_ext/1907747181/libaria_widget_slider.o
 .text.laSliderWidget_GetMaxinumValue
                0x00000000       0x18 build/pic32mz_ef_sk_meb2/debug/_ext/1907747181/libaria_widget_slider.o
 .text.laSliderWidget_SetMaximumValue
                0x00000000       0x58 build/pic32mz_ef_sk_meb2/debug/_ext/1907747181/libaria_widget_slider.o
 .text.laSliderWidget_GetSliderPercentage
                0x00000000       0x3c build/pic32mz_ef_sk_meb2/debug/_ext/1907747181/libaria_widget_slider.o
 .text.laSliderWidget_SetSliderPercentage
                0x00000000       0x58 build/pic32mz_ef_sk_meb2/debug/_ext/1907747181/libaria_widget_slider.o
 .text.laSliderWidget_GetSliderValue
                0x00000000       0x18 build/pic32mz_ef_sk_meb2/debug/_ext/1907747181/libaria_widget_slider.o
 .text.laSliderWidget_SetSliderValue
                0x00000000       0x70 build/pic32mz_ef_sk_meb2/debug/_ext/1907747181/libaria_widget_slider.o
 .text.laSliderWidget_Step
                0x00000000       0x94 build/pic32mz_ef_sk_meb2/debug/_ext/1907747181/libaria_widget_slider.o
 .text.laSliderWidget_GetValueChangedEventCallback
                0x00000000       0x18 build/pic32mz_ef_sk_meb2/debug/_ext/1907747181/libaria_widget_slider.o
 .text.laSliderWidget_SetValueChangedEventCallback
                0x00000000       0x1c build/pic32mz_ef_sk_meb2/debug/_ext/1907747181/libaria_widget_slider.o
 .text          0x00000000        0x0 build/pic32mz_ef_sk_meb2/debug/_ext/1907747181/libaria_widget_slider_skin_classic.o
 .data          0x00000000        0x0 build/pic32mz_ef_sk_meb2/debug/_ext/1907747181/libaria_widget_slider_skin_classic.o
 .bss           0x00000000        0x0 build/pic32mz_ef_sk_meb2/debug/_ext/1907747181/libaria_widget_slider_skin_classic.o
 .reginfo       0x00000000       0x18 build/pic32mz_ef_sk_meb2/debug/_ext/1907747181/libaria_widget_slider_skin_classic.o
 .text.drawBackground
                0x00000000       0xcc build/pic32mz_ef_sk_meb2/debug/_ext/1907747181/libaria_widget_slider_skin_classic.o
 .text.drawBar  0x00000000      0x10c build/pic32mz_ef_sk_meb2/debug/_ext/1907747181/libaria_widget_slider_skin_classic.o
 .text.drawHandle
                0x00000000       0xdc build/pic32mz_ef_sk_meb2/debug/_ext/1907747181/libaria_widget_slider_skin_classic.o
 .text._laSliderWidget_Paint
                0x00000000       0x4c build/pic32mz_ef_sk_meb2/debug/_ext/1907747181/libaria_widget_slider_skin_classic.o
 .text          0x00000000        0x0 build/pic32mz_ef_sk_meb2/debug/_ext/1907747181/libaria_widget_textfield.o
 .data          0x00000000        0x0 build/pic32mz_ef_sk_meb2/debug/_ext/1907747181/libaria_widget_textfield.o
 .bss           0x00000000        0x0 build/pic32mz_ef_sk_meb2/debug/_ext/1907747181/libaria_widget_textfield.o
 .reginfo       0x00000000       0x18 build/pic32mz_ef_sk_meb2/debug/_ext/1907747181/libaria_widget_textfield.o
 .text._laTextFieldWidget_FocusLost
                0x00000000        0x8 build/pic32mz_ef_sk_meb2/debug/_ext/1907747181/libaria_widget_textfield.o
 .text._laTextFieldWidget_TouchUpEvent
                0x00000000        0xc build/pic32mz_ef_sk_meb2/debug/_ext/1907747181/libaria_widget_textfield.o
 .text._laTextFieldWidget_TouchMovedEvent
                0x00000000        0xc build/pic32mz_ef_sk_meb2/debug/_ext/1907747181/libaria_widget_textfield.o
 .text._laTextFieldWidget_Destructor
                0x00000000       0x54 build/pic32mz_ef_sk_meb2/debug/_ext/1907747181/libaria_widget_textfield.o
 .text._laTextFieldWidget_Update
                0x00000000       0x6c build/pic32mz_ef_sk_meb2/debug/_ext/1907747181/libaria_widget_textfield.o
 .text.laTextFieldWidget_StartEdit
                0x00000000       0x28 build/pic32mz_ef_sk_meb2/debug/_ext/1907747181/libaria_widget_textfield.o
 .text.laTextFieldWidget_EndEdit
                0x00000000       0x20 build/pic32mz_ef_sk_meb2/debug/_ext/1907747181/libaria_widget_textfield.o
 .text._laTextFieldWidget_FocusGained
                0x00000000       0x1c build/pic32mz_ef_sk_meb2/debug/_ext/1907747181/libaria_widget_textfield.o
 .text.laTextFieldWidget_Accept
                0x00000000       0x1c build/pic32mz_ef_sk_meb2/debug/_ext/1907747181/libaria_widget_textfield.o
 .text.laTextFieldWidget_Clear
                0x00000000       0x30 build/pic32mz_ef_sk_meb2/debug/_ext/1907747181/libaria_widget_textfield.o
 .text.laTextFieldWidget_Set
                0x00000000       0x48 build/pic32mz_ef_sk_meb2/debug/_ext/1907747181/libaria_widget_textfield.o
 .text.laTextFieldWidget_Append
                0x00000000       0x74 build/pic32mz_ef_sk_meb2/debug/_ext/1907747181/libaria_widget_textfield.o
 .text.laTextFieldWidget_Backspace
                0x00000000       0x40 build/pic32mz_ef_sk_meb2/debug/_ext/1907747181/libaria_widget_textfield.o
 .text._laTextFieldWidget_Constructor
                0x00000000      0x118 build/pic32mz_ef_sk_meb2/debug/_ext/1907747181/libaria_widget_textfield.o
 .text.laTextFieldWidget_New
                0x00000000       0x50 build/pic32mz_ef_sk_meb2/debug/_ext/1907747181/libaria_widget_textfield.o
 .text.laTextFieldWidget_GetAlignment
                0x00000000       0x18 build/pic32mz_ef_sk_meb2/debug/_ext/1907747181/libaria_widget_textfield.o
 .text.laTextFieldWidget_SetAlignment
                0x00000000       0x34 build/pic32mz_ef_sk_meb2/debug/_ext/1907747181/libaria_widget_textfield.o
 .text.laTextFieldWidget_GetCursorDelay
                0x00000000       0x18 build/pic32mz_ef_sk_meb2/debug/_ext/1907747181/libaria_widget_textfield.o
 .text.laTextFieldWidget_SetCursorDelay
                0x00000000       0x50 build/pic32mz_ef_sk_meb2/debug/_ext/1907747181/libaria_widget_textfield.o
 .text.laTextFieldWidget_GetCursorEnabled
                0x00000000       0x18 build/pic32mz_ef_sk_meb2/debug/_ext/1907747181/libaria_widget_textfield.o
 .text.laTextFieldWidget_SetCursorEnabled
                0x00000000       0x48 build/pic32mz_ef_sk_meb2/debug/_ext/1907747181/libaria_widget_textfield.o
 .text.laTextFieldWidget_GetCursorPosition
                0x00000000       0x18 build/pic32mz_ef_sk_meb2/debug/_ext/1907747181/libaria_widget_textfield.o
 .text.laTextFieldWidget_SetCursorPosition
                0x00000000       0x44 build/pic32mz_ef_sk_meb2/debug/_ext/1907747181/libaria_widget_textfield.o
 .text._laTextFieldWidget_TouchDownEvent
                0x00000000      0x100 build/pic32mz_ef_sk_meb2/debug/_ext/1907747181/libaria_widget_textfield.o
 .text.laTextFieldWidget_GetText
                0x00000000       0x2c build/pic32mz_ef_sk_meb2/debug/_ext/1907747181/libaria_widget_textfield.o
 .text.laTextFieldWidget_SetText
                0x00000000       0x6c build/pic32mz_ef_sk_meb2/debug/_ext/1907747181/libaria_widget_textfield.o
 .text.laTextFieldWidget_GetTextChangedEventCallback
                0x00000000       0x18 build/pic32mz_ef_sk_meb2/debug/_ext/1907747181/libaria_widget_textfield.o
 .text.laTextFieldWidget_SetTextChangedEventCallback
                0x00000000       0x1c build/pic32mz_ef_sk_meb2/debug/_ext/1907747181/libaria_widget_textfield.o
 .rodata        0x00000000       0x10 build/pic32mz_ef_sk_meb2/debug/_ext/1907747181/libaria_widget_textfield.o
 .text          0x00000000        0x0 build/pic32mz_ef_sk_meb2/debug/_ext/1907747181/libaria_widget_textfield_skin_classic.o
 .data          0x00000000        0x0 build/pic32mz_ef_sk_meb2/debug/_ext/1907747181/libaria_widget_textfield_skin_classic.o
 .bss           0x00000000        0x0 build/pic32mz_ef_sk_meb2/debug/_ext/1907747181/libaria_widget_textfield_skin_classic.o
 .reginfo       0x00000000       0x18 build/pic32mz_ef_sk_meb2/debug/_ext/1907747181/libaria_widget_textfield_skin_classic.o
 .text.drawBackground
                0x00000000      0x154 build/pic32mz_ef_sk_meb2/debug/_ext/1907747181/libaria_widget_textfield_skin_classic.o
 .text.waitString
                0x00000000       0xdc build/pic32mz_ef_sk_meb2/debug/_ext/1907747181/libaria_widget_textfield_skin_classic.o
 .text.drawBorder
                0x00000000       0xd0 build/pic32mz_ef_sk_meb2/debug/_ext/1907747181/libaria_widget_textfield_skin_classic.o
 .text.drawCursor
                0x00000000      0x174 build/pic32mz_ef_sk_meb2/debug/_ext/1907747181/libaria_widget_textfield_skin_classic.o
 .text.drawString
                0x00000000      0x1ac build/pic32mz_ef_sk_meb2/debug/_ext/1907747181/libaria_widget_textfield_skin_classic.o
 .text._laTextFieldWidget_Paint
                0x00000000       0x4c build/pic32mz_ef_sk_meb2/debug/_ext/1907747181/libaria_widget_textfield_skin_classic.o
 .rodata        0x00000000       0x10 build/pic32mz_ef_sk_meb2/debug/_ext/1907747181/libaria_widget_textfield_skin_classic.o
 .text          0x00000000        0x0 build/pic32mz_ef_sk_meb2/debug/_ext/1907747181/libaria_widget_touchtest.o
 .data          0x00000000        0x0 build/pic32mz_ef_sk_meb2/debug/_ext/1907747181/libaria_widget_touchtest.o
 .bss           0x00000000        0x0 build/pic32mz_ef_sk_meb2/debug/_ext/1907747181/libaria_widget_touchtest.o
 .reginfo       0x00000000       0x18 build/pic32mz_ef_sk_meb2/debug/_ext/1907747181/libaria_widget_touchtest.o
 .text._laTouchTestWidget_Destructor
                0x00000000       0x1c build/pic32mz_ef_sk_meb2/debug/_ext/1907747181/libaria_widget_touchtest.o
 .text._laTouchTestWidget_Constructor
                0x00000000       0x90 build/pic32mz_ef_sk_meb2/debug/_ext/1907747181/libaria_widget_touchtest.o
 .text.laTouchTestWidget_New
                0x00000000       0x58 build/pic32mz_ef_sk_meb2/debug/_ext/1907747181/libaria_widget_touchtest.o
 .text.laTouchTest_AddPoint
                0x00000000       0xb4 build/pic32mz_ef_sk_meb2/debug/_ext/1907747181/libaria_widget_touchtest.o
 .text._laTouchTestWidget_TouchDownEvent
                0x00000000       0x50 build/pic32mz_ef_sk_meb2/debug/_ext/1907747181/libaria_widget_touchtest.o
 .text._laTouchTestWidget_TouchMovedEvent
                0x00000000       0xa4 build/pic32mz_ef_sk_meb2/debug/_ext/1907747181/libaria_widget_touchtest.o
 .text.laTouchTest_ClearPoints
                0x00000000       0x3c build/pic32mz_ef_sk_meb2/debug/_ext/1907747181/libaria_widget_touchtest.o
 .text._laTouchTestWidget_TouchUpEvent
                0x00000000       0x24 build/pic32mz_ef_sk_meb2/debug/_ext/1907747181/libaria_widget_touchtest.o
 .text.laTouchTestWidget_GetPointAddedEventCallback
                0x00000000       0x18 build/pic32mz_ef_sk_meb2/debug/_ext/1907747181/libaria_widget_touchtest.o
 .text.laTouchTestWidget_SetPointAddedEventCallback
                0x00000000       0x10 build/pic32mz_ef_sk_meb2/debug/_ext/1907747181/libaria_widget_touchtest.o
 .text          0x00000000        0x0 build/pic32mz_ef_sk_meb2/debug/_ext/1907747181/libaria_widget_touchtest_skin_classic.o
 .data          0x00000000        0x0 build/pic32mz_ef_sk_meb2/debug/_ext/1907747181/libaria_widget_touchtest_skin_classic.o
 .bss           0x00000000        0x0 build/pic32mz_ef_sk_meb2/debug/_ext/1907747181/libaria_widget_touchtest_skin_classic.o
 .reginfo       0x00000000       0x18 build/pic32mz_ef_sk_meb2/debug/_ext/1907747181/libaria_widget_touchtest_skin_classic.o
 .text.drawLines
                0x00000000      0x1e4 build/pic32mz_ef_sk_meb2/debug/_ext/1907747181/libaria_widget_touchtest_skin_classic.o
 .text.drawBorder
                0x00000000       0xe0 build/pic32mz_ef_sk_meb2/debug/_ext/1907747181/libaria_widget_touchtest_skin_classic.o
 .text.drawBackground
                0x00000000      0x108 build/pic32mz_ef_sk_meb2/debug/_ext/1907747181/libaria_widget_touchtest_skin_classic.o
 .text._laTouchTestWidget_Paint
                0x00000000       0x78 build/pic32mz_ef_sk_meb2/debug/_ext/1907747181/libaria_widget_touchtest_skin_classic.o
 .text          0x00000000        0x0 build/pic32mz_ef_sk_meb2/debug/_ext/1907747181/libaria_widget_window.o
 .data          0x00000000        0x0 build/pic32mz_ef_sk_meb2/debug/_ext/1907747181/libaria_widget_window.o
 .bss           0x00000000        0x0 build/pic32mz_ef_sk_meb2/debug/_ext/1907747181/libaria_widget_window.o
 .reginfo       0x00000000       0x18 build/pic32mz_ef_sk_meb2/debug/_ext/1907747181/libaria_widget_window.o
 .text._laWindowWidget_Destructor
                0x00000000       0x54 build/pic32mz_ef_sk_meb2/debug/_ext/1907747181/libaria_widget_window.o
 .text._laWindowWidget_Constructor
                0x00000000       0x68 build/pic32mz_ef_sk_meb2/debug/_ext/1907747181/libaria_widget_window.o
 .text.laWindowWidget_New
                0x00000000       0x50 build/pic32mz_ef_sk_meb2/debug/_ext/1907747181/libaria_widget_window.o
 .text.laWindowWidget_GetTitle
                0x00000000       0x2c build/pic32mz_ef_sk_meb2/debug/_ext/1907747181/libaria_widget_window.o
 .text.laWindowWidget_SetTitle
                0x00000000       0x64 build/pic32mz_ef_sk_meb2/debug/_ext/1907747181/libaria_widget_window.o
 .text.laWindowWidget_GetIcon
                0x00000000       0x18 build/pic32mz_ef_sk_meb2/debug/_ext/1907747181/libaria_widget_window.o
 .text.laWindowWidget_SetIcon
                0x00000000       0x48 build/pic32mz_ef_sk_meb2/debug/_ext/1907747181/libaria_widget_window.o
 .text.laWindowWidget_GetIconMargin
                0x00000000       0x18 build/pic32mz_ef_sk_meb2/debug/_ext/1907747181/libaria_widget_window.o
 .text.laWindowWidget_SetIconMargin
                0x00000000       0x44 build/pic32mz_ef_sk_meb2/debug/_ext/1907747181/libaria_widget_window.o
 .text          0x00000000        0x0 build/pic32mz_ef_sk_meb2/debug/_ext/1907747181/libaria_widget_window_skin_classic.o
 .data          0x00000000        0x0 build/pic32mz_ef_sk_meb2/debug/_ext/1907747181/libaria_widget_window_skin_classic.o
 .bss           0x00000000        0x0 build/pic32mz_ef_sk_meb2/debug/_ext/1907747181/libaria_widget_window_skin_classic.o
 .reginfo       0x00000000       0x18 build/pic32mz_ef_sk_meb2/debug/_ext/1907747181/libaria_widget_window_skin_classic.o
 .text.drawBackground
                0x00000000       0xc8 build/pic32mz_ef_sk_meb2/debug/_ext/1907747181/libaria_widget_window_skin_classic.o
 .text.waitString
                0x00000000       0xa8 build/pic32mz_ef_sk_meb2/debug/_ext/1907747181/libaria_widget_window_skin_classic.o
 .text.waitIcon
                0x00000000       0xdc build/pic32mz_ef_sk_meb2/debug/_ext/1907747181/libaria_widget_window_skin_classic.o
 .text.drawTitleBar
                0x00000000      0x17c build/pic32mz_ef_sk_meb2/debug/_ext/1907747181/libaria_widget_window_skin_classic.o
 .text.drawBorder
                0x00000000       0xe8 build/pic32mz_ef_sk_meb2/debug/_ext/1907747181/libaria_widget_window_skin_classic.o
 .text.drawString
                0x00000000      0x1ec build/pic32mz_ef_sk_meb2/debug/_ext/1907747181/libaria_widget_window_skin_classic.o
 .text.drawIcon
                0x00000000      0x25c build/pic32mz_ef_sk_meb2/debug/_ext/1907747181/libaria_widget_window_skin_classic.o
 .text._laWindowWidget_Paint
                0x00000000       0x4c build/pic32mz_ef_sk_meb2/debug/_ext/1907747181/libaria_widget_window_skin_classic.o
 .rodata        0x00000000       0x10 build/pic32mz_ef_sk_meb2/debug/_ext/1907747181/libaria_widget_window_skin_classic.o
 .text          0x00000000        0x0 build/pic32mz_ef_sk_meb2/debug/_ext/1847583374/gfx.o
 .data          0x00000000        0x0 build/pic32mz_ef_sk_meb2/debug/_ext/1847583374/gfx.o
 .bss           0x00000000        0x0 build/pic32mz_ef_sk_meb2/debug/_ext/1847583374/gfx.o
 .reginfo       0x00000000       0x18 build/pic32mz_ef_sk_meb2/debug/_ext/1847583374/gfx.o
 .text.GFX_DrawCircle
                0x00000000       0xcc build/pic32mz_ef_sk_meb2/debug/_ext/1847583374/gfx.o
 .text.GFX_HandleInterrupt
                0x00000000       0x40 build/pic32mz_ef_sk_meb2/debug/_ext/1847583374/gfx.o
 .text          0x00000000        0x0 build/pic32mz_ef_sk_meb2/debug/_ext/1847583374/gfx_color.o
 .bss           0x00000000        0x0 build/pic32mz_ef_sk_meb2/debug/_ext/1847583374/gfx_color.o
 .reginfo       0x00000000       0x18 build/pic32mz_ef_sk_meb2/debug/_ext/1847583374/gfx_color.o
 .text.GFX_ColorChannelRed
                0x00000000       0x24 build/pic32mz_ef_sk_meb2/debug/_ext/1847583374/gfx_color.o
 .text.GFX_ColorChannelGreen
                0x00000000       0x24 build/pic32mz_ef_sk_meb2/debug/_ext/1847583374/gfx_color.o
 .text.GFX_ColorChannelBlue
                0x00000000       0x24 build/pic32mz_ef_sk_meb2/debug/_ext/1847583374/gfx_color.o
 .text.GFX_ColorChannelAlpha
                0x00000000       0x40 build/pic32mz_ef_sk_meb2/debug/_ext/1847583374/gfx_color.o
 .text          0x00000000        0x0 build/pic32mz_ef_sk_meb2/debug/_ext/1847583374/gfx_context.o
 .data          0x00000000        0x0 build/pic32mz_ef_sk_meb2/debug/_ext/1847583374/gfx_context.o
 .bss           0x00000000        0x0 build/pic32mz_ef_sk_meb2/debug/_ext/1847583374/gfx_context.o
 .reginfo       0x00000000       0x18 build/pic32mz_ef_sk_meb2/debug/_ext/1847583374/gfx_context.o
 .text          0x00000000        0x0 build/pic32mz_ef_sk_meb2/debug/_ext/1847583374/gfx_default_impl.o
 .data          0x00000000        0x0 build/pic32mz_ef_sk_meb2/debug/_ext/1847583374/gfx_default_impl.o
 .bss           0x00000000        0x0 build/pic32mz_ef_sk_meb2/debug/_ext/1847583374/gfx_default_impl.o
 .reginfo       0x00000000       0x18 build/pic32mz_ef_sk_meb2/debug/_ext/1847583374/gfx_default_impl.o
 .text.defUnsupported
                0x00000000        0x8 build/pic32mz_ef_sk_meb2/debug/_ext/1847583374/gfx_default_impl.o
 .text.defSwap  0x00000000       0xb8 build/pic32mz_ef_sk_meb2/debug/_ext/1847583374/gfx_default_impl.o
 .text          0x00000000        0x0 build/pic32mz_ef_sk_meb2/debug/_ext/1847583374/gfx_display.o
 .data          0x00000000        0x0 build/pic32mz_ef_sk_meb2/debug/_ext/1847583374/gfx_display.o
 .bss           0x00000000        0x0 build/pic32mz_ef_sk_meb2/debug/_ext/1847583374/gfx_display.o
 .reginfo       0x00000000       0x18 build/pic32mz_ef_sk_meb2/debug/_ext/1847583374/gfx_display.o
 .text          0x00000000        0x0 build/pic32mz_ef_sk_meb2/debug/_ext/1847583374/gfx_driver_interface.o
 .data          0x00000000        0x0 build/pic32mz_ef_sk_meb2/debug/_ext/1847583374/gfx_driver_interface.o
 .bss           0x00000000        0x0 build/pic32mz_ef_sk_meb2/debug/_ext/1847583374/gfx_driver_interface.o
 .reginfo       0x00000000       0x18 build/pic32mz_ef_sk_meb2/debug/_ext/1847583374/gfx_driver_interface.o
 .text          0x00000000        0x0 build/pic32mz_ef_sk_meb2/debug/_ext/1847583374/gfx_get.o
 .data          0x00000000        0x0 build/pic32mz_ef_sk_meb2/debug/_ext/1847583374/gfx_get.o
 .bss           0x00000000        0x0 build/pic32mz_ef_sk_meb2/debug/_ext/1847583374/gfx_get.o
 .reginfo       0x00000000       0x18 build/pic32mz_ef_sk_meb2/debug/_ext/1847583374/gfx_get.o
 .text.get_drawAntialias
                0x00000000       0x38 build/pic32mz_ef_sk_meb2/debug/_ext/1847583374/gfx_get.o
 .text          0x00000000        0x0 build/pic32mz_ef_sk_meb2/debug/_ext/1847583374/gfx_interface.o
 .bss           0x00000000        0x0 build/pic32mz_ef_sk_meb2/debug/_ext/1847583374/gfx_interface.o
 .reginfo       0x00000000       0x18 build/pic32mz_ef_sk_meb2/debug/_ext/1847583374/gfx_interface.o
 .text          0x00000000        0x0 build/pic32mz_ef_sk_meb2/debug/_ext/1847583374/gfx_layer.o
 .data          0x00000000        0x0 build/pic32mz_ef_sk_meb2/debug/_ext/1847583374/gfx_layer.o
 .bss           0x00000000        0x0 build/pic32mz_ef_sk_meb2/debug/_ext/1847583374/gfx_layer.o
 .reginfo       0x00000000       0x18 build/pic32mz_ef_sk_meb2/debug/_ext/1847583374/gfx_layer.o
 .text.GFX_LayerReadBuffer
                0x00000000       0x1c build/pic32mz_ef_sk_meb2/debug/_ext/1847583374/gfx_layer.o
 .text.GFX_LayerWriteBuffer
                0x00000000       0x1c build/pic32mz_ef_sk_meb2/debug/_ext/1847583374/gfx_layer.o
 .text.GFX_LayerRotate
                0x00000000       0x24 build/pic32mz_ef_sk_meb2/debug/_ext/1847583374/gfx_layer.o
 .text          0x00000000        0x0 build/pic32mz_ef_sk_meb2/debug/_ext/1847583374/gfx_pixel_buffer.o
 .bss           0x00000000        0x0 build/pic32mz_ef_sk_meb2/debug/_ext/1847583374/gfx_pixel_buffer.o
 .reginfo       0x00000000       0x18 build/pic32mz_ef_sk_meb2/debug/_ext/1847583374/gfx_pixel_buffer.o
 .text.GFX_PixelBufferCopy
                0x00000000       0xa8 build/pic32mz_ef_sk_meb2/debug/_ext/1847583374/gfx_pixel_buffer.o
 .text.GFX_PixelBufferAreaGet_Unsafe
                0x00000000       0xd4 build/pic32mz_ef_sk_meb2/debug/_ext/1847583374/gfx_pixel_buffer.o
 .text.GFX_PixelBufferAreaGet
                0x00000000       0xbc build/pic32mz_ef_sk_meb2/debug/_ext/1847583374/gfx_pixel_buffer.o
 .text.GFX_PixelBufferConvert
                0x00000000      0x140 build/pic32mz_ef_sk_meb2/debug/_ext/1847583374/gfx_pixel_buffer.o
 .text.GFX_PixelBufferAreaSet_Unsafe
                0x00000000      0x1a4 build/pic32mz_ef_sk_meb2/debug/_ext/1847583374/gfx_pixel_buffer.o
 .text.GFX_PixelBufferAreaSet
                0x00000000      0x144 build/pic32mz_ef_sk_meb2/debug/_ext/1847583374/gfx_pixel_buffer.o
 .text.GFX_PixelBufferAreaFill_Unsafe
                0x00000000       0xb4 build/pic32mz_ef_sk_meb2/debug/_ext/1847583374/gfx_pixel_buffer.o
 .text.GFX_PixelBufferAreaFill
                0x00000000       0x70 build/pic32mz_ef_sk_meb2/debug/_ext/1847583374/gfx_pixel_buffer.o
 .text          0x00000000        0x0 build/pic32mz_ef_sk_meb2/debug/_ext/1847583374/gfx_rect.o
 .data          0x00000000        0x0 build/pic32mz_ef_sk_meb2/debug/_ext/1847583374/gfx_rect.o
 .bss           0x00000000        0x0 build/pic32mz_ef_sk_meb2/debug/_ext/1847583374/gfx_rect.o
 .reginfo       0x00000000       0x18 build/pic32mz_ef_sk_meb2/debug/_ext/1847583374/gfx_rect.o
 .text          0x00000000        0x0 build/pic32mz_ef_sk_meb2/debug/_ext/1847583374/gfx_util.o
 .bss           0x00000000        0x0 build/pic32mz_ef_sk_meb2/debug/_ext/1847583374/gfx_util.o
 .reginfo       0x00000000       0x18 build/pic32mz_ef_sk_meb2/debug/_ext/1847583374/gfx_util.o
 .text          0x00000000        0x0 build/pic32mz_ef_sk_meb2/debug/_ext/1847583374/gfx_set.o
 .data          0x00000000        0x0 build/pic32mz_ef_sk_meb2/debug/_ext/1847583374/gfx_set.o
 .bss           0x00000000        0x0 build/pic32mz_ef_sk_meb2/debug/_ext/1847583374/gfx_set.o
 .reginfo       0x00000000       0x18 build/pic32mz_ef_sk_meb2/debug/_ext/1847583374/gfx_set.o
 .text.set_drawAntialias
                0x00000000       0x30 build/pic32mz_ef_sk_meb2/debug/_ext/1847583374/gfx_set.o
 .text          0x00000000        0x0 build/pic32mz_ef_sk_meb2/debug/_ext/1847583374/gfx_color_blend.o
 .bss           0x00000000        0x0 build/pic32mz_ef_sk_meb2/debug/_ext/1847583374/gfx_color_blend.o
 .reginfo       0x00000000       0x18 build/pic32mz_ef_sk_meb2/debug/_ext/1847583374/gfx_color_blend.o
 .text          0x00000000        0x0 build/pic32mz_ef_sk_meb2/debug/_ext/1847583374/gfx_color_convert.o
 .bss           0x00000000        0x0 build/pic32mz_ef_sk_meb2/debug/_ext/1847583374/gfx_color_convert.o
 .reginfo       0x00000000       0x18 build/pic32mz_ef_sk_meb2/debug/_ext/1847583374/gfx_color_convert.o
 .text          0x00000000        0x0 build/pic32mz_ef_sk_meb2/debug/_ext/1847583374/gfx_color_lerp.o
 .bss           0x00000000        0x0 build/pic32mz_ef_sk_meb2/debug/_ext/1847583374/gfx_color_lerp.o
 .reginfo       0x00000000       0x18 build/pic32mz_ef_sk_meb2/debug/_ext/1847583374/gfx_color_lerp.o
 .text          0x00000000        0x0 build/pic32mz_ef_sk_meb2/debug/_ext/1847583374/gfx_color_value.o
 .data          0x00000000        0x0 build/pic32mz_ef_sk_meb2/debug/_ext/1847583374/gfx_color_value.o
 .bss           0x00000000        0x0 build/pic32mz_ef_sk_meb2/debug/_ext/1847583374/gfx_color_value.o
 .reginfo       0x00000000       0x18 build/pic32mz_ef_sk_meb2/debug/_ext/1847583374/gfx_color_value.o
 .text.GFX_ColorValue
                0x00000000       0x44 build/pic32mz_ef_sk_meb2/debug/_ext/1847583374/gfx_color_value.o
 .rodata        0x00000000       0x48 build/pic32mz_ef_sk_meb2/debug/_ext/1847583374/gfx_color_value.o
 .text          0x00000000        0x0 build/pic32mz_ef_sk_meb2/debug/_ext/1847583374/gfx_draw_blit.o
 .data          0x00000000        0x0 build/pic32mz_ef_sk_meb2/debug/_ext/1847583374/gfx_draw_blit.o
 .bss           0x00000000        0x0 build/pic32mz_ef_sk_meb2/debug/_ext/1847583374/gfx_draw_blit.o
 .reginfo       0x00000000       0x18 build/pic32mz_ef_sk_meb2/debug/_ext/1847583374/gfx_draw_blit.o
 .text          0x00000000        0x0 build/pic32mz_ef_sk_meb2/debug/_ext/1847583374/gfx_draw_circle.o
 .data          0x00000000        0x0 build/pic32mz_ef_sk_meb2/debug/_ext/1847583374/gfx_draw_circle.o
 .bss           0x00000000        0x0 build/pic32mz_ef_sk_meb2/debug/_ext/1847583374/gfx_draw_circle.o
 .reginfo       0x00000000       0x18 build/pic32mz_ef_sk_meb2/debug/_ext/1847583374/gfx_draw_circle.o
 .text          0x00000000        0x0 build/pic32mz_ef_sk_meb2/debug/_ext/1847583374/gfx_draw_line.o
 .data          0x00000000        0x0 build/pic32mz_ef_sk_meb2/debug/_ext/1847583374/gfx_draw_line.o
 .bss           0x00000000        0x0 build/pic32mz_ef_sk_meb2/debug/_ext/1847583374/gfx_draw_line.o
 .reginfo       0x00000000       0x18 build/pic32mz_ef_sk_meb2/debug/_ext/1847583374/gfx_draw_line.o
 .text.cpuDrawLine_Gradient
                0x00000000        0x8 build/pic32mz_ef_sk_meb2/debug/_ext/1847583374/gfx_draw_line.o
 .text.cpuDrawLine_Gradient_AA
                0x00000000        0x8 build/pic32mz_ef_sk_meb2/debug/_ext/1847583374/gfx_draw_line.o
 .text          0x00000000        0x0 build/pic32mz_ef_sk_meb2/debug/_ext/1847583374/gfx_draw_pixel.o
 .data          0x00000000        0x0 build/pic32mz_ef_sk_meb2/debug/_ext/1847583374/gfx_draw_pixel.o
 .bss           0x00000000        0x0 build/pic32mz_ef_sk_meb2/debug/_ext/1847583374/gfx_draw_pixel.o
 .reginfo       0x00000000       0x18 build/pic32mz_ef_sk_meb2/debug/_ext/1847583374/gfx_draw_pixel.o
 .text          0x00000000        0x0 build/pic32mz_ef_sk_meb2/debug/_ext/1847583374/gfx_draw_rect.o
 .data          0x00000000        0x0 build/pic32mz_ef_sk_meb2/debug/_ext/1847583374/gfx_draw_rect.o
 .bss           0x00000000        0x0 build/pic32mz_ef_sk_meb2/debug/_ext/1847583374/gfx_draw_rect.o
 .reginfo       0x00000000       0x18 build/pic32mz_ef_sk_meb2/debug/_ext/1847583374/gfx_draw_rect.o
 .text.cpuDrawRect_Gradient_Quad
                0x00000000        0x8 build/pic32mz_ef_sk_meb2/debug/_ext/1847583374/gfx_draw_rect.o
 .text.cpuDrawRect_Gradient_Bi_AA
                0x00000000        0x8 build/pic32mz_ef_sk_meb2/debug/_ext/1847583374/gfx_draw_rect.o
 .text.cpuDrawRect_Gradient_Quad_AA
                0x00000000        0x8 build/pic32mz_ef_sk_meb2/debug/_ext/1847583374/gfx_draw_rect.o
 .text          0x00000000        0x0 build/pic32mz_ef_sk_meb2/debug/_ext/1847583374/gfx_math.o
 .data          0x00000000        0x0 build/pic32mz_ef_sk_meb2/debug/_ext/1847583374/gfx_math.o
 .bss           0x00000000        0x0 build/pic32mz_ef_sk_meb2/debug/_ext/1847583374/gfx_math.o
 .reginfo       0x00000000       0x18 build/pic32mz_ef_sk_meb2/debug/_ext/1847583374/gfx_math.o
 .text.GFX_Mini
                0x00000000       0x10 build/pic32mz_ef_sk_meb2/debug/_ext/1847583374/gfx_math.o
 .text.GFX_Maxi
                0x00000000       0x10 build/pic32mz_ef_sk_meb2/debug/_ext/1847583374/gfx_math.o
 .text.GFX_Minf
                0x00000000       0x40 build/pic32mz_ef_sk_meb2/debug/_ext/1847583374/gfx_math.o
 .text.GFX_Maxf
                0x00000000       0x44 build/pic32mz_ef_sk_meb2/debug/_ext/1847583374/gfx_math.o
 .text.GFX_Clampi
                0x00000000       0x20 build/pic32mz_ef_sk_meb2/debug/_ext/1847583374/gfx_math.o
 .text.GFX_Clampf
                0x00000000       0x64 build/pic32mz_ef_sk_meb2/debug/_ext/1847583374/gfx_math.o
 .text.GFX_AbsoluteValue
                0x00000000       0x14 build/pic32mz_ef_sk_meb2/debug/_ext/1847583374/gfx_math.o
 .text          0x00000000        0x0 build/pic32mz_ef_sk_meb2/debug/_ext/853959373/sys_dma.o
 .data          0x00000000        0x0 build/pic32mz_ef_sk_meb2/debug/_ext/853959373/sys_dma.o
 .bss           0x00000000        0x0 build/pic32mz_ef_sk_meb2/debug/_ext/853959373/sys_dma.o
 .reginfo       0x00000000       0x18 build/pic32mz_ef_sk_meb2/debug/_ext/853959373/sys_dma.o
 .text.SYS_DMA_ChannelRelease
                0x00000000      0x16c build/pic32mz_ef_sk_meb2/debug/_ext/853959373/sys_dma.o
 .text.SYS_DMA_ChannelSetupMatchAbortMode
                0x00000000       0x60 build/pic32mz_ef_sk_meb2/debug/_ext/853959373/sys_dma.o
 .text.SYS_DMA_ChannelCRCSet
                0x00000000       0xd4 build/pic32mz_ef_sk_meb2/debug/_ext/853959373/sys_dma.o
 .text.SYS_DMA_ChannelCRCGet
                0x00000000       0x14 build/pic32mz_ef_sk_meb2/debug/_ext/853959373/sys_dma.o
 .text.SYS_DMA_ChannelDisable
                0x00000000       0x38 build/pic32mz_ef_sk_meb2/debug/_ext/853959373/sys_dma.o
 .text.SYS_DMA_ChannelTransferSet
                0x00000000      0x154 build/pic32mz_ef_sk_meb2/debug/_ext/853959373/sys_dma.o
 .text.SYS_DMA_ChannelSourceTransferredSizeGet
                0x00000000       0x34 build/pic32mz_ef_sk_meb2/debug/_ext/853959373/sys_dma.o
 .text.SYS_DMA_ChannelDestinationTransferredSizeGet
                0x00000000       0x34 build/pic32mz_ef_sk_meb2/debug/_ext/853959373/sys_dma.o
 .text.SYS_DMA_ChannelTransferEventHandlerSet
                0x00000000       0x20 build/pic32mz_ef_sk_meb2/debug/_ext/853959373/sys_dma.o
 .text.SYS_DMA_Tasks
                0x00000000        0x8 build/pic32mz_ef_sk_meb2/debug/_ext/853959373/sys_dma.o
 .text.SYS_DMA_TasksError
                0x00000000       0xe0 build/pic32mz_ef_sk_meb2/debug/_ext/853959373/sys_dma.o
 .text.SYS_DMA_TasksErrorISR
                0x00000000       0xac build/pic32mz_ef_sk_meb2/debug/_ext/853959373/sys_dma.o
 .text.SYS_DMA_ChannelErrorGet
                0x00000000        0x8 build/pic32mz_ef_sk_meb2/debug/_ext/853959373/sys_dma.o
 .text.SYS_DMA_ChannelForceAbort
                0x00000000       0x38 build/pic32mz_ef_sk_meb2/debug/_ext/853959373/sys_dma.o
 .text.SYS_DMA_ChannelAbortEventSet
                0x00000000       0x70 build/pic32mz_ef_sk_meb2/debug/_ext/853959373/sys_dma.o
 .text.SYS_DMA_ChannelIsBusy
                0x00000000       0x30 build/pic32mz_ef_sk_meb2/debug/_ext/853959373/sys_dma.o
 .text.SYS_DMA_IsBusy
                0x00000000       0x10 build/pic32mz_ef_sk_meb2/debug/_ext/853959373/sys_dma.o
 .text          0x00000000        0x0 build/pic32mz_ef_sk_meb2/debug/_ext/1042686532/sys_int_pic32.o
 .data          0x00000000        0x0 build/pic32mz_ef_sk_meb2/debug/_ext/1042686532/sys_int_pic32.o
 .bss           0x00000000        0x0 build/pic32mz_ef_sk_meb2/debug/_ext/1042686532/sys_int_pic32.o
 .reginfo       0x00000000       0x18 build/pic32mz_ef_sk_meb2/debug/_ext/1042686532/sys_int_pic32.o
 .text.SYS_INT_StatusGetAndDisable
                0x00000000       0x1c build/pic32mz_ef_sk_meb2/debug/_ext/1042686532/sys_int_pic32.o
 .text.SYS_INT_StatusRestore
                0x00000000       0x1c build/pic32mz_ef_sk_meb2/debug/_ext/1042686532/sys_int_pic32.o
 .text.SYS_INT_Disable
                0x00000000       0x20 build/pic32mz_ef_sk_meb2/debug/_ext/1042686532/sys_int_pic32.o
 .text.SYS_INT_SourceDisable
                0x00000000       0x54 build/pic32mz_ef_sk_meb2/debug/_ext/1042686532/sys_int_pic32.o
 .text.SYS_INT_ExternalInterruptTriggerSet
                0x00000000       0x28 build/pic32mz_ef_sk_meb2/debug/_ext/1042686532/sys_int_pic32.o
 .text          0x00000000        0x0 build/pic32mz_ef_sk_meb2/debug/_ext/1219754583/drv_i2c_static_buffer_model.o
 .data          0x00000000        0x0 build/pic32mz_ef_sk_meb2/debug/_ext/1219754583/drv_i2c_static_buffer_model.o
 .reginfo       0x00000000       0x18 build/pic32mz_ef_sk_meb2/debug/_ext/1219754583/drv_i2c_static_buffer_model.o
 .text.DRV_I2C0_DeInitialize
                0x00000000       0x14 build/pic32mz_ef_sk_meb2/debug/_ext/1219754583/drv_i2c_static_buffer_model.o
 .text.DRV_I2C0_Receive
                0x00000000      0x11c build/pic32mz_ef_sk_meb2/debug/_ext/1219754583/drv_i2c_static_buffer_model.o
 .text.DRV_I2C0_TransmitForced
                0x00000000      0x120 build/pic32mz_ef_sk_meb2/debug/_ext/1219754583/drv_i2c_static_buffer_model.o
 .text.DRV_I2C0_TransmitThenReceive
                0x00000000      0x13c build/pic32mz_ef_sk_meb2/debug/_ext/1219754583/drv_i2c_static_buffer_model.o
 .text.DRV_I2C0_BytesTransferred
                0x00000000        0x8 build/pic32mz_ef_sk_meb2/debug/_ext/1219754583/drv_i2c_static_buffer_model.o
 .text          0x00000000        0x0 build/pic32mz_ef_sk_meb2/debug/_ext/1219754583/drv_i2c_mapping.o
 .data          0x00000000        0x0 build/pic32mz_ef_sk_meb2/debug/_ext/1219754583/drv_i2c_mapping.o
 .bss           0x00000000        0x0 build/pic32mz_ef_sk_meb2/debug/_ext/1219754583/drv_i2c_mapping.o
 .reginfo       0x00000000       0x18 build/pic32mz_ef_sk_meb2/debug/_ext/1219754583/drv_i2c_mapping.o
 .text.DRV_I2C_Close
                0x00000000       0x28 build/pic32mz_ef_sk_meb2/debug/_ext/1219754583/drv_i2c_mapping.o
 .text.DRV_I2C_TransmitForced
                0x00000000       0x44 build/pic32mz_ef_sk_meb2/debug/_ext/1219754583/drv_i2c_mapping.o
 .text.DRV_I2C_Receive
                0x00000000       0x3c build/pic32mz_ef_sk_meb2/debug/_ext/1219754583/drv_i2c_mapping.o
 .text.DRV_I2C_TransmitThenReceive
                0x00000000       0x4c build/pic32mz_ef_sk_meb2/debug/_ext/1219754583/drv_i2c_mapping.o
 .text.DRV_I2C_BytesTransferred
                0x00000000       0x30 build/pic32mz_ef_sk_meb2/debug/_ext/1219754583/drv_i2c_mapping.o
 .text          0x00000000        0x0 build/pic32mz_ef_sk_meb2/debug/_ext/199634090/drv_tmr_static.o
 .data          0x00000000        0x0 build/pic32mz_ef_sk_meb2/debug/_ext/199634090/drv_tmr_static.o
 .reginfo       0x00000000       0x18 build/pic32mz_ef_sk_meb2/debug/_ext/199634090/drv_tmr_static.o
 .text._DRV_TMR0_Suspend
                0x00000000       0x34 build/pic32mz_ef_sk_meb2/debug/_ext/199634090/drv_tmr_static.o
 .text.DRV_TMR0_Stop
                0x00000000       0x30 build/pic32mz_ef_sk_meb2/debug/_ext/199634090/drv_tmr_static.o
 .text.DRV_TMR0_ClientStatus
                0x00000000       0x14 build/pic32mz_ef_sk_meb2/debug/_ext/199634090/drv_tmr_static.o
 .text.DRV_TMR0_CounterValueSet
                0x00000000       0x14 build/pic32mz_ef_sk_meb2/debug/_ext/199634090/drv_tmr_static.o
 .text.DRV_TMR0_CounterValueGet
                0x00000000       0x14 build/pic32mz_ef_sk_meb2/debug/_ext/199634090/drv_tmr_static.o
 .text.DRV_TMR0_CounterClear
                0x00000000       0x10 build/pic32mz_ef_sk_meb2/debug/_ext/199634090/drv_tmr_static.o
 .text.DRV_TMR0_CounterFrequencyGet
                0x00000000       0x4c build/pic32mz_ef_sk_meb2/debug/_ext/199634090/drv_tmr_static.o
 .text.DRV_TMR0_PrescalerGet
                0x00000000       0xa4 build/pic32mz_ef_sk_meb2/debug/_ext/199634090/drv_tmr_static.o
 .text.DRV_TMR0_PeriodValueSet
                0x00000000       0x14 build/pic32mz_ef_sk_meb2/debug/_ext/199634090/drv_tmr_static.o
 .text.DRV_TMR0_PeriodValueGet
                0x00000000       0x14 build/pic32mz_ef_sk_meb2/debug/_ext/199634090/drv_tmr_static.o
 .text.DRV_TMR0_StopInIdleDisable
                0x00000000       0x14 build/pic32mz_ef_sk_meb2/debug/_ext/199634090/drv_tmr_static.o
 .text.DRV_TMR0_StopInIdleEnable
                0x00000000       0x14 build/pic32mz_ef_sk_meb2/debug/_ext/199634090/drv_tmr_static.o
 .text.DRV_TMR0_ClockSet
                0x00000000       0xcc build/pic32mz_ef_sk_meb2/debug/_ext/199634090/drv_tmr_static.o
 .text.DRV_TMR0_AlarmPeriodSet
                0x00000000       0x64 build/pic32mz_ef_sk_meb2/debug/_ext/199634090/drv_tmr_static.o
 .text.DRV_TMR0_AlarmPeriodGet
                0x00000000       0x14 build/pic32mz_ef_sk_meb2/debug/_ext/199634090/drv_tmr_static.o
 .text.DRV_TMR0_AlarmDeregister
                0x00000000       0x14 build/pic32mz_ef_sk_meb2/debug/_ext/199634090/drv_tmr_static.o
 .text.DRV_TMR0_AlarmHasElapsed
                0x00000000       0x14 build/pic32mz_ef_sk_meb2/debug/_ext/199634090/drv_tmr_static.o
 .text          0x00000000        0x0 build/pic32mz_ef_sk_meb2/debug/_ext/199634090/drv_tmr_mapping.o
 .data          0x00000000        0x0 build/pic32mz_ef_sk_meb2/debug/_ext/199634090/drv_tmr_mapping.o
 .bss           0x00000000        0x0 build/pic32mz_ef_sk_meb2/debug/_ext/199634090/drv_tmr_mapping.o
 .reginfo       0x00000000       0x18 build/pic32mz_ef_sk_meb2/debug/_ext/199634090/drv_tmr_mapping.o
 .text.DRV_TMR_Initialize
                0x00000000       0x38 build/pic32mz_ef_sk_meb2/debug/_ext/199634090/drv_tmr_mapping.o
 .text.DRV_TMR_Deinitialize
                0x00000000       0x28 build/pic32mz_ef_sk_meb2/debug/_ext/199634090/drv_tmr_mapping.o
 .text.DRV_TMR_Status
                0x00000000        0x8 build/pic32mz_ef_sk_meb2/debug/_ext/199634090/drv_tmr_mapping.o
 .text.DRV_TMR_Tasks
                0x00000000       0x28 build/pic32mz_ef_sk_meb2/debug/_ext/199634090/drv_tmr_mapping.o
 .text.DRV_TMR_Close
                0x00000000       0x28 build/pic32mz_ef_sk_meb2/debug/_ext/199634090/drv_tmr_mapping.o
 .text.DRV_TMR_ClientStatus
                0x00000000       0x30 build/pic32mz_ef_sk_meb2/debug/_ext/199634090/drv_tmr_mapping.o
 .text.DRV_TMR_CounterValueSet
                0x00000000       0x28 build/pic32mz_ef_sk_meb2/debug/_ext/199634090/drv_tmr_mapping.o
 .text.DRV_TMR_CounterValueGet
                0x00000000       0x30 build/pic32mz_ef_sk_meb2/debug/_ext/199634090/drv_tmr_mapping.o
 .text.DRV_TMR_CounterClear
                0x00000000       0x28 build/pic32mz_ef_sk_meb2/debug/_ext/199634090/drv_tmr_mapping.o
 .text.DRV_TMR_AlarmDisable
                0x00000000       0x30 build/pic32mz_ef_sk_meb2/debug/_ext/199634090/drv_tmr_mapping.o
 .text.DRV_TMR_AlarmPeriodSet
                0x00000000       0x28 build/pic32mz_ef_sk_meb2/debug/_ext/199634090/drv_tmr_mapping.o
 .text.DRV_TMR_AlarmPeriodGet
                0x00000000       0x30 build/pic32mz_ef_sk_meb2/debug/_ext/199634090/drv_tmr_mapping.o
 .text.DRV_TMR_AlarmDeregister
                0x00000000       0x28 build/pic32mz_ef_sk_meb2/debug/_ext/199634090/drv_tmr_mapping.o
 .text.DRV_TMR_Stop
                0x00000000       0x28 build/pic32mz_ef_sk_meb2/debug/_ext/199634090/drv_tmr_mapping.o
 .text.DRV_TMR_AlarmHasElapsed
                0x00000000       0x30 build/pic32mz_ef_sk_meb2/debug/_ext/199634090/drv_tmr_mapping.o
 .text.DRV_TMR_OperationModeGet
                0x00000000        0x8 build/pic32mz_ef_sk_meb2/debug/_ext/199634090/drv_tmr_mapping.o
 .text.DRV_TMR_ClockSet
                0x00000000       0x30 build/pic32mz_ef_sk_meb2/debug/_ext/199634090/drv_tmr_mapping.o
 .text.DRV_TMR_PrescalerGet
                0x00000000       0x30 build/pic32mz_ef_sk_meb2/debug/_ext/199634090/drv_tmr_mapping.o
 .text.DRV_TMR_GateModeSet
                0x00000000        0x8 build/pic32mz_ef_sk_meb2/debug/_ext/199634090/drv_tmr_mapping.o
 .text.DRV_TMR_GateModeClear
                0x00000000        0x8 build/pic32mz_ef_sk_meb2/debug/_ext/199634090/drv_tmr_mapping.o
 .text.DRV_TMR_CounterFrequencyGet
                0x00000000       0x30 build/pic32mz_ef_sk_meb2/debug/_ext/199634090/drv_tmr_mapping.o
 .text.DRV_TMR_DividerRangeGet
                0x00000000       0x30 build/pic32mz_ef_sk_meb2/debug/_ext/199634090/drv_tmr_mapping.o
 .text          0x00000000        0x0 build/pic32mz_ef_sk_meb2/debug/_ext/713288229/drv_gfx_lcc_generic.o
 .data          0x00000000        0x0 build/pic32mz_ef_sk_meb2/debug/_ext/713288229/drv_gfx_lcc_generic.o
 .bss           0x00000000        0x0 build/pic32mz_ef_sk_meb2/debug/_ext/713288229/drv_gfx_lcc_generic.o
 .reginfo       0x00000000       0x18 build/pic32mz_ef_sk_meb2/debug/_ext/713288229/drv_gfx_lcc_generic.o
 .text          0x00000000        0x0 build/pic32mz_ef_sk_meb2/debug/_ext/1740298103/libaria_harmony.o
 .data          0x00000000        0x0 build/pic32mz_ef_sk_meb2/debug/_ext/1740298103/libaria_harmony.o
 .bss           0x00000000        0x0 build/pic32mz_ef_sk_meb2/debug/_ext/1740298103/libaria_harmony.o
 .reginfo       0x00000000       0x18 build/pic32mz_ef_sk_meb2/debug/_ext/1740298103/libaria_harmony.o
 .text          0x00000000        0x0 build/pic32mz_ef_sk_meb2/debug/_ext/1740298103/libaria_init.o
 .data          0x00000000        0x0 build/pic32mz_ef_sk_meb2/debug/_ext/1740298103/libaria_init.o
 .bss           0x00000000        0x0 build/pic32mz_ef_sk_meb2/debug/_ext/1740298103/libaria_init.o
 .reginfo       0x00000000       0x18 build/pic32mz_ef_sk_meb2/debug/_ext/1740298103/libaria_init.o
 .text          0x00000000        0x0 build/pic32mz_ef_sk_meb2/debug/_ext/1740298103/libaria_events.o
 .data          0x00000000        0x0 build/pic32mz_ef_sk_meb2/debug/_ext/1740298103/libaria_events.o
 .bss           0x00000000        0x0 build/pic32mz_ef_sk_meb2/debug/_ext/1740298103/libaria_events.o
 .reginfo       0x00000000       0x18 build/pic32mz_ef_sk_meb2/debug/_ext/1740298103/libaria_events.o
 .text          0x00000000        0x0 build/pic32mz_ef_sk_meb2/debug/_ext/1740298103/libaria_macros.o
 .data          0x00000000        0x0 build/pic32mz_ef_sk_meb2/debug/_ext/1740298103/libaria_macros.o
 .bss           0x00000000        0x0 build/pic32mz_ef_sk_meb2/debug/_ext/1740298103/libaria_macros.o
 .reginfo       0x00000000       0x18 build/pic32mz_ef_sk_meb2/debug/_ext/1740298103/libaria_macros.o
 .text          0x00000000        0x0 build/pic32mz_ef_sk_meb2/debug/_ext/477038478/gfx_display_def.o
 .bss           0x00000000        0x0 build/pic32mz_ef_sk_meb2/debug/_ext/477038478/gfx_display_def.o
 .reginfo       0x00000000       0x18 build/pic32mz_ef_sk_meb2/debug/_ext/477038478/gfx_display_def.o
 .text          0x00000000        0x0 build/pic32mz_ef_sk_meb2/debug/_ext/477038478/gfx_driver_def.o
 .data          0x00000000        0x0 build/pic32mz_ef_sk_meb2/debug/_ext/477038478/gfx_driver_def.o
 .bss           0x00000000        0x0 build/pic32mz_ef_sk_meb2/debug/_ext/477038478/gfx_driver_def.o
 .reginfo       0x00000000       0x18 build/pic32mz_ef_sk_meb2/debug/_ext/477038478/gfx_driver_def.o
 .text          0x00000000        0x0 build/pic32mz_ef_sk_meb2/debug/_ext/1847413222/sys_clk.o
 .data          0x00000000        0x0 build/pic32mz_ef_sk_meb2/debug/_ext/1847413222/sys_clk.o
 .bss           0x00000000        0x0 build/pic32mz_ef_sk_meb2/debug/_ext/1847413222/sys_clk.o
 .reginfo       0x00000000       0x18 build/pic32mz_ef_sk_meb2/debug/_ext/1847413222/sys_clk.o
 .text.SYS_CLK_ClockFailureCallbackRegister
                0x00000000        0xc build/pic32mz_ef_sk_meb2/debug/_ext/1847413222/sys_clk.o
 .text.SYS_CLK_SystemFrequencySet
                0x00000000       0x44 build/pic32mz_ef_sk_meb2/debug/_ext/1847413222/sys_clk.o
 .text.SYS_CLK_PeripheralFrequencySet
                0x00000000       0x84 build/pic32mz_ef_sk_meb2/debug/_ext/1847413222/sys_clk.o
 .text.SYS_CLK_ReferenceFrequencySet
                0x00000000       0x88 build/pic32mz_ef_sk_meb2/debug/_ext/1847413222/sys_clk.o
 .text.SYS_CLK_ReferenceFrequencyGet
                0x00000000       0x1c build/pic32mz_ef_sk_meb2/debug/_ext/1847413222/sys_clk.o
 .text.SYS_CLK_TaskError
                0x00000000       0x38 build/pic32mz_ef_sk_meb2/debug/_ext/1847413222/sys_clk.o
 .text.SYS_CLK_ReferenceClockSetup
                0x00000000       0x1c build/pic32mz_ef_sk_meb2/debug/_ext/1847413222/sys_clk.o
 .text.SYS_CLK_FRCTune
                0x00000000       0x18 build/pic32mz_ef_sk_meb2/debug/_ext/1847413222/sys_clk.o
 .text.SYS_CLK_SecondaryOscillatorEnable
                0x00000000       0x48 build/pic32mz_ef_sk_meb2/debug/_ext/1847413222/sys_clk.o
 .text.SYS_CLK_SecondaryOscillatorDisable
                0x00000000       0x48 build/pic32mz_ef_sk_meb2/debug/_ext/1847413222/sys_clk.o
 .text.SYS_CLK_SecondaryOscillatorIsEnabled
                0x00000000       0x10 build/pic32mz_ef_sk_meb2/debug/_ext/1847413222/sys_clk.o
 .text          0x00000000        0x0 build/pic32mz_ef_sk_meb2/debug/_ext/1847413222/sys_clk_pic32mz.o
 .data          0x00000000        0x0 build/pic32mz_ef_sk_meb2/debug/_ext/1847413222/sys_clk_pic32mz.o
 .bss           0x00000000        0x0 build/pic32mz_ef_sk_meb2/debug/_ext/1847413222/sys_clk_pic32mz.o
 .reginfo       0x00000000       0x18 build/pic32mz_ef_sk_meb2/debug/_ext/1847413222/sys_clk_pic32mz.o
 .text._SYS_CLK_GetOscPeripheralBus
                0x00000000        0x8 build/pic32mz_ef_sk_meb2/debug/_ext/1847413222/sys_clk_pic32mz.o
 .text._SYS_CLK_PLLInputDividerRead
                0x00000000       0x14 build/pic32mz_ef_sk_meb2/debug/_ext/1847413222/sys_clk_pic32mz.o
 .text._SYS_CLK_PLLMultiplierRead
                0x00000000       0x14 build/pic32mz_ef_sk_meb2/debug/_ext/1847413222/sys_clk_pic32mz.o
 .text._SYS_CLK_PLLOutputDividerRead
                0x00000000       0x34 build/pic32mz_ef_sk_meb2/debug/_ext/1847413222/sys_clk_pic32mz.o
 .text._SYS_CLK_SystemClockRead
                0x00000000      0x1e8 build/pic32mz_ef_sk_meb2/debug/_ext/1847413222/sys_clk_pic32mz.o
 .text._SYS_CLK_PeripheralFrequencySet
                0x00000000      0x18c build/pic32mz_ef_sk_meb2/debug/_ext/1847413222/sys_clk_pic32mz.o
 .text.SYS_CLK_ClosestFactorsGet
                0x00000000       0xa0 build/pic32mz_ef_sk_meb2/debug/_ext/1847413222/sys_clk_pic32mz.o
 .text.SYS_CLK_FRCClosestDivisorGet
                0x00000000       0x84 build/pic32mz_ef_sk_meb2/debug/_ext/1847413222/sys_clk_pic32mz.o
 .text.SYS_CLK_FrequencyErrorCheck
                0x00000000       0x18 build/pic32mz_ef_sk_meb2/debug/_ext/1847413222/sys_clk_pic32mz.o
 .text.SYS_CLK_SystemClockSourceSwitch
                0x00000000      0x1c4 build/pic32mz_ef_sk_meb2/debug/_ext/1847413222/sys_clk_pic32mz.o
 .text._SYS_CLK_SystemClockSet
                0x00000000      0x18c build/pic32mz_ef_sk_meb2/debug/_ext/1847413222/sys_clk_pic32mz.o
 .text._SYS_CLK_ReferenceFrequencySet
                0x00000000      0x424 build/pic32mz_ef_sk_meb2/debug/_ext/1847413222/sys_clk_pic32mz.o
 .text._SYS_CLK_ReferenceClockSetup
                0x00000000       0x90 build/pic32mz_ef_sk_meb2/debug/_ext/1847413222/sys_clk_pic32mz.o
 .rodata        0x00000000       0x10 build/pic32mz_ef_sk_meb2/debug/_ext/1847413222/sys_clk_pic32mz.o
 .text          0x00000000        0x0 build/pic32mz_ef_sk_meb2/debug/_ext/924081491/sys_devcon.o
 .data          0x00000000        0x0 build/pic32mz_ef_sk_meb2/debug/_ext/924081491/sys_devcon.o
 .bss           0x00000000        0x0 build/pic32mz_ef_sk_meb2/debug/_ext/924081491/sys_devcon.o
 .reginfo       0x00000000       0x18 build/pic32mz_ef_sk_meb2/debug/_ext/924081491/sys_devcon.o
 .text.SYS_DEVCON_Reinitialize
                0x00000000       0x10 build/pic32mz_ef_sk_meb2/debug/_ext/924081491/sys_devcon.o
 .text.SYS_DEVCON_Deinitialize
                0x00000000        0x8 build/pic32mz_ef_sk_meb2/debug/_ext/924081491/sys_devcon.o
 .text.SYS_DEVCON_Status
                0x00000000        0x8 build/pic32mz_ef_sk_meb2/debug/_ext/924081491/sys_devcon.o
 .text.SYS_DEVCON_Tasks
                0x00000000        0x8 build/pic32mz_ef_sk_meb2/debug/_ext/924081491/sys_devcon.o
 .text.SYS_DEVCON_JTAGEnable
                0x00000000       0x18 build/pic32mz_ef_sk_meb2/debug/_ext/924081491/sys_devcon.o
 .text.SYS_DEVCON_JTAGDisable
                0x00000000       0x1c build/pic32mz_ef_sk_meb2/debug/_ext/924081491/sys_devcon.o
 .text.SYS_DEVCON_TraceEnable
                0x00000000       0x1c build/pic32mz_ef_sk_meb2/debug/_ext/924081491/sys_devcon.o
 .text.SYS_DEVCON_TraceDisable
                0x00000000       0x18 build/pic32mz_ef_sk_meb2/debug/_ext/924081491/sys_devcon.o
 .text.SYS_DEVCON_PowerModeEnter
                0x00000000       0x44 build/pic32mz_ef_sk_meb2/debug/_ext/924081491/sys_devcon.o
 .text          0x00000000        0x0 build/pic32mz_ef_sk_meb2/debug/_ext/924081491/sys_devcon_pic32mz.o
 .data          0x00000000        0x0 build/pic32mz_ef_sk_meb2/debug/_ext/924081491/sys_devcon_pic32mz.o
 .bss           0x00000000        0x0 build/pic32mz_ef_sk_meb2/debug/_ext/924081491/sys_devcon_pic32mz.o
 .reginfo       0x00000000       0x18 build/pic32mz_ef_sk_meb2/debug/_ext/924081491/sys_devcon_pic32mz.o
 .text.SYS_DEVCON_CacheInit
                0x00000000       0x24 build/pic32mz_ef_sk_meb2/debug/_ext/924081491/sys_devcon_pic32mz.o
 .text.SYS_DEVCON_CacheFlush
                0x00000000       0x24 build/pic32mz_ef_sk_meb2/debug/_ext/924081491/sys_devcon_pic32mz.o
 .text.SYS_DEVCON_DataCacheFlush
                0x00000000       0x24 build/pic32mz_ef_sk_meb2/debug/_ext/924081491/sys_devcon_pic32mz.o
 .text.SYS_DEVCON_InstructionCacheFlush
                0x00000000       0x24 build/pic32mz_ef_sk_meb2/debug/_ext/924081491/sys_devcon_pic32mz.o
 .text.SYS_DEVCON_CacheClean
                0x00000000       0x24 build/pic32mz_ef_sk_meb2/debug/_ext/924081491/sys_devcon_pic32mz.o
 .text.SYS_DEVCON_DataCacheClean
                0x00000000       0x24 build/pic32mz_ef_sk_meb2/debug/_ext/924081491/sys_devcon_pic32mz.o
 .text.SYS_DEVCON_DataCacheInvalidate
                0x00000000       0x24 build/pic32mz_ef_sk_meb2/debug/_ext/924081491/sys_devcon_pic32mz.o
 .text.SYS_DEVCON_InstructionCacheInvalidate
                0x00000000       0x24 build/pic32mz_ef_sk_meb2/debug/_ext/924081491/sys_devcon_pic32mz.o
 .text.SYS_DEVCON_InstructionCacheLock
                0x00000000       0x24 build/pic32mz_ef_sk_meb2/debug/_ext/924081491/sys_devcon_pic32mz.o
 .text.SYS_DEVCON_DataCacheLock
                0x00000000       0x24 build/pic32mz_ef_sk_meb2/debug/_ext/924081491/sys_devcon_pic32mz.o
 .text.SYS_DEVCON_CacheSync
                0x00000000       0x24 build/pic32mz_ef_sk_meb2/debug/_ext/924081491/sys_devcon_pic32mz.o
 .text.SYS_DEVCON_CacheCoherencySet
                0x00000000       0x2c build/pic32mz_ef_sk_meb2/debug/_ext/924081491/sys_devcon_pic32mz.o
 .text.SYS_DEVCON_CacheCoherencyGet
                0x00000000       0x1c build/pic32mz_ef_sk_meb2/debug/_ext/924081491/sys_devcon_pic32mz.o
 .text.SYS_DEVCON_DataCacheAssociativityGet
                0x00000000       0x24 build/pic32mz_ef_sk_meb2/debug/_ext/924081491/sys_devcon_pic32mz.o
 .text.SYS_DEVCON_InstructionCacheAssociativityGet
                0x00000000       0x24 build/pic32mz_ef_sk_meb2/debug/_ext/924081491/sys_devcon_pic32mz.o
 .text.SYS_DEVCON_DataCacheLineSizeGet
                0x00000000       0x24 build/pic32mz_ef_sk_meb2/debug/_ext/924081491/sys_devcon_pic32mz.o
 .text.SYS_DEVCON_InstructionCacheLineSizeGet
                0x00000000       0x24 build/pic32mz_ef_sk_meb2/debug/_ext/924081491/sys_devcon_pic32mz.o
 .text.SYS_DEVCON_DataCacheLinesPerWayGet
                0x00000000       0x24 build/pic32mz_ef_sk_meb2/debug/_ext/924081491/sys_devcon_pic32mz.o
 .text.SYS_DEVCON_InstructionCacheLinesPerWayGet
                0x00000000       0x24 build/pic32mz_ef_sk_meb2/debug/_ext/924081491/sys_devcon_pic32mz.o
 .text.SYS_DEVCON_DataCacheSizeGet
                0x00000000       0x24 build/pic32mz_ef_sk_meb2/debug/_ext/924081491/sys_devcon_pic32mz.o
 .text.SYS_DEVCON_InstructionCacheSizeGet
                0x00000000       0x24 build/pic32mz_ef_sk_meb2/debug/_ext/924081491/sys_devcon_pic32mz.o
 .text          0x00000000      0x6bc build/pic32mz_ef_sk_meb2/debug/_ext/924081491/sys_devcon_cache_pic32mz.o
 .data          0x00000000        0x0 build/pic32mz_ef_sk_meb2/debug/_ext/924081491/sys_devcon_cache_pic32mz.o
 .bss           0x00000000        0x0 build/pic32mz_ef_sk_meb2/debug/_ext/924081491/sys_devcon_cache_pic32mz.o
 .reginfo       0x00000000       0x18 build/pic32mz_ef_sk_meb2/debug/_ext/924081491/sys_devcon_cache_pic32mz.o
 .debug_line    0x00000000      0x22b build/pic32mz_ef_sk_meb2/debug/_ext/924081491/sys_devcon_cache_pic32mz.o
 .debug_info    0x00000000       0xda build/pic32mz_ef_sk_meb2/debug/_ext/924081491/sys_devcon_cache_pic32mz.o
 .debug_abbrev  0x00000000       0x14 build/pic32mz_ef_sk_meb2/debug/_ext/924081491/sys_devcon_cache_pic32mz.o
 .debug_aranges
                0x00000000       0x20 build/pic32mz_ef_sk_meb2/debug/_ext/924081491/sys_devcon_cache_pic32mz.o
 .text          0x00000000        0x0 build/pic32mz_ef_sk_meb2/debug/_ext/50030870/sys_ports_static.o
 .data          0x00000000        0x0 build/pic32mz_ef_sk_meb2/debug/_ext/50030870/sys_ports_static.o
 .bss           0x00000000        0x0 build/pic32mz_ef_sk_meb2/debug/_ext/50030870/sys_ports_static.o
 .reginfo       0x00000000       0x18 build/pic32mz_ef_sk_meb2/debug/_ext/50030870/sys_ports_static.o
 .text.SYS_PORTS_Read
                0x00000000       0x24 build/pic32mz_ef_sk_meb2/debug/_ext/50030870/sys_ports_static.o
 .text.SYS_PORTS_Write
                0x00000000       0x28 build/pic32mz_ef_sk_meb2/debug/_ext/50030870/sys_ports_static.o
 .text.SYS_PORTS_Set
                0x00000000       0x30 build/pic32mz_ef_sk_meb2/debug/_ext/50030870/sys_ports_static.o
 .text.SYS_PORTS_Clear
                0x00000000       0x2c build/pic32mz_ef_sk_meb2/debug/_ext/50030870/sys_ports_static.o
 .text.SYS_PORTS_DirectionSelect
                0x00000000       0x5c build/pic32mz_ef_sk_meb2/debug/_ext/50030870/sys_ports_static.o
 .text.SYS_PORTS_DirectionGet
                0x00000000       0x24 build/pic32mz_ef_sk_meb2/debug/_ext/50030870/sys_ports_static.o
 .text.SYS_PORTS_Toggle
                0x00000000       0x2c build/pic32mz_ef_sk_meb2/debug/_ext/50030870/sys_ports_static.o
 .text.SYS_PORTS_OpenDrainEnable
                0x00000000       0x2c build/pic32mz_ef_sk_meb2/debug/_ext/50030870/sys_ports_static.o
 .text.SYS_PORTS_OpenDrainDisable
                0x00000000       0x2c build/pic32mz_ef_sk_meb2/debug/_ext/50030870/sys_ports_static.o
 .text.SYS_PORTS_ChangeNotificationGlobalEnable
                0x00000000        0x8 build/pic32mz_ef_sk_meb2/debug/_ext/50030870/sys_ports_static.o
 .text.SYS_PORTS_ChangeNotificationGlobalDisable
                0x00000000        0x8 build/pic32mz_ef_sk_meb2/debug/_ext/50030870/sys_ports_static.o
 .text.SYS_PORTS_GlobalChangeNotificationDisable
                0x00000000        0x8 build/pic32mz_ef_sk_meb2/debug/_ext/50030870/sys_ports_static.o
 .text.SYS_PORTS_ChangeNotificationEnable
                0x00000000        0x8 build/pic32mz_ef_sk_meb2/debug/_ext/50030870/sys_ports_static.o
 .text.SYS_PORTS_ChangeNotificationDisable
                0x00000000        0x8 build/pic32mz_ef_sk_meb2/debug/_ext/50030870/sys_ports_static.o
 .text.SYS_PORTS_ChangeNotificationInIdleModeEnable
                0x00000000        0x8 build/pic32mz_ef_sk_meb2/debug/_ext/50030870/sys_ports_static.o
 .text.SYS_PORTS_ChangeNotificationInIdleModeDisable
                0x00000000        0x8 build/pic32mz_ef_sk_meb2/debug/_ext/50030870/sys_ports_static.o
 .text.SYS_PORTS_ChangeNotificationPullUpEnable
                0x00000000        0x8 build/pic32mz_ef_sk_meb2/debug/_ext/50030870/sys_ports_static.o
 .text.SYS_PORTS_ChangeNotificationPullUpDisable
                0x00000000        0x8 build/pic32mz_ef_sk_meb2/debug/_ext/50030870/sys_ports_static.o
 .text.SYS_PORTS_PinModeSelect
                0x00000000       0x64 build/pic32mz_ef_sk_meb2/debug/_ext/50030870/sys_ports_static.o
 .text.SYS_PORTS_PinWrite
                0x00000000       0x64 build/pic32mz_ef_sk_meb2/debug/_ext/50030870/sys_ports_static.o
 .text.SYS_PORTS_PinRead
                0x00000000       0x28 build/pic32mz_ef_sk_meb2/debug/_ext/50030870/sys_ports_static.o
 .text.SYS_PORTS_PinToggle
                0x00000000       0x30 build/pic32mz_ef_sk_meb2/debug/_ext/50030870/sys_ports_static.o
 .text.SYS_PORTS_PinSet
                0x00000000       0x30 build/pic32mz_ef_sk_meb2/debug/_ext/50030870/sys_ports_static.o
 .text.SYS_PORTS_PinClear
                0x00000000       0x30 build/pic32mz_ef_sk_meb2/debug/_ext/50030870/sys_ports_static.o
 .text.SYS_PORTS_PinDirectionSelect
                0x00000000       0x60 build/pic32mz_ef_sk_meb2/debug/_ext/50030870/sys_ports_static.o
 .text.SYS_PORTS_PinOpenDrainEnable
                0x00000000       0x30 build/pic32mz_ef_sk_meb2/debug/_ext/50030870/sys_ports_static.o
 .text.SYS_PORTS_PinOpenDrainDisable
                0x00000000       0x30 build/pic32mz_ef_sk_meb2/debug/_ext/50030870/sys_ports_static.o
 .text.SYS_PORTS_RemapInput
                0x00000000       0x64 build/pic32mz_ef_sk_meb2/debug/_ext/50030870/sys_ports_static.o
 .text.SYS_PORTS_RemapOutput
                0x00000000       0x70 build/pic32mz_ef_sk_meb2/debug/_ext/50030870/sys_ports_static.o
 .text          0x00000000        0x0 build/pic32mz_ef_sk_meb2/debug/_ext/1465531745/bsp.o
 .data          0x00000000        0x0 build/pic32mz_ef_sk_meb2/debug/_ext/1465531745/bsp.o
 .bss           0x00000000        0x0 build/pic32mz_ef_sk_meb2/debug/_ext/1465531745/bsp.o
 .reginfo       0x00000000       0x18 build/pic32mz_ef_sk_meb2/debug/_ext/1465531745/bsp.o
 .text.BSP_SwitchStateGet
                0x00000000       0x44 build/pic32mz_ef_sk_meb2/debug/_ext/1465531745/bsp.o
 .text.BSP_LEDStateSet
                0x00000000      0x114 build/pic32mz_ef_sk_meb2/debug/_ext/1465531745/bsp.o
 .text.BSP_LEDToggle
                0x00000000       0x4c build/pic32mz_ef_sk_meb2/debug/_ext/1465531745/bsp.o
 .text.BSP_LEDStateGet
                0x00000000       0x58 build/pic32mz_ef_sk_meb2/debug/_ext/1465531745/bsp.o
 .text.BSP_LEDOn
                0x00000000       0xac build/pic32mz_ef_sk_meb2/debug/_ext/1465531745/bsp.o
 .text.BSP_USBVBUSSwitchStateSet
                0x00000000       0x28 build/pic32mz_ef_sk_meb2/debug/_ext/1465531745/bsp.o
 .text.BSP_USBVBUSSwitchOverCurrentDetect
                0x00000000        0x8 build/pic32mz_ef_sk_meb2/debug/_ext/1465531745/bsp.o
 .text.BSP_USBVBUSPowerEnable
                0x00000000       0x2c build/pic32mz_ef_sk_meb2/debug/_ext/1465531745/bsp.o
 .text          0x00000000        0x0 build/pic32mz_ef_sk_meb2/debug/_ext/1951523377/system_init.o
 .data          0x00000000        0x0 build/pic32mz_ef_sk_meb2/debug/_ext/1951523377/system_init.o
 .bss           0x00000000        0x0 build/pic32mz_ef_sk_meb2/debug/_ext/1951523377/system_init.o
 .reginfo       0x00000000       0x18 build/pic32mz_ef_sk_meb2/debug/_ext/1951523377/system_init.o
 .text          0x00000000        0x0 build/pic32mz_ef_sk_meb2/debug/_ext/1951523377/system_interrupt.o
 .data          0x00000000        0x0 build/pic32mz_ef_sk_meb2/debug/_ext/1951523377/system_interrupt.o
 .bss           0x00000000        0x0 build/pic32mz_ef_sk_meb2/debug/_ext/1951523377/system_interrupt.o
 .reginfo       0x00000000       0x18 build/pic32mz_ef_sk_meb2/debug/_ext/1951523377/system_interrupt.o
 .text          0x00000000        0x0 build/pic32mz_ef_sk_meb2/debug/_ext/1951523377/system_exceptions.o
 .data          0x00000000        0x0 build/pic32mz_ef_sk_meb2/debug/_ext/1951523377/system_exceptions.o
 .bss           0x00000000        0x0 build/pic32mz_ef_sk_meb2/debug/_ext/1951523377/system_exceptions.o
 .reginfo       0x00000000       0x18 build/pic32mz_ef_sk_meb2/debug/_ext/1951523377/system_exceptions.o
 .text          0x00000000        0x0 build/pic32mz_ef_sk_meb2/debug/_ext/1951523377/system_tasks.o
 .data          0x00000000        0x0 build/pic32mz_ef_sk_meb2/debug/_ext/1951523377/system_tasks.o
 .bss           0x00000000        0x0 build/pic32mz_ef_sk_meb2/debug/_ext/1951523377/system_tasks.o
 .reginfo       0x00000000       0x18 build/pic32mz_ef_sk_meb2/debug/_ext/1951523377/system_tasks.o
 .text          0x00000000        0x0 build/pic32mz_ef_sk_meb2/debug/_ext/715821942/gfx_assets.o
 .bss           0x00000000        0x0 build/pic32mz_ef_sk_meb2/debug/_ext/715821942/gfx_assets.o
 .reginfo       0x00000000       0x18 build/pic32mz_ef_sk_meb2/debug/_ext/715821942/gfx_assets.o
 .text          0x00000000        0x0 c:/program files (x86)/microchip/xc32/v1.42/bin/bin/../../lib/gcc/pic32mx/4.8.3/../../../../pic32mx/lib/./proc/32MZ2048ECM144\default_isr_vectors.o
 .data          0x00000000        0x0 c:/program files (x86)/microchip/xc32/v1.42/bin/bin/../../lib/gcc/pic32mx/4.8.3/../../../../pic32mx/lib/./proc/32MZ2048ECM144\default_isr_vectors.o
 .bss           0x00000000        0x0 c:/program files (x86)/microchip/xc32/v1.42/bin/bin/../../lib/gcc/pic32mx/4.8.3/../../../../pic32mx/lib/./proc/32MZ2048ECM144\default_isr_vectors.o
 .reginfo       0x00000000       0x18 c:/program files (x86)/microchip/xc32/v1.42/bin/bin/../../lib/gcc/pic32mx/4.8.3/../../../../pic32mx/lib/./proc/32MZ2048ECM144\default_isr_vectors.o
 .discard       0x00000000        0x4 c:/program files (x86)/microchip/xc32/v1.42/bin/bin/../../lib/gcc/pic32mx/4.8.3/../../../../pic32mx/lib/./proc/32MZ2048ECM144\default_isr_vectors.o
 .data          0x00000000        0x0 c:/program files (x86)/microchip/xc32/v1.42/bin/bin/../../lib/gcc/pic32mx/4.8.3/../../../../pic32mx/lib\pic32_software_reset.o
 .bss           0x00000000        0x0 c:/program files (x86)/microchip/xc32/v1.42/bin/bin/../../lib/gcc/pic32mx/4.8.3/../../../../pic32mx/lib\pic32_software_reset.o
 .reginfo       0x00000000       0x18 c:/program files (x86)/microchip/xc32/v1.42/bin/bin/../../lib/gcc/pic32mx/4.8.3/../../../../pic32mx/lib\pic32_software_reset.o
 .text          0x00000000        0x0 c:/program files (x86)/microchip/xc32/v1.42/bin/bin/../../lib/gcc/pic32mx/4.8.3/../../../../pic32mx/lib/./proc/32MZ2048ECM144\processor.o
 .data          0x00000000        0x0 c:/program files (x86)/microchip/xc32/v1.42/bin/bin/../../lib/gcc/pic32mx/4.8.3/../../../../pic32mx/lib/./proc/32MZ2048ECM144\processor.o
 .bss           0x00000000        0x0 c:/program files (x86)/microchip/xc32/v1.42/bin/bin/../../lib/gcc/pic32mx/4.8.3/../../../../pic32mx/lib/./proc/32MZ2048ECM144\processor.o
 .reginfo       0x00000000       0x18 c:/program files (x86)/microchip/xc32/v1.42/bin/bin/../../lib/gcc/pic32mx/4.8.3/../../../../pic32mx/lib/./proc/32MZ2048ECM144\processor.o
 .text          0x00000000        0x0 c:/program files (x86)/microchip/xc32/v1.42/bin/bin/../../lib/gcc/pic32mx/4.8.3/../../../../pic32mx/lib/./proc/32MZ2048ECM144\vector_offset_init.o
 .data          0x00000000        0x0 c:/program files (x86)/microchip/xc32/v1.42/bin/bin/../../lib/gcc/pic32mx/4.8.3/../../../../pic32mx/lib/./proc/32MZ2048ECM144\vector_offset_init.o
 .bss           0x00000000        0x0 c:/program files (x86)/microchip/xc32/v1.42/bin/bin/../../lib/gcc/pic32mx/4.8.3/../../../../pic32mx/lib/./proc/32MZ2048ECM144\vector_offset_init.o
 .reginfo       0x00000000       0x18 c:/program files (x86)/microchip/xc32/v1.42/bin/bin/../../lib/gcc/pic32mx/4.8.3/../../../../pic32mx/lib/./proc/32MZ2048ECM144\vector_offset_init.o
 .data          0x00000000        0x0 c:/program files (x86)/microchip/xc32/v1.42/bin/bin/../../lib/gcc/pic32mx/4.8.3\libgcc.a(floatunsisf.o)
 .bss           0x00000000        0x0 c:/program files (x86)/microchip/xc32/v1.42/bin/bin/../../lib/gcc/pic32mx/4.8.3\libgcc.a(floatunsisf.o)
 .reginfo       0x00000000       0x18 c:/program files (x86)/microchip/xc32/v1.42/bin/bin/../../lib/gcc/pic32mx/4.8.3\libgcc.a(floatunsisf.o)
 .data          0x00000000        0x0 c:/program files (x86)/microchip/xc32/v1.42/bin/bin/../../lib/gcc/pic32mx/4.8.3/../../../../pic32mx/lib\libpic32.a(memcpy.o)
 .bss           0x00000000        0x0 c:/program files (x86)/microchip/xc32/v1.42/bin/bin/../../lib/gcc/pic32mx/4.8.3/../../../../pic32mx/lib\libpic32.a(memcpy.o)
 .reginfo       0x00000000       0x18 c:/program files (x86)/microchip/xc32/v1.42/bin/bin/../../lib/gcc/pic32mx/4.8.3/../../../../pic32mx/lib\libpic32.a(memcpy.o)
 .data          0x00000000        0x0 c:/program files (x86)/microchip/xc32/v1.42/bin/bin/../../lib/gcc/pic32mx/4.8.3/../../../../pic32mx/lib\libpic32.a(memset.o)
 .bss           0x00000000        0x0 c:/program files (x86)/microchip/xc32/v1.42/bin/bin/../../lib/gcc/pic32mx/4.8.3/../../../../pic32mx/lib\libpic32.a(memset.o)
 .reginfo       0x00000000       0x18 c:/program files (x86)/microchip/xc32/v1.42/bin/bin/../../lib/gcc/pic32mx/4.8.3/../../../../pic32mx/lib\libpic32.a(memset.o)
 .text          0x00000000      0x120 c:/program files (x86)/microchip/xc32/v1.42/bin/bin/../../lib/gcc/pic32mx/4.8.3/../../../../pic32mx/lib\libpic32.a(strcmp.o)
 .data          0x00000000        0x0 c:/program files (x86)/microchip/xc32/v1.42/bin/bin/../../lib/gcc/pic32mx/4.8.3/../../../../pic32mx/lib\libpic32.a(strcmp.o)
 .bss           0x00000000        0x0 c:/program files (x86)/microchip/xc32/v1.42/bin/bin/../../lib/gcc/pic32mx/4.8.3/../../../../pic32mx/lib\libpic32.a(strcmp.o)
 .reginfo       0x00000000       0x18 c:/program files (x86)/microchip/xc32/v1.42/bin/bin/../../lib/gcc/pic32mx/4.8.3/../../../../pic32mx/lib\libpic32.a(strcmp.o)
 .comment       0x00000000       0x1a c:/program files (x86)/microchip/xc32/v1.42/bin/bin/../../lib/gcc/pic32mx/4.8.3/../../../../pic32mx/lib\libpic32.a(strcmp.o)
 .data          0x00000000        0x0 c:/program files (x86)/microchip/xc32/v1.42/bin/bin/../../lib/gcc/pic32mx/4.8.3/../../../../pic32mx/lib\libpic32.a(strcpy.o)
 .bss           0x00000000        0x0 c:/program files (x86)/microchip/xc32/v1.42/bin/bin/../../lib/gcc/pic32mx/4.8.3/../../../../pic32mx/lib\libpic32.a(strcpy.o)
 .reginfo       0x00000000       0x18 c:/program files (x86)/microchip/xc32/v1.42/bin/bin/../../lib/gcc/pic32mx/4.8.3/../../../../pic32mx/lib\libpic32.a(strcpy.o)
 .data          0x00000000        0x0 c:/program files (x86)/microchip/xc32/v1.42/bin/bin/../../lib/gcc/pic32mx/4.8.3/../../../../pic32mx/lib\libpic32.a(strlen.o)
 .bss           0x00000000        0x0 c:/program files (x86)/microchip/xc32/v1.42/bin/bin/../../lib/gcc/pic32mx/4.8.3/../../../../pic32mx/lib\libpic32.a(strlen.o)
 .reginfo       0x00000000       0x18 c:/program files (x86)/microchip/xc32/v1.42/bin/bin/../../lib/gcc/pic32mx/4.8.3/../../../../pic32mx/lib\libpic32.a(strlen.o)
 .text          0x00000000        0x0 c:/program files (x86)/microchip/xc32/v1.42/bin/bin/../../lib/gcc/pic32mx/4.8.3/../../../../pic32mx/lib\libpic32.a(default-bootstrap-exception-handler.o)
 .data          0x00000000        0x0 c:/program files (x86)/microchip/xc32/v1.42/bin/bin/../../lib/gcc/pic32mx/4.8.3/../../../../pic32mx/lib\libpic32.a(default-bootstrap-exception-handler.o)
 .bss           0x00000000        0x0 c:/program files (x86)/microchip/xc32/v1.42/bin/bin/../../lib/gcc/pic32mx/4.8.3/../../../../pic32mx/lib\libpic32.a(default-bootstrap-exception-handler.o)
 .reginfo       0x00000000       0x18 c:/program files (x86)/microchip/xc32/v1.42/bin/bin/../../lib/gcc/pic32mx/4.8.3/../../../../pic32mx/lib\libpic32.a(default-bootstrap-exception-handler.o)
 .text          0x00000000        0x0 c:/program files (x86)/microchip/xc32/v1.42/bin/bin/../../lib/gcc/pic32mx/4.8.3/../../../../pic32mx/lib\libpic32.a(default-on-reset.o)
 .data          0x00000000        0x0 c:/program files (x86)/microchip/xc32/v1.42/bin/bin/../../lib/gcc/pic32mx/4.8.3/../../../../pic32mx/lib\libpic32.a(default-on-reset.o)
 .bss           0x00000000        0x0 c:/program files (x86)/microchip/xc32/v1.42/bin/bin/../../lib/gcc/pic32mx/4.8.3/../../../../pic32mx/lib\libpic32.a(default-on-reset.o)
 .reginfo       0x00000000       0x18 c:/program files (x86)/microchip/xc32/v1.42/bin/bin/../../lib/gcc/pic32mx/4.8.3/../../../../pic32mx/lib\libpic32.a(default-on-reset.o)
 .text          0x00000000        0x0 c:/program files (x86)/microchip/xc32/v1.42/bin/bin/../../lib/gcc/pic32mx/4.8.3/../../../../pic32mx/lib\libpic32.a(default-on-bootstrap.o)
 .data          0x00000000        0x0 c:/program files (x86)/microchip/xc32/v1.42/bin/bin/../../lib/gcc/pic32mx/4.8.3/../../../../pic32mx/lib\libpic32.a(default-on-bootstrap.o)
 .bss           0x00000000        0x0 c:/program files (x86)/microchip/xc32/v1.42/bin/bin/../../lib/gcc/pic32mx/4.8.3/../../../../pic32mx/lib\libpic32.a(default-on-bootstrap.o)
 .reginfo       0x00000000       0x18 c:/program files (x86)/microchip/xc32/v1.42/bin/bin/../../lib/gcc/pic32mx/4.8.3/../../../../pic32mx/lib\libpic32.a(default-on-bootstrap.o)
 .data          0x00000000        0x0 c:/program files (x86)/microchip/xc32/v1.42/bin/bin/../../lib/gcc/pic32mx/4.8.3/../../../../pic32mx/lib\libpic32.a(default-nmi-handler.o)
 .bss           0x00000000        0x0 c:/program files (x86)/microchip/xc32/v1.42/bin/bin/../../lib/gcc/pic32mx/4.8.3/../../../../pic32mx/lib\libpic32.a(default-nmi-handler.o)
 .reginfo       0x00000000       0x18 c:/program files (x86)/microchip/xc32/v1.42/bin/bin/../../lib/gcc/pic32mx/4.8.3/../../../../pic32mx/lib\libpic32.a(default-nmi-handler.o)
 .text          0x00000000        0x0 c:/program files (x86)/microchip/xc32/v1.42/bin/bin/../../lib/gcc/pic32mx/4.8.3/../../../../pic32mx/lib\libpic32.a(pic32_init_cache.o)
 .data          0x00000000        0x0 c:/program files (x86)/microchip/xc32/v1.42/bin/bin/../../lib/gcc/pic32mx/4.8.3/../../../../pic32mx/lib\libpic32.a(pic32_init_cache.o)
 .bss           0x00000000        0x0 c:/program files (x86)/microchip/xc32/v1.42/bin/bin/../../lib/gcc/pic32mx/4.8.3/../../../../pic32mx/lib\libpic32.a(pic32_init_cache.o)
 .reginfo       0x00000000       0x18 c:/program files (x86)/microchip/xc32/v1.42/bin/bin/../../lib/gcc/pic32mx/4.8.3/../../../../pic32mx/lib\libpic32.a(pic32_init_cache.o)
 .cache_init.pic32_size_cache
                0x00000000       0x58 c:/program files (x86)/microchip/xc32/v1.42/bin/bin/../../lib/gcc/pic32mx/4.8.3/../../../../pic32mx/lib\libpic32.a(pic32_init_cache.o)
 .text          0x00000000        0x0 c:/program files (x86)/microchip/xc32/v1.42/bin/bin/../../lib/gcc/pic32mx/4.8.3/../../../../pic32mx/lib\libpic32.a(pic32_init_tlb_ebi_sqi.o)
 .data          0x00000000        0x0 c:/program files (x86)/microchip/xc32/v1.42/bin/bin/../../lib/gcc/pic32mx/4.8.3/../../../../pic32mx/lib\libpic32.a(pic32_init_tlb_ebi_sqi.o)
 .bss           0x00000000        0x0 c:/program files (x86)/microchip/xc32/v1.42/bin/bin/../../lib/gcc/pic32mx/4.8.3/../../../../pic32mx/lib\libpic32.a(pic32_init_tlb_ebi_sqi.o)
 .reginfo       0x00000000       0x18 c:/program files (x86)/microchip/xc32/v1.42/bin/bin/../../lib/gcc/pic32mx/4.8.3/../../../../pic32mx/lib\libpic32.a(pic32_init_tlb_ebi_sqi.o)
 .text          0x00000000        0x0 c:/program files (x86)/microchip/xc32/v1.42/bin/bin/../../lib/gcc/pic32mx/4.8.3/../../../../pic32mx/lib\libpic32.a(general-exception.o)
 .data          0x00000000        0x0 c:/program files (x86)/microchip/xc32/v1.42/bin/bin/../../lib/gcc/pic32mx/4.8.3/../../../../pic32mx/lib\libpic32.a(general-exception.o)
 .bss           0x00000000        0x0 c:/program files (x86)/microchip/xc32/v1.42/bin/bin/../../lib/gcc/pic32mx/4.8.3/../../../../pic32mx/lib\libpic32.a(general-exception.o)
 .reginfo       0x00000000       0x18 c:/program files (x86)/microchip/xc32/v1.42/bin/bin/../../lib/gcc/pic32mx/4.8.3/../../../../pic32mx/lib\libpic32.a(general-exception.o)
 .text          0x00000000        0x0 c:/program files (x86)/microchip/xc32/v1.42/bin/bin/../../lib/gcc/pic32mx/4.8.3/../../../../pic32mx/lib\libpic32.a(cache-err-exception.o)
 .data          0x00000000        0x0 c:/program files (x86)/microchip/xc32/v1.42/bin/bin/../../lib/gcc/pic32mx/4.8.3/../../../../pic32mx/lib\libpic32.a(cache-err-exception.o)
 .bss           0x00000000        0x0 c:/program files (x86)/microchip/xc32/v1.42/bin/bin/../../lib/gcc/pic32mx/4.8.3/../../../../pic32mx/lib\libpic32.a(cache-err-exception.o)
 .reginfo       0x00000000       0x18 c:/program files (x86)/microchip/xc32/v1.42/bin/bin/../../lib/gcc/pic32mx/4.8.3/../../../../pic32mx/lib\libpic32.a(cache-err-exception.o)
 .text          0x00000000        0x0 c:/program files (x86)/microchip/xc32/v1.42/bin/bin/../../lib/gcc/pic32mx/4.8.3/../../../../pic32mx/lib\libpic32.a(simple-tlb-refill-exception.o)
 .data          0x00000000        0x0 c:/program files (x86)/microchip/xc32/v1.42/bin/bin/../../lib/gcc/pic32mx/4.8.3/../../../../pic32mx/lib\libpic32.a(simple-tlb-refill-exception.o)
 .bss           0x00000000        0x0 c:/program files (x86)/microchip/xc32/v1.42/bin/bin/../../lib/gcc/pic32mx/4.8.3/../../../../pic32mx/lib\libpic32.a(simple-tlb-refill-exception.o)
 .reginfo       0x00000000       0x18 c:/program files (x86)/microchip/xc32/v1.42/bin/bin/../../lib/gcc/pic32mx/4.8.3/../../../../pic32mx/lib\libpic32.a(simple-tlb-refill-exception.o)
 .text          0x00000000        0x0 c:/program files (x86)/microchip/xc32/v1.42/bin/bin/../../lib/gcc/pic32mx/4.8.3/../../../../pic32mx/lib\libpic32.a(defaultinterrupt.o)
 .data          0x00000000        0x0 c:/program files (x86)/microchip/xc32/v1.42/bin/bin/../../lib/gcc/pic32mx/4.8.3/../../../../pic32mx/lib\libpic32.a(defaultinterrupt.o)
 .bss           0x00000000        0x0 c:/program files (x86)/microchip/xc32/v1.42/bin/bin/../../lib/gcc/pic32mx/4.8.3/../../../../pic32mx/lib\libpic32.a(defaultinterrupt.o)
 .reginfo       0x00000000       0x18 c:/program files (x86)/microchip/xc32/v1.42/bin/bin/../../lib/gcc/pic32mx/4.8.3/../../../../pic32mx/lib\libpic32.a(defaultinterrupt.o)
 .text          0x00000000        0x0 c:/program files (x86)/microchip/xc32/v1.42/bin/bin/../../lib/gcc/pic32mx/4.8.3/../../../../pic32mx/lib\libpic32.a(default-cache-err-exception-handler.o)
 .data          0x00000000        0x0 c:/program files (x86)/microchip/xc32/v1.42/bin/bin/../../lib/gcc/pic32mx/4.8.3/../../../../pic32mx/lib\libpic32.a(default-cache-err-exception-handler.o)
 .bss           0x00000000        0x0 c:/program files (x86)/microchip/xc32/v1.42/bin/bin/../../lib/gcc/pic32mx/4.8.3/../../../../pic32mx/lib\libpic32.a(default-cache-err-exception-handler.o)
 .reginfo       0x00000000       0x18 c:/program files (x86)/microchip/xc32/v1.42/bin/bin/../../lib/gcc/pic32mx/4.8.3/../../../../pic32mx/lib\libpic32.a(default-cache-err-exception-handler.o)
 .text          0x00000000        0x0 c:/program files (x86)/microchip/xc32/v1.42/bin/bin/../../lib/gcc/pic32mx/4.8.3/../../../../pic32mx/lib\libpic32.a(default-simple-tlb-refill-exception-handler.o)
 .data          0x00000000        0x0 c:/program files (x86)/microchip/xc32/v1.42/bin/bin/../../lib/gcc/pic32mx/4.8.3/../../../../pic32mx/lib\libpic32.a(default-simple-tlb-refill-exception-handler.o)
 .bss           0x00000000        0x0 c:/program files (x86)/microchip/xc32/v1.42/bin/bin/../../lib/gcc/pic32mx/4.8.3/../../../../pic32mx/lib\libpic32.a(default-simple-tlb-refill-exception-handler.o)
 .reginfo       0x00000000       0x18 c:/program files (x86)/microchip/xc32/v1.42/bin/bin/../../lib/gcc/pic32mx/4.8.3/../../../../pic32mx/lib\libpic32.a(default-simple-tlb-refill-exception-handler.o)
 .text          0x00000000        0x0 c:/program files (x86)/microchip/xc32/v1.42/bin/bin/../../lib/gcc/pic32mx/4.8.3/../../../../pic32mx/lib\libm.a(fp32div.o)
 .data          0x00000000        0x0 c:/program files (x86)/microchip/xc32/v1.42/bin/bin/../../lib/gcc/pic32mx/4.8.3/../../../../pic32mx/lib\libm.a(fp32div.o)
 .bss           0x00000000        0x0 c:/program files (x86)/microchip/xc32/v1.42/bin/bin/../../lib/gcc/pic32mx/4.8.3/../../../../pic32mx/lib\libm.a(fp32div.o)
 .reginfo       0x00000000       0x18 c:/program files (x86)/microchip/xc32/v1.42/bin/bin/../../lib/gcc/pic32mx/4.8.3/../../../../pic32mx/lib\libm.a(fp32div.o)
 .text          0x00000000        0x0 c:/program files (x86)/microchip/xc32/v1.42/bin/bin/../../lib/gcc/pic32mx/4.8.3/../../../../pic32mx/lib\libm.a(fp32mul.o)
 .data          0x00000000        0x0 c:/program files (x86)/microchip/xc32/v1.42/bin/bin/../../lib/gcc/pic32mx/4.8.3/../../../../pic32mx/lib\libm.a(fp32mul.o)
 .bss           0x00000000        0x0 c:/program files (x86)/microchip/xc32/v1.42/bin/bin/../../lib/gcc/pic32mx/4.8.3/../../../../pic32mx/lib\libm.a(fp32mul.o)
 .reginfo       0x00000000       0x18 c:/program files (x86)/microchip/xc32/v1.42/bin/bin/../../lib/gcc/pic32mx/4.8.3/../../../../pic32mx/lib\libm.a(fp32mul.o)
 .text          0x00000000        0x0 c:/program files (x86)/microchip/xc32/v1.42/bin/bin/../../lib/gcc/pic32mx/4.8.3/../../../../pic32mx/lib\libm.a(fp32subadd.o)
 .data          0x00000000        0x0 c:/program files (x86)/microchip/xc32/v1.42/bin/bin/../../lib/gcc/pic32mx/4.8.3/../../../../pic32mx/lib\libm.a(fp32subadd.o)
 .bss           0x00000000        0x0 c:/program files (x86)/microchip/xc32/v1.42/bin/bin/../../lib/gcc/pic32mx/4.8.3/../../../../pic32mx/lib\libm.a(fp32subadd.o)
 .reginfo       0x00000000       0x18 c:/program files (x86)/microchip/xc32/v1.42/bin/bin/../../lib/gcc/pic32mx/4.8.3/../../../../pic32mx/lib\libm.a(fp32subadd.o)
 .text          0x00000000        0x0 c:/program files (x86)/microchip/xc32/v1.42/bin/bin/../../lib/gcc/pic32mx/4.8.3/../../../../pic32mx/lib\libm.a(fpcmp.o)
 .data          0x00000000        0x0 c:/program files (x86)/microchip/xc32/v1.42/bin/bin/../../lib/gcc/pic32mx/4.8.3/../../../../pic32mx/lib\libm.a(fpcmp.o)
 .bss           0x00000000        0x0 c:/program files (x86)/microchip/xc32/v1.42/bin/bin/../../lib/gcc/pic32mx/4.8.3/../../../../pic32mx/lib\libm.a(fpcmp.o)
 .reginfo       0x00000000       0x18 c:/program files (x86)/microchip/xc32/v1.42/bin/bin/../../lib/gcc/pic32mx/4.8.3/../../../../pic32mx/lib\libm.a(fpcmp.o)
 .text.fpcmp    0x00000000       0x9c c:/program files (x86)/microchip/xc32/v1.42/bin/bin/../../lib/gcc/pic32mx/4.8.3/../../../../pic32mx/lib\libm.a(fpcmp.o)
 .text          0x00000000        0x0 c:/program files (x86)/microchip/xc32/v1.42/bin/bin/../../lib/gcc/pic32mx/4.8.3/../../../../pic32mx/lib\libm.a(fptoul.o)
 .data          0x00000000        0x0 c:/program files (x86)/microchip/xc32/v1.42/bin/bin/../../lib/gcc/pic32mx/4.8.3/../../../../pic32mx/lib\libm.a(fptoul.o)
 .bss           0x00000000        0x0 c:/program files (x86)/microchip/xc32/v1.42/bin/bin/../../lib/gcc/pic32mx/4.8.3/../../../../pic32mx/lib\libm.a(fptoul.o)
 .reginfo       0x00000000       0x18 c:/program files (x86)/microchip/xc32/v1.42/bin/bin/../../lib/gcc/pic32mx/4.8.3/../../../../pic32mx/lib\libm.a(fptoul.o)
 .text          0x00000000        0x0 c:/program files (x86)/microchip/xc32/v1.42/bin/bin/../../lib/gcc/pic32mx/4.8.3/../../../../pic32mx/lib\libm.a(sitofp.o)
 .data          0x00000000        0x0 c:/program files (x86)/microchip/xc32/v1.42/bin/bin/../../lib/gcc/pic32mx/4.8.3/../../../../pic32mx/lib\libm.a(sitofp.o)
 .bss           0x00000000        0x0 c:/program files (x86)/microchip/xc32/v1.42/bin/bin/../../lib/gcc/pic32mx/4.8.3/../../../../pic32mx/lib\libm.a(sitofp.o)
 .reginfo       0x00000000       0x18 c:/program files (x86)/microchip/xc32/v1.42/bin/bin/../../lib/gcc/pic32mx/4.8.3/../../../../pic32mx/lib\libm.a(sitofp.o)
 .text          0x00000000        0x0 c:/program files (x86)/microchip/xc32/v1.42/bin/bin/../../lib/gcc/pic32mx/4.8.3/../../../../pic32mx/lib\libc.a(fclose.o)
 .data          0x00000000        0x0 c:/program files (x86)/microchip/xc32/v1.42/bin/bin/../../lib/gcc/pic32mx/4.8.3/../../../../pic32mx/lib\libc.a(fclose.o)
 .bss           0x00000000        0x0 c:/program files (x86)/microchip/xc32/v1.42/bin/bin/../../lib/gcc/pic32mx/4.8.3/../../../../pic32mx/lib\libc.a(fclose.o)
 .reginfo       0x00000000       0x18 c:/program files (x86)/microchip/xc32/v1.42/bin/bin/../../lib/gcc/pic32mx/4.8.3/../../../../pic32mx/lib\libc.a(fclose.o)
 .text.fclose   0x00000000      0x118 c:/program files (x86)/microchip/xc32/v1.42/bin/bin/../../lib/gcc/pic32mx/4.8.3/../../../../pic32mx/lib\libc.a(fclose.o)
 .text          0x00000000        0x0 c:/program files (x86)/microchip/xc32/v1.42/bin/bin/../../lib/gcc/pic32mx/4.8.3/../../../../pic32mx/lib\libc.a(fflush.o)
 .data          0x00000000        0x0 c:/program files (x86)/microchip/xc32/v1.42/bin/bin/../../lib/gcc/pic32mx/4.8.3/../../../../pic32mx/lib\libc.a(fflush.o)
 .bss           0x00000000        0x0 c:/program files (x86)/microchip/xc32/v1.42/bin/bin/../../lib/gcc/pic32mx/4.8.3/../../../../pic32mx/lib\libc.a(fflush.o)
 .reginfo       0x00000000       0x18 c:/program files (x86)/microchip/xc32/v1.42/bin/bin/../../lib/gcc/pic32mx/4.8.3/../../../../pic32mx/lib\libc.a(fflush.o)
 .text.fflush   0x00000000       0xa0 c:/program files (x86)/microchip/xc32/v1.42/bin/bin/../../lib/gcc/pic32mx/4.8.3/../../../../pic32mx/lib\libc.a(fflush.o)
 .text          0x00000000        0x0 c:/program files (x86)/microchip/xc32/v1.42/bin/bin/../../lib/gcc/pic32mx/4.8.3/../../../../pic32mx/lib\libc.a(fopen.o)
 .data          0x00000000        0x0 c:/program files (x86)/microchip/xc32/v1.42/bin/bin/../../lib/gcc/pic32mx/4.8.3/../../../../pic32mx/lib\libc.a(fopen.o)
 .bss           0x00000000        0x0 c:/program files (x86)/microchip/xc32/v1.42/bin/bin/../../lib/gcc/pic32mx/4.8.3/../../../../pic32mx/lib\libc.a(fopen.o)
 .reginfo       0x00000000       0x18 c:/program files (x86)/microchip/xc32/v1.42/bin/bin/../../lib/gcc/pic32mx/4.8.3/../../../../pic32mx/lib\libc.a(fopen.o)
 .text.fopen    0x00000000       0x4c c:/program files (x86)/microchip/xc32/v1.42/bin/bin/../../lib/gcc/pic32mx/4.8.3/../../../../pic32mx/lib\libc.a(fopen.o)
 .text          0x00000000        0x0 c:/program files (x86)/microchip/xc32/v1.42/bin/bin/../../lib/gcc/pic32mx/4.8.3/../../../../pic32mx/lib\libc.a(fread.o)
 .data          0x00000000        0x0 c:/program files (x86)/microchip/xc32/v1.42/bin/bin/../../lib/gcc/pic32mx/4.8.3/../../../../pic32mx/lib\libc.a(fread.o)
 .bss           0x00000000        0x0 c:/program files (x86)/microchip/xc32/v1.42/bin/bin/../../lib/gcc/pic32mx/4.8.3/../../../../pic32mx/lib\libc.a(fread.o)
 .reginfo       0x00000000       0x18 c:/program files (x86)/microchip/xc32/v1.42/bin/bin/../../lib/gcc/pic32mx/4.8.3/../../../../pic32mx/lib\libc.a(fread.o)
 .text.fread    0x00000000      0x188 c:/program files (x86)/microchip/xc32/v1.42/bin/bin/../../lib/gcc/pic32mx/4.8.3/../../../../pic32mx/lib\libc.a(fread.o)
 .text          0x00000000        0x0 c:/program files (x86)/microchip/xc32/v1.42/bin/bin/../../lib/gcc/pic32mx/4.8.3/../../../../pic32mx/lib\libc.a(freopen.o)
 .data          0x00000000        0x0 c:/program files (x86)/microchip/xc32/v1.42/bin/bin/../../lib/gcc/pic32mx/4.8.3/../../../../pic32mx/lib\libc.a(freopen.o)
 .bss           0x00000000        0x0 c:/program files (x86)/microchip/xc32/v1.42/bin/bin/../../lib/gcc/pic32mx/4.8.3/../../../../pic32mx/lib\libc.a(freopen.o)
 .reginfo       0x00000000       0x18 c:/program files (x86)/microchip/xc32/v1.42/bin/bin/../../lib/gcc/pic32mx/4.8.3/../../../../pic32mx/lib\libc.a(freopen.o)
 .text.freopen  0x00000000      0x238 c:/program files (x86)/microchip/xc32/v1.42/bin/bin/../../lib/gcc/pic32mx/4.8.3/../../../../pic32mx/lib\libc.a(freopen.o)
 .text          0x00000000        0x0 c:/program files (x86)/microchip/xc32/v1.42/bin/bin/../../lib/gcc/pic32mx/4.8.3/../../../../pic32mx/lib\libc.a(fseek.o)
 .data          0x00000000        0x0 c:/program files (x86)/microchip/xc32/v1.42/bin/bin/../../lib/gcc/pic32mx/4.8.3/../../../../pic32mx/lib\libc.a(fseek.o)
 .bss           0x00000000        0x0 c:/program files (x86)/microchip/xc32/v1.42/bin/bin/../../lib/gcc/pic32mx/4.8.3/../../../../pic32mx/lib\libc.a(fseek.o)
 .reginfo       0x00000000       0x18 c:/program files (x86)/microchip/xc32/v1.42/bin/bin/../../lib/gcc/pic32mx/4.8.3/../../../../pic32mx/lib\libc.a(fseek.o)
 .text.ftell    0x00000000       0x74 c:/program files (x86)/microchip/xc32/v1.42/bin/bin/../../lib/gcc/pic32mx/4.8.3/../../../../pic32mx/lib\libc.a(fseek.o)
 .text.fseek    0x00000000      0x1ac c:/program files (x86)/microchip/xc32/v1.42/bin/bin/../../lib/gcc/pic32mx/4.8.3/../../../../pic32mx/lib\libc.a(fseek.o)
 .text          0x00000000        0x0 c:/program files (x86)/microchip/xc32/v1.42/bin/bin/../../lib/gcc/pic32mx/4.8.3/../../../../pic32mx/lib\libc.a(fwrite.o)
 .data          0x00000000        0x0 c:/program files (x86)/microchip/xc32/v1.42/bin/bin/../../lib/gcc/pic32mx/4.8.3/../../../../pic32mx/lib\libc.a(fwrite.o)
 .bss           0x00000000        0x0 c:/program files (x86)/microchip/xc32/v1.42/bin/bin/../../lib/gcc/pic32mx/4.8.3/../../../../pic32mx/lib\libc.a(fwrite.o)
 .reginfo       0x00000000       0x18 c:/program files (x86)/microchip/xc32/v1.42/bin/bin/../../lib/gcc/pic32mx/4.8.3/../../../../pic32mx/lib\libc.a(fwrite.o)
 .text.fwrite   0x00000000      0x214 c:/program files (x86)/microchip/xc32/v1.42/bin/bin/../../lib/gcc/pic32mx/4.8.3/../../../../pic32mx/lib\libc.a(fwrite.o)
 .text          0x00000000        0x0 c:/program files (x86)/microchip/xc32/v1.42/bin/bin/../../lib/gcc/pic32mx/4.8.3/../../../../pic32mx/lib\libc.a(buf.o)
 .data          0x00000000        0x0 c:/program files (x86)/microchip/xc32/v1.42/bin/bin/../../lib/gcc/pic32mx/4.8.3/../../../../pic32mx/lib\libc.a(buf.o)
 .bss           0x00000000        0x4 c:/program files (x86)/microchip/xc32/v1.42/bin/bin/../../lib/gcc/pic32mx/4.8.3/../../../../pic32mx/lib\libc.a(buf.o)
 .reginfo       0x00000000       0x18 c:/program files (x86)/microchip/xc32/v1.42/bin/bin/../../lib/gcc/pic32mx/4.8.3/../../../../pic32mx/lib\libc.a(buf.o)
 .text._bufallo
                0x00000000       0x5c c:/program files (x86)/microchip/xc32/v1.42/bin/bin/../../lib/gcc/pic32mx/4.8.3/../../../../pic32mx/lib\libc.a(buf.o)
 .text._buffree
                0x00000000       0x14 c:/program files (x86)/microchip/xc32/v1.42/bin/bin/../../lib/gcc/pic32mx/4.8.3/../../../../pic32mx/lib\libc.a(buf.o)
 .text          0x00000000        0x0 c:/program files (x86)/microchip/xc32/v1.42/bin/bin/../../lib/gcc/pic32mx/4.8.3/../../../../pic32mx/lib\libc.a(calloc.o)
 .data          0x00000000        0x0 c:/program files (x86)/microchip/xc32/v1.42/bin/bin/../../lib/gcc/pic32mx/4.8.3/../../../../pic32mx/lib\libc.a(calloc.o)
 .bss           0x00000000        0x0 c:/program files (x86)/microchip/xc32/v1.42/bin/bin/../../lib/gcc/pic32mx/4.8.3/../../../../pic32mx/lib\libc.a(calloc.o)
 .reginfo       0x00000000       0x18 c:/program files (x86)/microchip/xc32/v1.42/bin/bin/../../lib/gcc/pic32mx/4.8.3/../../../../pic32mx/lib\libc.a(calloc.o)
 .text          0x00000000        0x0 c:/program files (x86)/microchip/xc32/v1.42/bin/bin/../../lib/gcc/pic32mx/4.8.3/../../../../pic32mx/lib\libc.a(errno.o)
 .data          0x00000000        0x0 c:/program files (x86)/microchip/xc32/v1.42/bin/bin/../../lib/gcc/pic32mx/4.8.3/../../../../pic32mx/lib\libc.a(errno.o)
 .bss           0x00000000        0x0 c:/program files (x86)/microchip/xc32/v1.42/bin/bin/../../lib/gcc/pic32mx/4.8.3/../../../../pic32mx/lib\libc.a(errno.o)
 .reginfo       0x00000000       0x18 c:/program files (x86)/microchip/xc32/v1.42/bin/bin/../../lib/gcc/pic32mx/4.8.3/../../../../pic32mx/lib\libc.a(errno.o)
 .text          0x00000000        0x0 c:/program files (x86)/microchip/xc32/v1.42/bin/bin/../../lib/gcc/pic32mx/4.8.3/../../../../pic32mx/lib\libc.a(malloc.o)
 .data          0x00000000        0x0 c:/program files (x86)/microchip/xc32/v1.42/bin/bin/../../lib/gcc/pic32mx/4.8.3/../../../../pic32mx/lib\libc.a(malloc.o)
 .reginfo       0x00000000       0x18 c:/program files (x86)/microchip/xc32/v1.42/bin/bin/../../lib/gcc/pic32mx/4.8.3/../../../../pic32mx/lib\libc.a(malloc.o)
 .text          0x00000000        0x0 c:/program files (x86)/microchip/xc32/v1.42/bin/bin/../../lib/gcc/pic32mx/4.8.3/../../../../pic32mx/lib\libc.a(tfiles.o)
 .data          0x00000000        0x0 c:/program files (x86)/microchip/xc32/v1.42/bin/bin/../../lib/gcc/pic32mx/4.8.3/../../../../pic32mx/lib\libc.a(tfiles.o)
 .bss           0x00000000        0x4 c:/program files (x86)/microchip/xc32/v1.42/bin/bin/../../lib/gcc/pic32mx/4.8.3/../../../../pic32mx/lib\libc.a(tfiles.o)
 .reginfo       0x00000000       0x18 c:/program files (x86)/microchip/xc32/v1.42/bin/bin/../../lib/gcc/pic32mx/4.8.3/../../../../pic32mx/lib\libc.a(tfiles.o)
 .text          0x00000000        0x0 c:/program files (x86)/microchip/xc32/v1.42/bin/bin/../../lib/gcc/pic32mx/4.8.3/../../../../pic32mx/lib\libc.a(_iob.o)
 .data          0x00000000       0xa4 c:/program files (x86)/microchip/xc32/v1.42/bin/bin/../../lib/gcc/pic32mx/4.8.3/../../../../pic32mx/lib\libc.a(_iob.o)
 .bss           0x00000000       0x44 c:/program files (x86)/microchip/xc32/v1.42/bin/bin/../../lib/gcc/pic32mx/4.8.3/../../../../pic32mx/lib\libc.a(_iob.o)
 .reginfo       0x00000000       0x18 c:/program files (x86)/microchip/xc32/v1.42/bin/bin/../../lib/gcc/pic32mx/4.8.3/../../../../pic32mx/lib\libc.a(_iob.o)
 .text          0x00000000        0x0 c:/program files (x86)/microchip/xc32/v1.42/bin/bin/../../lib/gcc/pic32mx/4.8.3/../../../../pic32mx/lib\libc.a(fgetc.o)
 .data          0x00000000        0x0 c:/program files (x86)/microchip/xc32/v1.42/bin/bin/../../lib/gcc/pic32mx/4.8.3/../../../../pic32mx/lib\libc.a(fgetc.o)
 .bss           0x00000000        0x0 c:/program files (x86)/microchip/xc32/v1.42/bin/bin/../../lib/gcc/pic32mx/4.8.3/../../../../pic32mx/lib\libc.a(fgetc.o)
 .reginfo       0x00000000       0x18 c:/program files (x86)/microchip/xc32/v1.42/bin/bin/../../lib/gcc/pic32mx/4.8.3/../../../../pic32mx/lib\libc.a(fgetc.o)
 .text.fgetc    0x00000000      0x104 c:/program files (x86)/microchip/xc32/v1.42/bin/bin/../../lib/gcc/pic32mx/4.8.3/../../../../pic32mx/lib\libc.a(fgetc.o)
 .text          0x00000000        0x0 c:/program files (x86)/microchip/xc32/v1.42/bin/bin/../../lib/gcc/pic32mx/4.8.3/../../../../pic32mx/lib\libc.a(_fputc_simple.o)
 .data          0x00000000        0x0 c:/program files (x86)/microchip/xc32/v1.42/bin/bin/../../lib/gcc/pic32mx/4.8.3/../../../../pic32mx/lib\libc.a(_fputc_simple.o)
 .bss           0x00000000        0x0 c:/program files (x86)/microchip/xc32/v1.42/bin/bin/../../lib/gcc/pic32mx/4.8.3/../../../../pic32mx/lib\libc.a(_fputc_simple.o)
 .reginfo       0x00000000       0x18 c:/program files (x86)/microchip/xc32/v1.42/bin/bin/../../lib/gcc/pic32mx/4.8.3/../../../../pic32mx/lib\libc.a(_fputc_simple.o)
 .text.fputc    0x00000000      0x144 c:/program files (x86)/microchip/xc32/v1.42/bin/bin/../../lib/gcc/pic32mx/4.8.3/../../../../pic32mx/lib\libc.a(_fputc_simple.o)
 .text          0x00000000        0x0 c:/program files (x86)/microchip/xc32/v1.42/bin/bin/../../lib/gcc/pic32mx/4.8.3/../../../../pic32mx/lib\libc.a(filbuf.o)
 .data          0x00000000        0x0 c:/program files (x86)/microchip/xc32/v1.42/bin/bin/../../lib/gcc/pic32mx/4.8.3/../../../../pic32mx/lib\libc.a(filbuf.o)
 .bss           0x00000000        0x0 c:/program files (x86)/microchip/xc32/v1.42/bin/bin/../../lib/gcc/pic32mx/4.8.3/../../../../pic32mx/lib\libc.a(filbuf.o)
 .reginfo       0x00000000       0x18 c:/program files (x86)/microchip/xc32/v1.42/bin/bin/../../lib/gcc/pic32mx/4.8.3/../../../../pic32mx/lib\libc.a(filbuf.o)
 .text._filbuf  0x00000000      0x188 c:/program files (x86)/microchip/xc32/v1.42/bin/bin/../../lib/gcc/pic32mx/4.8.3/../../../../pic32mx/lib\libc.a(filbuf.o)
 .text          0x00000000        0x0 c:/program files (x86)/microchip/xc32/v1.42/bin/bin/../../lib/gcc/pic32mx/4.8.3/../../../../pic32mx/lib\libc.a(_flsbuf_simple.o)
 .data          0x00000000        0x0 c:/program files (x86)/microchip/xc32/v1.42/bin/bin/../../lib/gcc/pic32mx/4.8.3/../../../../pic32mx/lib\libc.a(_flsbuf_simple.o)
 .bss           0x00000000        0x0 c:/program files (x86)/microchip/xc32/v1.42/bin/bin/../../lib/gcc/pic32mx/4.8.3/../../../../pic32mx/lib\libc.a(_flsbuf_simple.o)
 .reginfo       0x00000000       0x18 c:/program files (x86)/microchip/xc32/v1.42/bin/bin/../../lib/gcc/pic32mx/4.8.3/../../../../pic32mx/lib\libc.a(_flsbuf_simple.o)
 .text._flsbuf  0x00000000      0x12c c:/program files (x86)/microchip/xc32/v1.42/bin/bin/../../lib/gcc/pic32mx/4.8.3/../../../../pic32mx/lib\libc.a(_flsbuf_simple.o)
 .text          0x00000000        0x0 c:/program files (x86)/microchip/xc32/v1.42/bin/bin/../../lib/gcc/pic32mx/4.8.3/../../../../pic32mx/lib\libpic32.a(sbrk.o)
 .data          0x00000000        0x0 c:/program files (x86)/microchip/xc32/v1.42/bin/bin/../../lib/gcc/pic32mx/4.8.3/../../../../pic32mx/lib\libpic32.a(sbrk.o)
 .reginfo       0x00000000       0x18 c:/program files (x86)/microchip/xc32/v1.42/bin/bin/../../lib/gcc/pic32mx/4.8.3/../../../../pic32mx/lib\libpic32.a(sbrk.o)
 .text.getpagesize
                0x00000000        0x8 c:/program files (x86)/microchip/xc32/v1.42/bin/bin/../../lib/gcc/pic32mx/4.8.3/../../../../pic32mx/lib\libpic32.a(sbrk.o)
 .text          0x00000000        0x0 c:/program files (x86)/microchip/xc32/v1.42/bin/bin/../../lib/gcc/pic32mx/4.8.3/../../../../pic32mx/lib\libpic32.a(read.o)
 .data          0x00000000        0x0 c:/program files (x86)/microchip/xc32/v1.42/bin/bin/../../lib/gcc/pic32mx/4.8.3/../../../../pic32mx/lib\libpic32.a(read.o)
 .bss           0x00000000        0x0 c:/program files (x86)/microchip/xc32/v1.42/bin/bin/../../lib/gcc/pic32mx/4.8.3/../../../../pic32mx/lib\libpic32.a(read.o)
 .reginfo       0x00000000       0x18 c:/program files (x86)/microchip/xc32/v1.42/bin/bin/../../lib/gcc/pic32mx/4.8.3/../../../../pic32mx/lib\libpic32.a(read.o)
 .text.read     0x00000000      0x158 c:/program files (x86)/microchip/xc32/v1.42/bin/bin/../../lib/gcc/pic32mx/4.8.3/../../../../pic32mx/lib\libpic32.a(read.o)
 .text          0x00000000        0x0 c:/program files (x86)/microchip/xc32/v1.42/bin/bin/../../lib/gcc/pic32mx/4.8.3/../../../../pic32mx/lib\libpic32.a(write.o)
 .data          0x00000000        0x0 c:/program files (x86)/microchip/xc32/v1.42/bin/bin/../../lib/gcc/pic32mx/4.8.3/../../../../pic32mx/lib\libpic32.a(write.o)
 .bss           0x00000000        0x0 c:/program files (x86)/microchip/xc32/v1.42/bin/bin/../../lib/gcc/pic32mx/4.8.3/../../../../pic32mx/lib\libpic32.a(write.o)
 .reginfo       0x00000000       0x18 c:/program files (x86)/microchip/xc32/v1.42/bin/bin/../../lib/gcc/pic32mx/4.8.3/../../../../pic32mx/lib\libpic32.a(write.o)
 .text.write    0x00000000       0x9c c:/program files (x86)/microchip/xc32/v1.42/bin/bin/../../lib/gcc/pic32mx/4.8.3/../../../../pic32mx/lib\libpic32.a(write.o)
 .text          0x00000000        0x0 c:/program files (x86)/microchip/xc32/v1.42/bin/bin/../../lib/gcc/pic32mx/4.8.3/../../../../pic32mx/lib\libpic32.a(lseek.o)
 .data          0x00000000        0x0 c:/program files (x86)/microchip/xc32/v1.42/bin/bin/../../lib/gcc/pic32mx/4.8.3/../../../../pic32mx/lib\libpic32.a(lseek.o)
 .bss           0x00000000        0x0 c:/program files (x86)/microchip/xc32/v1.42/bin/bin/../../lib/gcc/pic32mx/4.8.3/../../../../pic32mx/lib\libpic32.a(lseek.o)
 .reginfo       0x00000000       0x18 c:/program files (x86)/microchip/xc32/v1.42/bin/bin/../../lib/gcc/pic32mx/4.8.3/../../../../pic32mx/lib\libpic32.a(lseek.o)
 .text.lseek    0x00000000        0x8 c:/program files (x86)/microchip/xc32/v1.42/bin/bin/../../lib/gcc/pic32mx/4.8.3/../../../../pic32mx/lib\libpic32.a(lseek.o)
 .text          0x00000000        0x0 c:/program files (x86)/microchip/xc32/v1.42/bin/bin/../../lib/gcc/pic32mx/4.8.3/../../../../pic32mx/lib\libpic32.a(remove.o)
 .data          0x00000000        0x0 c:/program files (x86)/microchip/xc32/v1.42/bin/bin/../../lib/gcc/pic32mx/4.8.3/../../../../pic32mx/lib\libpic32.a(remove.o)
 .bss           0x00000000        0x0 c:/program files (x86)/microchip/xc32/v1.42/bin/bin/../../lib/gcc/pic32mx/4.8.3/../../../../pic32mx/lib\libpic32.a(remove.o)
 .reginfo       0x00000000       0x18 c:/program files (x86)/microchip/xc32/v1.42/bin/bin/../../lib/gcc/pic32mx/4.8.3/../../../../pic32mx/lib\libpic32.a(remove.o)
 .text.remove   0x00000000        0x8 c:/program files (x86)/microchip/xc32/v1.42/bin/bin/../../lib/gcc/pic32mx/4.8.3/../../../../pic32mx/lib\libpic32.a(remove.o)
 .text          0x00000000        0x0 c:/program files (x86)/microchip/xc32/v1.42/bin/bin/../../lib/gcc/pic32mx/4.8.3/../../../../pic32mx/lib\libpic32.a(close.o)
 .data          0x00000000        0x0 c:/program files (x86)/microchip/xc32/v1.42/bin/bin/../../lib/gcc/pic32mx/4.8.3/../../../../pic32mx/lib\libpic32.a(close.o)
 .bss           0x00000000        0x0 c:/program files (x86)/microchip/xc32/v1.42/bin/bin/../../lib/gcc/pic32mx/4.8.3/../../../../pic32mx/lib\libpic32.a(close.o)
 .reginfo       0x00000000       0x18 c:/program files (x86)/microchip/xc32/v1.42/bin/bin/../../lib/gcc/pic32mx/4.8.3/../../../../pic32mx/lib\libpic32.a(close.o)
 .text.close    0x00000000        0x8 c:/program files (x86)/microchip/xc32/v1.42/bin/bin/../../lib/gcc/pic32mx/4.8.3/../../../../pic32mx/lib\libpic32.a(close.o)
 .text          0x00000000        0x0 c:/program files (x86)/microchip/xc32/v1.42/bin/bin/../../lib/gcc/pic32mx/4.8.3/../../../../pic32mx/lib\libpic32.a(open.o)
 .data          0x00000000        0x0 c:/program files (x86)/microchip/xc32/v1.42/bin/bin/../../lib/gcc/pic32mx/4.8.3/../../../../pic32mx/lib\libpic32.a(open.o)
 .bss           0x00000000        0x0 c:/program files (x86)/microchip/xc32/v1.42/bin/bin/../../lib/gcc/pic32mx/4.8.3/../../../../pic32mx/lib\libpic32.a(open.o)
 .reginfo       0x00000000       0x18 c:/program files (x86)/microchip/xc32/v1.42/bin/bin/../../lib/gcc/pic32mx/4.8.3/../../../../pic32mx/lib\libpic32.a(open.o)
 .text.open     0x00000000       0x14 c:/program files (x86)/microchip/xc32/v1.42/bin/bin/../../lib/gcc/pic32mx/4.8.3/../../../../pic32mx/lib\libpic32.a(open.o)
 .text          0x00000000        0x0 c:/program files (x86)/microchip/xc32/v1.42/bin/bin/../../lib/gcc/pic32mx/4.8.3/../../../../pic32mx/lib\libpic32.a(xc32_uart.o)
 .data          0x00000000        0x0 c:/program files (x86)/microchip/xc32/v1.42/bin/bin/../../lib/gcc/pic32mx/4.8.3/../../../../pic32mx/lib\libpic32.a(xc32_uart.o)
 .bss           0x00000000        0x0 c:/program files (x86)/microchip/xc32/v1.42/bin/bin/../../lib/gcc/pic32mx/4.8.3/../../../../pic32mx/lib\libpic32.a(xc32_uart.o)
 .reginfo       0x00000000       0x18 c:/program files (x86)/microchip/xc32/v1.42/bin/bin/../../lib/gcc/pic32mx/4.8.3/../../../../pic32mx/lib\libpic32.a(xc32_uart.o)
 .text          0x00000000        0x0 c:/program files (x86)/microchip/xc32/v1.42/bin/bin/../../lib/gcc/pic32mx/4.8.3/../../../../pic32mx/lib\libpic32.a(_mon_putc.o)
 .data          0x00000000        0x0 c:/program files (x86)/microchip/xc32/v1.42/bin/bin/../../lib/gcc/pic32mx/4.8.3/../../../../pic32mx/lib\libpic32.a(_mon_putc.o)
 .bss           0x00000000        0x0 c:/program files (x86)/microchip/xc32/v1.42/bin/bin/../../lib/gcc/pic32mx/4.8.3/../../../../pic32mx/lib\libpic32.a(_mon_putc.o)
 .reginfo       0x00000000       0x18 c:/program files (x86)/microchip/xc32/v1.42/bin/bin/../../lib/gcc/pic32mx/4.8.3/../../../../pic32mx/lib\libpic32.a(_mon_putc.o)
 .text._mon_putc
                0x00000000       0xd4 c:/program files (x86)/microchip/xc32/v1.42/bin/bin/../../lib/gcc/pic32mx/4.8.3/../../../../pic32mx/lib\libpic32.a(_mon_putc.o)

Memory Configuration

Name             Origin             Length             Attributes
kseg0_data_mem   0x80000000         0x00080000         w !x
kseg1_data_mem   0xa0000000         0x00000280
kseg0_program_mem 0x9d000000         0x00200000         xr
kseg0_boot_mem   0x9fc004b0         0x00000000
kseg1_boot_mem   0xbfc00000         0x00000480
kseg1_boot_mem_4B0 0xbfc004b0         0x0000fa50
config_BFC0FF40  0xbfc0ff40         0x00000004
config_BFC0FF44  0xbfc0ff44         0x00000004
config_BFC0FF48  0xbfc0ff48         0x00000004
config_BFC0FF4C  0xbfc0ff4c         0x00000004
config_BFC0FF50  0xbfc0ff50         0x00000004
config_BFC0FF54  0xbfc0ff54         0x00000004
config_BFC0FF58  0xbfc0ff58         0x00000004
config_BFC0FF5C  0xbfc0ff5c         0x00000004
config_BFC0FF60  0xbfc0ff60         0x00000004
config_BFC0FF64  0xbfc0ff64         0x00000004
config_BFC0FF68  0xbfc0ff68         0x00000004
config_BFC0FF6C  0xbfc0ff6c         0x00000004
config_BFC0FF70  0xbfc0ff70         0x00000004
config_BFC0FF74  0xbfc0ff74         0x00000004
config_BFC0FF78  0xbfc0ff78         0x00000004
config_BFC0FF7C  0xbfc0ff7c         0x00000004
config_BFC0FFC0  0xbfc0ffc0         0x00000004
config_BFC0FFC4  0xbfc0ffc4         0x00000004
config_BFC0FFC8  0xbfc0ffc8         0x00000004
config_BFC0FFCC  0xbfc0ffcc         0x00000004
config_BFC0FFD0  0xbfc0ffd0         0x00000004
config_BFC0FFD4  0xbfc0ffd4         0x00000004
config_BFC0FFD8  0xbfc0ffd8         0x00000004
config_BFC0FFDC  0xbfc0ffdc         0x00000004
config_BFC0FFE0  0xbfc0ffe0         0x00000004
config_BFC0FFE4  0xbfc0ffe4         0x00000004
config_BFC0FFE8  0xbfc0ffe8         0x00000004
config_BFC0FFEC  0xbfc0ffec         0x00000004
config_BFC0FFF0  0xbfc0fff0         0x00000004
config_BFC0FFF4  0xbfc0fff4         0x00000004
config_BFC0FFF8  0xbfc0fff8         0x00000004
config_BFC0FFFC  0xbfc0fffc         0x00000004
lowerbootaliaslastpage 0xbfc10000         0x00004000
upperbootalias   0xbfc20000         0x0000ff00
config_BFC2FF40  0xbfc2ff40         0x00000004
config_BFC2FF44  0xbfc2ff44         0x00000004
config_BFC2FF48  0xbfc2ff48         0x00000004
config_BFC2FF4C  0xbfc2ff4c         0x00000004
config_BFC2FF50  0xbfc2ff50         0x00000004
config_BFC2FF54  0xbfc2ff54         0x00000004
config_BFC2FF58  0xbfc2ff58         0x00000004
config_BFC2FF5C  0xbfc2ff5c         0x00000004
config_BFC2FF60  0xbfc2ff60         0x00000004
config_BFC2FF64  0xbfc2ff64         0x00000004
config_BFC2FF68  0xbfc2ff68         0x00000004
config_BFC2FF6C  0xbfc2ff6c         0x00000004
config_BFC2FF70  0xbfc2ff70         0x00000004
config_BFC2FF74  0xbfc2ff74         0x00000004
config_BFC2FF78  0xbfc2ff78         0x00000004
config_BFC2FF7C  0xbfc2ff7c         0x00000004
config_BFC2FFC0  0xbfc2ffc0         0x00000004
config_BFC2FFC4  0xbfc2ffc4         0x00000004
config_BFC2FFC8  0xbfc2ffc8         0x00000004
config_BFC2FFCC  0xbfc2ffcc         0x00000004
config_BFC2FFD0  0xbfc2ffd0         0x00000004
config_BFC2FFD4  0xbfc2ffd4         0x00000004
config_BFC2FFD8  0xbfc2ffd8         0x00000004
config_BFC2FFDC  0xbfc2ffdc         0x00000004
config_BFC2FFE0  0xbfc2ffe0         0x00000004
config_BFC2FFE4  0xbfc2ffe4         0x00000004
config_BFC2FFE8  0xbfc2ffe8         0x00000004
config_BFC2FFEC  0xbfc2ffec         0x00000004
config_BFC2FFF0  0xbfc2fff0         0x00000004
config_BFC2FFF4  0xbfc2fff4         0x00000004
config_BFC2FFF8  0xbfc2fff8         0x00000004
config_BFC2FFFC  0xbfc2fffc         0x00000004
upperbootaliaslastpage 0xbfc30000         0x00004000
boot1            0xbfc40000         0x0000ff00
config_BFC4FF40  0xbfc4ff40         0x00000004
config_BFC4FF44  0xbfc4ff44         0x00000004
config_BFC4FF48  0xbfc4ff48         0x00000004
config_BFC4FF4C  0xbfc4ff4c         0x00000004
config_BFC4FF50  0xbfc4ff50         0x00000004
config_BFC4FF54  0xbfc4ff54         0x00000004
config_BFC4FF58  0xbfc4ff58         0x00000004
config_BFC4FF5C  0xbfc4ff5c         0x00000004
config_BFC4FF60  0xbfc4ff60         0x00000004
config_BFC4FF64  0xbfc4ff64         0x00000004
config_BFC4FF68  0xbfc4ff68         0x00000004
config_BFC4FF6C  0xbfc4ff6c         0x00000004
config_BFC4FF70  0xbfc4ff70         0x00000004
config_BFC4FF74  0xbfc4ff74         0x00000004
config_BFC4FF78  0xbfc4ff78         0x00000004
config_BFC4FF7C  0xbfc4ff7c         0x00000004
config_BFC4FFC0  0xbfc4ffc0         0x00000004
config_BFC4FFC4  0xbfc4ffc4         0x00000004
config_BFC4FFC8  0xbfc4ffc8         0x00000004
config_BFC4FFCC  0xbfc4ffcc         0x00000004
config_BFC4FFD0  0xbfc4ffd0         0x00000004
config_BFC4FFD4  0xbfc4ffd4         0x00000004
config_BFC4FFD8  0xbfc4ffd8         0x00000004
config_BFC4FFDC  0xbfc4ffdc         0x00000004
config_BFC4FFE0  0xbfc4ffe0         0x00000004
config_BFC4FFE4  0xbfc4ffe4         0x00000004
config_BFC4FFE8  0xbfc4ffe8         0x00000004
config_BFC4FFEC  0xbfc4ffec         0x00000004
config_BFC4FFF0  0xbfc4fff0         0x00000004
config_BFC4FFF4  0xbfc4fff4         0x00000004
config_BFC4FFF8  0xbfc4fff8         0x00000004
config_BFC4FFFC  0xbfc4fffc         0x00000004
boot1lastpage    0xbfc50000         0x00004000
config_BFC54000  0xbfc54000         0x00000004
config_BFC54004  0xbfc54004         0x00000004
config_BFC54008  0xbfc54008         0x00000004
config_BFC5400C  0xbfc5400c         0x00000004
config_BFC54010  0xbfc54010         0x00000004
config_BFC54020  0xbfc54020         0x00000004
config_BFC54024  0xbfc54024         0x00000004
boot2            0xbfc60000         0x0000ff00
config_BFC6FF40  0xbfc6ff40         0x00000004
config_BFC6FF44  0xbfc6ff44         0x00000004
config_BFC6FF48  0xbfc6ff48         0x00000004
config_BFC6FF4C  0xbfc6ff4c         0x00000004
config_BFC6FF50  0xbfc6ff50         0x00000004
config_BFC6FF54  0xbfc6ff54         0x00000004
config_BFC6FF58  0xbfc6ff58         0x00000004
config_BFC6FF5C  0xbfc6ff5c         0x00000004
config_BFC6FF60  0xbfc6ff60         0x00000004
config_BFC6FF64  0xbfc6ff64         0x00000004
config_BFC6FF68  0xbfc6ff68         0x00000004
config_BFC6FF6C  0xbfc6ff6c         0x00000004
config_BFC6FF70  0xbfc6ff70         0x00000004
config_BFC6FF74  0xbfc6ff74         0x00000004
config_BFC6FF78  0xbfc6ff78         0x00000004
config_BFC6FF7C  0xbfc6ff7c         0x00000004
config_BFC6FFC0  0xbfc6ffc0         0x00000004
config_BFC6FFC4  0xbfc6ffc4         0x00000004
config_BFC6FFC8  0xbfc6ffc8         0x00000004
config_BFC6FFCC  0xbfc6ffcc         0x00000004
config_BFC6FFD0  0xbfc6ffd0         0x00000004
config_BFC6FFD4  0xbfc6ffd4         0x00000004
config_BFC6FFD8  0xbfc6ffd8         0x00000004
config_BFC6FFDC  0xbfc6ffdc         0x00000004
config_BFC6FFE0  0xbfc6ffe0         0x00000004
config_BFC6FFE4  0xbfc6ffe4         0x00000004
config_BFC6FFE8  0xbfc6ffe8         0x00000004
config_BFC6FFEC  0xbfc6ffec         0x00000004
config_BFC6FFF0  0xbfc6fff0         0x00000004
config_BFC6FFF4  0xbfc6fff4         0x00000004
config_BFC6FFF8  0xbfc6fff8         0x00000004
config_BFC6FFFC  0xbfc6fffc         0x00000004
boot2lastpage    0xbfc70000         0x00004000
sfrs             0xbf800000         0x00100000
configsfrs_BFC0FF40 0xbfc0ff40         0x00000040
configsfrs_BFC0FFC0 0xbfc0ffc0         0x00000040
configsfrs_BFC2FF40 0xbfc2ff40         0x00000040
configsfrs_BFC2FFC0 0xbfc2ffc0         0x00000040
configsfrs_BFC4FF40 0xbfc4ff40         0x00000040
configsfrs_BFC4FFC0 0xbfc4ffc0         0x00000040
configsfrs_BFC54000 0xbfc54000         0x00000014
configsfrs_BFC54020 0xbfc54020         0x00000008
configsfrs_BFC6FF40 0xbfc6ff40         0x00000040
configsfrs_BFC6FFC0 0xbfc6ffc0         0x00000040
kseg2_ebi_data_mem 0xc0000000         0x04000000
kseg2_sqi_data_mem 0xd0000000         0x04000000
kseg3_ebi_data_mem 0xe0000000         0x04000000
kseg3_sqi_data_mem 0xf0000000         0x04000000
*default*        0x00000000         0xffffffff

Linker script and memory map


reserve_data_0_kseg0
                0x80000000      0x280
                0x80000000        0x2 SHORT 0x0
                0x00000280                . = 0x280
 *fill*         0x80000002      0x27e 
                0x80000280                . = ALIGN (0x4)

reserve_data_0_kseg1
                0xa0000000      0x280
                0xa0000000        0x2 SHORT 0x0
                0x00000280                . = 0x280
 *fill*         0xa0000002      0x27e 
                0xa0000280                . = ALIGN (0x4)
LOAD c:/program files (x86)/microchip/xc32/v1.42/bin/bin/../../lib/gcc/pic32mx/4.8.3/../../../../pic32mx/lib/./proc/32MZ2048ECM144/crt0_mips32r2.o
LOAD c:/program files (x86)/microchip/xc32/v1.42/bin/bin/../../lib/gcc/pic32mx/4.8.3/../../../../pic32mx/lib\software-debug-break.o
LOAD build/pic32mz_ef_sk_meb2/debug/_ext/1360937237/app.o
LOAD build/pic32mz_ef_sk_meb2/debug/_ext/1360937237/main.o
LOAD build/pic32mz_ef_sk_meb2/debug/_ext/1360937237/ov2640.o
LOAD build/pic32mz_ef_sk_meb2/debug/_ext/1360937237/i2c_master_noint.o
LOAD build/pic32mz_ef_sk_meb2/debug/_ext/426253641/jidctint.o
LOAD build/pic32mz_ef_sk_meb2/debug/_ext/1597685232/gfxu_image.o
LOAD build/pic32mz_ef_sk_meb2/debug/_ext/1597685232/gfxu_image_png_external.o
LOAD build/pic32mz_ef_sk_meb2/debug/_ext/1597685232/gfxu_image_png_internal.o
LOAD build/pic32mz_ef_sk_meb2/debug/_ext/1597685232/gfxu_image_jpg_internal.o
LOAD build/pic32mz_ef_sk_meb2/debug/_ext/493934858/lodepng.o
LOAD build/pic32mz_ef_sk_meb2/debug/_ext/1597685232/gfxu_image_raw_external.o
LOAD build/pic32mz_ef_sk_meb2/debug/_ext/1597685232/gfxu_image_raw_internal.o
LOAD build/pic32mz_ef_sk_meb2/debug/_ext/1597685232/gfxu_image_rle_external.o
LOAD build/pic32mz_ef_sk_meb2/debug/_ext/1597685232/gfxu_image_rle_internal.o
LOAD build/pic32mz_ef_sk_meb2/debug/_ext/1597685232/gfxu_image_utils.o
LOAD build/pic32mz_ef_sk_meb2/debug/_ext/1597685232/gfxu_palette.o
LOAD build/pic32mz_ef_sk_meb2/debug/_ext/1597685232/gfxu_string.o
LOAD build/pic32mz_ef_sk_meb2/debug/_ext/1597685232/gfxu_string_external.o
LOAD build/pic32mz_ef_sk_meb2/debug/_ext/1597685232/gfxu_string_internal.o
LOAD build/pic32mz_ef_sk_meb2/debug/_ext/1597685232/gfxu_string_query.o
LOAD build/pic32mz_ef_sk_meb2/debug/_ext/1597685232/gfxu_string_utils.o
LOAD build/pic32mz_ef_sk_meb2/debug/_ext/1907747181/libaria.o
LOAD build/pic32mz_ef_sk_meb2/debug/_ext/1907747181/libaria_context.o
LOAD build/pic32mz_ef_sk_meb2/debug/_ext/1907747181/libaria_context_paint.o
LOAD build/pic32mz_ef_sk_meb2/debug/_ext/1907747181/libaria_draw.o
LOAD build/pic32mz_ef_sk_meb2/debug/_ext/1907747181/libaria_editwidget.o
LOAD build/pic32mz_ef_sk_meb2/debug/_ext/1907747181/libaria_event.o
LOAD build/pic32mz_ef_sk_meb2/debug/_ext/1907747181/libaria_input.o
LOAD build/pic32mz_ef_sk_meb2/debug/_ext/1907747181/libaria_layer.o
LOAD build/pic32mz_ef_sk_meb2/debug/_ext/1907747181/libaria_list.o
LOAD build/pic32mz_ef_sk_meb2/debug/_ext/1907747181/libaria_scheme.o
LOAD build/pic32mz_ef_sk_meb2/debug/_ext/1907747181/libaria_screen.o
LOAD build/pic32mz_ef_sk_meb2/debug/_ext/1907747181/libaria_string.o
LOAD build/pic32mz_ef_sk_meb2/debug/_ext/1907747181/libaria_utils.o
LOAD build/pic32mz_ef_sk_meb2/debug/_ext/1907747181/libaria_widget.o
LOAD build/pic32mz_ef_sk_meb2/debug/_ext/1907747181/libaria_widget_skin_classic.o
LOAD build/pic32mz_ef_sk_meb2/debug/_ext/1907747181/libaria_widget_button.o
LOAD build/pic32mz_ef_sk_meb2/debug/_ext/1907747181/libaria_widget_button_skin_classic.o
LOAD build/pic32mz_ef_sk_meb2/debug/_ext/1907747181/libaria_widget_checkbox.o
LOAD build/pic32mz_ef_sk_meb2/debug/_ext/1907747181/libaria_widget_checkbox_skin_classic.o
LOAD build/pic32mz_ef_sk_meb2/debug/_ext/1907747181/libaria_widget_circle.o
LOAD build/pic32mz_ef_sk_meb2/debug/_ext/1907747181/libaria_widget_circle_skin_classic.o
LOAD build/pic32mz_ef_sk_meb2/debug/_ext/1907747181/libaria_widget_drawsurface.o
LOAD build/pic32mz_ef_sk_meb2/debug/_ext/1907747181/libaria_widget_drawsurface_skin_classic.o
LOAD build/pic32mz_ef_sk_meb2/debug/_ext/1907747181/libaria_widget_gradient.o
LOAD build/pic32mz_ef_sk_meb2/debug/_ext/1907747181/libaria_widget_gradient_skin_classic.o
LOAD build/pic32mz_ef_sk_meb2/debug/_ext/1907747181/libaria_widget_groupbox.o
LOAD build/pic32mz_ef_sk_meb2/debug/_ext/1907747181/libaria_widget_groupbox_skin_classic.o
LOAD build/pic32mz_ef_sk_meb2/debug/_ext/1907747181/libaria_widget_image.o
LOAD build/pic32mz_ef_sk_meb2/debug/_ext/1907747181/libaria_widget_image_skin_classic.o
LOAD build/pic32mz_ef_sk_meb2/debug/_ext/1907747181/libaria_widget_imagesequence.o
LOAD build/pic32mz_ef_sk_meb2/debug/_ext/1907747181/libaria_widget_imagesequence_skin_classic.o
LOAD build/pic32mz_ef_sk_meb2/debug/_ext/1907747181/libaria_widget_keypad.o
LOAD build/pic32mz_ef_sk_meb2/debug/_ext/1907747181/libaria_widget_keypad_skin_classic.o
LOAD build/pic32mz_ef_sk_meb2/debug/_ext/1907747181/libaria_widget_label.o
LOAD build/pic32mz_ef_sk_meb2/debug/_ext/1907747181/libaria_widget_label_skin_classic.o
LOAD build/pic32mz_ef_sk_meb2/debug/_ext/1907747181/libaria_widget_line.o
LOAD build/pic32mz_ef_sk_meb2/debug/_ext/1907747181/libaria_widget_line_skin_classic.o
LOAD build/pic32mz_ef_sk_meb2/debug/_ext/1907747181/libaria_widget_list.o
LOAD build/pic32mz_ef_sk_meb2/debug/_ext/1907747181/libaria_widget_list_skin_classic.o
LOAD build/pic32mz_ef_sk_meb2/debug/_ext/1907747181/libaria_widget_listwheel.o
LOAD build/pic32mz_ef_sk_meb2/debug/_ext/1907747181/libaria_widget_listwheel_skin_classic.o
LOAD build/pic32mz_ef_sk_meb2/debug/_ext/1907747181/libaria_widget_progressbar.o
LOAD build/pic32mz_ef_sk_meb2/debug/_ext/1907747181/libaria_widget_progressbar_skin_classic.o
LOAD build/pic32mz_ef_sk_meb2/debug/_ext/1907747181/libaria_widget_radiobutton.o
LOAD build/pic32mz_ef_sk_meb2/debug/_ext/1907747181/libaria_widget_radiobutton_skin_classic.o
LOAD build/pic32mz_ef_sk_meb2/debug/_ext/1907747181/libaria_radiobutton_group.o
LOAD build/pic32mz_ef_sk_meb2/debug/_ext/1907747181/libaria_widget_rectangle.o
LOAD build/pic32mz_ef_sk_meb2/debug/_ext/1907747181/libaria_widget_rectangle_skin_classic.o
LOAD build/pic32mz_ef_sk_meb2/debug/_ext/1907747181/libaria_widget_scrollbar.o
LOAD build/pic32mz_ef_sk_meb2/debug/_ext/1907747181/libaria_widget_scrollbar_skin_classic.o
LOAD build/pic32mz_ef_sk_meb2/debug/_ext/1907747181/libaria_widget_slider.o
LOAD build/pic32mz_ef_sk_meb2/debug/_ext/1907747181/libaria_widget_slider_skin_classic.o
LOAD build/pic32mz_ef_sk_meb2/debug/_ext/1907747181/libaria_widget_textfield.o
LOAD build/pic32mz_ef_sk_meb2/debug/_ext/1907747181/libaria_widget_textfield_skin_classic.o
LOAD build/pic32mz_ef_sk_meb2/debug/_ext/1907747181/libaria_widget_touchtest.o
LOAD build/pic32mz_ef_sk_meb2/debug/_ext/1907747181/libaria_widget_touchtest_skin_classic.o
LOAD build/pic32mz_ef_sk_meb2/debug/_ext/1907747181/libaria_widget_window.o
LOAD build/pic32mz_ef_sk_meb2/debug/_ext/1907747181/libaria_widget_window_skin_classic.o
LOAD build/pic32mz_ef_sk_meb2/debug/_ext/1847583374/gfx.o
LOAD build/pic32mz_ef_sk_meb2/debug/_ext/1847583374/gfx_color.o
LOAD build/pic32mz_ef_sk_meb2/debug/_ext/1847583374/gfx_context.o
LOAD build/pic32mz_ef_sk_meb2/debug/_ext/1847583374/gfx_default_impl.o
LOAD build/pic32mz_ef_sk_meb2/debug/_ext/1847583374/gfx_display.o
LOAD build/pic32mz_ef_sk_meb2/debug/_ext/1847583374/gfx_driver_interface.o
LOAD build/pic32mz_ef_sk_meb2/debug/_ext/1847583374/gfx_get.o
LOAD build/pic32mz_ef_sk_meb2/debug/_ext/1847583374/gfx_interface.o
LOAD build/pic32mz_ef_sk_meb2/debug/_ext/1847583374/gfx_layer.o
LOAD build/pic32mz_ef_sk_meb2/debug/_ext/1847583374/gfx_pixel_buffer.o
LOAD build/pic32mz_ef_sk_meb2/debug/_ext/1847583374/gfx_rect.o
LOAD build/pic32mz_ef_sk_meb2/debug/_ext/1847583374/gfx_util.o
LOAD build/pic32mz_ef_sk_meb2/debug/_ext/1847583374/gfx_set.o
LOAD build/pic32mz_ef_sk_meb2/debug/_ext/1847583374/gfx_color_blend.o
LOAD build/pic32mz_ef_sk_meb2/debug/_ext/1847583374/gfx_color_convert.o
LOAD build/pic32mz_ef_sk_meb2/debug/_ext/1847583374/gfx_color_lerp.o
LOAD build/pic32mz_ef_sk_meb2/debug/_ext/1847583374/gfx_color_value.o
LOAD build/pic32mz_ef_sk_meb2/debug/_ext/1847583374/gfx_draw_blit.o
LOAD build/pic32mz_ef_sk_meb2/debug/_ext/1847583374/gfx_draw_circle.o
LOAD build/pic32mz_ef_sk_meb2/debug/_ext/1847583374/gfx_draw_line.o
LOAD build/pic32mz_ef_sk_meb2/debug/_ext/1847583374/gfx_draw_pixel.o
LOAD build/pic32mz_ef_sk_meb2/debug/_ext/1847583374/gfx_draw_rect.o
LOAD build/pic32mz_ef_sk_meb2/debug/_ext/1847583374/gfx_math.o
LOAD build/pic32mz_ef_sk_meb2/debug/_ext/853959373/sys_dma.o
LOAD build/pic32mz_ef_sk_meb2/debug/_ext/1042686532/sys_int_pic32.o
LOAD build/pic32mz_ef_sk_meb2/debug/_ext/1219754583/drv_i2c_static_buffer_model.o
LOAD build/pic32mz_ef_sk_meb2/debug/_ext/1219754583/drv_i2c_mapping.o
LOAD build/pic32mz_ef_sk_meb2/debug/_ext/199634090/drv_tmr_static.o
LOAD build/pic32mz_ef_sk_meb2/debug/_ext/199634090/drv_tmr_mapping.o
LOAD build/pic32mz_ef_sk_meb2/debug/_ext/713288229/drv_gfx_lcc_generic.o
LOAD build/pic32mz_ef_sk_meb2/debug/_ext/1740298103/libaria_harmony.o
LOAD build/pic32mz_ef_sk_meb2/debug/_ext/1740298103/libaria_init.o
LOAD build/pic32mz_ef_sk_meb2/debug/_ext/1740298103/libaria_events.o
LOAD build/pic32mz_ef_sk_meb2/debug/_ext/1740298103/libaria_macros.o
LOAD build/pic32mz_ef_sk_meb2/debug/_ext/477038478/gfx_display_def.o
LOAD build/pic32mz_ef_sk_meb2/debug/_ext/477038478/gfx_driver_def.o
LOAD build/pic32mz_ef_sk_meb2/debug/_ext/1847413222/sys_clk.o
LOAD build/pic32mz_ef_sk_meb2/debug/_ext/1847413222/sys_clk_pic32mz.o
LOAD build/pic32mz_ef_sk_meb2/debug/_ext/924081491/sys_devcon.o
LOAD build/pic32mz_ef_sk_meb2/debug/_ext/924081491/sys_devcon_pic32mz.o
LOAD build/pic32mz_ef_sk_meb2/debug/_ext/924081491/sys_devcon_cache_pic32mz.o
LOAD build/pic32mz_ef_sk_meb2/debug/_ext/50030870/sys_ports_static.o
LOAD build/pic32mz_ef_sk_meb2/debug/_ext/1465531745/bsp.o
LOAD build/pic32mz_ef_sk_meb2/debug/_ext/1951523377/system_init.o
LOAD build/pic32mz_ef_sk_meb2/debug/_ext/1951523377/system_interrupt.o
LOAD build/pic32mz_ef_sk_meb2/debug/_ext/1951523377/system_exceptions.o
LOAD build/pic32mz_ef_sk_meb2/debug/_ext/1951523377/system_tasks.o
LOAD build/pic32mz_ef_sk_meb2/debug/_ext/715821942/gfx_assets.o
LOAD ..\..\..\..\..\bin\framework\peripheral\PIC32MZ2048ECM144_peripherals.a
                0x00000001                __MPLAB_BUILD = 0x1
                0x00000001                __MPLAB_DEBUG = 0x1
                0x00000001                __DEBUG = 0x1
                0x00000001                __MPLAB_DEBUGGER_ICD3 = 0x1
                0x00019000                _min_heap_size = 0x19000
LOAD c:/program files (x86)/microchip/xc32/v1.42/bin/bin/../../lib/gcc/pic32mx/4.8.3/../../../../pic32mx/lib/./proc/32MZ2048ECM144\default_isr_vectors.o
LOAD c:/program files (x86)/microchip/xc32/v1.42/bin/bin/../../lib/gcc/pic32mx/4.8.3/../../../../pic32mx/lib\pic32_software_reset.o
                0x00000400                PROVIDE (_min_stack_size, 0x400)
LOAD c:/program files (x86)/microchip/xc32/v1.42/bin/bin/../../lib/gcc/pic32mx/4.8.3/../../../../pic32mx/lib/./proc/32MZ2048ECM144\processor.o
START GROUP
LOAD c:/program files (x86)/microchip/xc32/v1.42/bin/bin/../../lib/gcc/pic32mx/4.8.3/../../../../pic32mx/lib/./proc/32MZ2048ECM144\vector_offset_init.o
END GROUP
                0x00000001                PROVIDE (_vector_spacing, 0x1)
                0x9d000000                PROVIDE (_ebase_address, 0x9d000000)
                0xbfc00000                _RESET_ADDR = 0xbfc00000
                0xbfc00380                _BEV_EXCPT_ADDR = 0xbfc00380
                0xbfc00480                _DBG_EXCPT_ADDR = 0xbfc00480
                0x9d000000                _SIMPLE_TLB_REFILL_EXCPT_ADDR = (_ebase_address + 0x0)
                0x9d000100                _CACHE_ERR_EXCPT_ADDR = (_ebase_address + 0x100)
                0x9d000180                _GEN_EXCPT_ADDR = (_ebase_address + 0x180)

.config_BFC0FF40
 *(.config_BFC0FF40)

.config_BFC0FF44
 *(.config_BFC0FF44)

.config_BFC0FF48
 *(.config_BFC0FF48)

.config_BFC0FF4C
 *(.config_BFC0FF4C)

.config_BFC0FF50
 *(.config_BFC0FF50)

.config_BFC0FF54
 *(.config_BFC0FF54)

.config_BFC0FF58
 *(.config_BFC0FF58)

.config_BFC0FF5C
 *(.config_BFC0FF5C)

.config_BFC0FF60
 *(.config_BFC0FF60)

.config_BFC0FF64
 *(.config_BFC0FF64)

.config_BFC0FF68
 *(.config_BFC0FF68)

.config_BFC0FF6C
 *(.config_BFC0FF6C)

.config_BFC0FF70
 *(.config_BFC0FF70)

.config_BFC0FF74
 *(.config_BFC0FF74)

.config_BFC0FF78
 *(.config_BFC0FF78)

.config_BFC0FF7C
 *(.config_BFC0FF7C)

.config_BFC0FFC0
                0xbfc0ffc0        0x4
 *(.config_BFC0FFC0)
 .config_BFC0FFC0
                0xbfc0ffc0        0x4 build/pic32mz_ef_sk_meb2/debug/_ext/1951523377/system_init.o

.config_BFC0FFC4
                0xbfc0ffc4        0x4
 *(.config_BFC0FFC4)
 .config_BFC0FFC4
                0xbfc0ffc4        0x4 build/pic32mz_ef_sk_meb2/debug/_ext/1951523377/system_init.o

.config_BFC0FFC8
                0xbfc0ffc8        0x4
 *(.config_BFC0FFC8)
 .config_BFC0FFC8
                0xbfc0ffc8        0x4 build/pic32mz_ef_sk_meb2/debug/_ext/1951523377/system_init.o

.config_BFC0FFCC
                0xbfc0ffcc        0x4
 *(.config_BFC0FFCC)
 .config_BFC0FFCC
                0xbfc0ffcc        0x4 build/pic32mz_ef_sk_meb2/debug/_ext/1951523377/system_init.o

.config_BFC0FFD0
 *(.config_BFC0FFD0)

.config_BFC0FFD4
 *(.config_BFC0FFD4)

.config_BFC0FFD8
 *(.config_BFC0FFD8)

.config_BFC0FFDC
                0xbfc0ffdc        0x4
 *(.config_BFC0FFDC)
 .config_BFC0FFDC
                0xbfc0ffdc        0x4 build/pic32mz_ef_sk_meb2/debug/_ext/1951523377/system_init.o

.config_BFC0FFE0
 *(.config_BFC0FFE0)

.config_BFC0FFE4
 *(.config_BFC0FFE4)

.config_BFC0FFE8
 *(.config_BFC0FFE8)

.config_BFC0FFEC
 *(.config_BFC0FFEC)

.config_BFC0FFF0
 *(.config_BFC0FFF0)

.config_BFC0FFF4
 *(.config_BFC0FFF4)

.config_BFC0FFF8
 *(.config_BFC0FFF8)

.config_BFC0FFFC
                0xbfc0fffc        0x4
 *(.config_BFC0FFFC)
 .config_BFC0FFFC
                0xbfc0fffc        0x4 build/pic32mz_ef_sk_meb2/debug/_ext/1951523377/system_init.o

.config_BFC2FF40
 *(.config_BFC2FF40)

.config_BFC2FF44
 *(.config_BFC2FF44)

.config_BFC2FF48
 *(.config_BFC2FF48)

.config_BFC2FF4C
 *(.config_BFC2FF4C)

.config_BFC2FF50
 *(.config_BFC2FF50)

.config_BFC2FF54
 *(.config_BFC2FF54)

.config_BFC2FF58
 *(.config_BFC2FF58)

.config_BFC2FF5C
 *(.config_BFC2FF5C)

.config_BFC2FF60
 *(.config_BFC2FF60)

.config_BFC2FF64
 *(.config_BFC2FF64)

.config_BFC2FF68
 *(.config_BFC2FF68)

.config_BFC2FF6C
 *(.config_BFC2FF6C)

.config_BFC2FF70
 *(.config_BFC2FF70)

.config_BFC2FF74
 *(.config_BFC2FF74)

.config_BFC2FF78
 *(.config_BFC2FF78)

.config_BFC2FF7C
 *(.config_BFC2FF7C)

.config_BFC2FFC0
 *(.config_BFC2FFC0)

.config_BFC2FFC4
 *(.config_BFC2FFC4)

.config_BFC2FFC8
 *(.config_BFC2FFC8)

.config_BFC2FFCC
 *(.config_BFC2FFCC)

.config_BFC2FFD0
 *(.config_BFC2FFD0)

.config_BFC2FFD4
 *(.config_BFC2FFD4)

.config_BFC2FFD8
 *(.config_BFC2FFD8)

.config_BFC2FFDC
 *(.config_BFC2FFDC)

.config_BFC2FFE0
 *(.config_BFC2FFE0)

.config_BFC2FFE4
 *(.config_BFC2FFE4)

.config_BFC2FFE8
 *(.config_BFC2FFE8)

.config_BFC2FFEC
 *(.config_BFC2FFEC)

.config_BFC2FFF0
 *(.config_BFC2FFF0)

.config_BFC2FFF4
 *(.config_BFC2FFF4)

.config_BFC2FFF8
 *(.config_BFC2FFF8)

.config_BFC2FFFC
 *(.config_BFC2FFFC)

.config_BFC4FF40
 *(.config_BFC4FF40)

.config_BFC4FF44
 *(.config_BFC4FF44)

.config_BFC4FF48
 *(.config_BFC4FF48)

.config_BFC4FF4C
 *(.config_BFC4FF4C)

.config_BFC4FF50
 *(.config_BFC4FF50)

.config_BFC4FF54
 *(.config_BFC4FF54)

.config_BFC4FF58
 *(.config_BFC4FF58)

.config_BFC4FF5C
 *(.config_BFC4FF5C)

.config_BFC4FF60
 *(.config_BFC4FF60)

.config_BFC4FF64
 *(.config_BFC4FF64)

.config_BFC4FF68
 *(.config_BFC4FF68)

.config_BFC4FF6C
 *(.config_BFC4FF6C)

.config_BFC4FF70
 *(.config_BFC4FF70)

.config_BFC4FF74
 *(.config_BFC4FF74)

.config_BFC4FF78
 *(.config_BFC4FF78)

.config_BFC4FF7C
 *(.config_BFC4FF7C)

.config_BFC4FFC0
 *(.config_BFC4FFC0)

.config_BFC4FFC4
 *(.config_BFC4FFC4)

.config_BFC4FFC8
 *(.config_BFC4FFC8)

.config_BFC4FFCC
 *(.config_BFC4FFCC)

.config_BFC4FFD0
 *(.config_BFC4FFD0)

.config_BFC4FFD4
 *(.config_BFC4FFD4)

.config_BFC4FFD8
 *(.config_BFC4FFD8)

.config_BFC4FFDC
 *(.config_BFC4FFDC)

.config_BFC4FFE0
 *(.config_BFC4FFE0)

.config_BFC4FFE4
 *(.config_BFC4FFE4)

.config_BFC4FFE8
 *(.config_BFC4FFE8)

.config_BFC4FFEC
 *(.config_BFC4FFEC)

.config_BFC4FFF0
 *(.config_BFC4FFF0)

.config_BFC4FFF4
 *(.config_BFC4FFF4)

.config_BFC4FFF8
 *(.config_BFC4FFF8)

.config_BFC4FFFC
 *(.config_BFC4FFFC)

.config_BFC54000
 *(.config_BFC54000)

.config_BFC54004
 *(.config_BFC54004)

.config_BFC54008
 *(.config_BFC54008)

.config_BFC5400C
 *(.config_BFC5400C)

.config_BFC54010
 *(.config_BFC54010)

.config_BFC54020
 *(.config_BFC54020)

.config_BFC54024
 *(.config_BFC54024)

.config_BFC6FF40
 *(.config_BFC6FF40)

.config_BFC6FF44
 *(.config_BFC6FF44)

.config_BFC6FF48
 *(.config_BFC6FF48)

.config_BFC6FF4C
 *(.config_BFC6FF4C)

.config_BFC6FF50
 *(.config_BFC6FF50)

.config_BFC6FF54
 *(.config_BFC6FF54)

.config_BFC6FF58
 *(.config_BFC6FF58)

.config_BFC6FF5C
 *(.config_BFC6FF5C)

.config_BFC6FF60
 *(.config_BFC6FF60)

.config_BFC6FF64
 *(.config_BFC6FF64)

.config_BFC6FF68
 *(.config_BFC6FF68)

.config_BFC6FF6C
 *(.config_BFC6FF6C)

.config_BFC6FF70
 *(.config_BFC6FF70)

.config_BFC6FF74
 *(.config_BFC6FF74)

.config_BFC6FF78
 *(.config_BFC6FF78)

.config_BFC6FF7C
 *(.config_BFC6FF7C)

.config_BFC6FFC0
 *(.config_BFC6FFC0)

.config_BFC6FFC4
 *(.config_BFC6FFC4)

.config_BFC6FFC8
 *(.config_BFC6FFC8)

.config_BFC6FFCC
 *(.config_BFC6FFCC)

.config_BFC6FFD0
 *(.config_BFC6FFD0)

.config_BFC6FFD4
 *(.config_BFC6FFD4)

.config_BFC6FFD8
 *(.config_BFC6FFD8)

.config_BFC6FFDC
 *(.config_BFC6FFDC)

.config_BFC6FFE0
 *(.config_BFC6FFE0)

.config_BFC6FFE4
 *(.config_BFC6FFE4)

.config_BFC6FFE8
 *(.config_BFC6FFE8)

.config_BFC6FFEC
 *(.config_BFC6FFEC)

.config_BFC6FFF0
 *(.config_BFC6FFF0)

.config_BFC6FFF4
 *(.config_BFC6FFF4)

.config_BFC6FFF8
 *(.config_BFC6FFF8)

.config_BFC6FFFC
 *(.config_BFC6FFFC)

.reset          0xbfc00000      0x210
 *(.reset)
 .reset         0xbfc00000       0x18 c:/program files (x86)/microchip/xc32/v1.42/bin/bin/../../lib/gcc/pic32mx/4.8.3/../../../../pic32mx/lib/./proc/32MZ2048ECM144/crt0_mips32r2.o
                0xbfc00000                _reset
 *(.reset.startup)
 .reset.startup
                0xbfc00018      0x1f8 c:/program files (x86)/microchip/xc32/v1.42/bin/bin/../../lib/gcc/pic32mx/4.8.3/../../../../pic32mx/lib/./proc/32MZ2048ECM144/crt0_mips32r2.o

.bev_excpt      0xbfc00380       0x10
 *(.bev_handler)
 .bev_handler   0xbfc00380       0x10 c:/program files (x86)/microchip/xc32/v1.42/bin/bin/../../lib/gcc/pic32mx/4.8.3/../../../../pic32mx/lib/./proc/32MZ2048ECM144/crt0_mips32r2.o

.cache_init     0xbfc004b0      0x19c
 *(.cache_init)
 *(.cache_init.*)
 .cache_init.cache
                0xbfc004b0       0xc0 c:/program files (x86)/microchip/xc32/v1.42/bin/bin/../../lib/gcc/pic32mx/4.8.3/../../../../pic32mx/lib\libpic32.a(pic32_init_cache.o)
 .cache_init.pic32_init_cache
                0xbfc00570       0xdc c:/program files (x86)/microchip/xc32/v1.42/bin/bin/../../lib/gcc/pic32mx/4.8.3/../../../../pic32mx/lib\libpic32.a(pic32_init_cache.o)
                0xbfc00570                __pic32_init_cache

.simple_tlb_refill_excpt
                0x9d000000       0x10
 *(.simple_tlb_refill_vector)
 .simple_tlb_refill_vector
                0x9d000000       0x10 c:/program files (x86)/microchip/xc32/v1.42/bin/bin/../../lib/gcc/pic32mx/4.8.3/../../../../pic32mx/lib/./proc/32MZ2048ECM144/crt0_mips32r2.o

.cache_err_excpt
                0x9d000100       0x10
 *(.cache_err_vector)
 .cache_err_vector
                0x9d000100       0x10 c:/program files (x86)/microchip/xc32/v1.42/bin/bin/../../lib/gcc/pic32mx/4.8.3/../../../../pic32mx/lib/./proc/32MZ2048ECM144/crt0_mips32r2.o

.app_excpt      0x9d000180       0x10
 *(.gen_handler)
 .gen_handler   0x9d000180       0x10 c:/program files (x86)/microchip/xc32/v1.42/bin/bin/../../lib/gcc/pic32mx/4.8.3/../../../../pic32mx/lib/./proc/32MZ2048ECM144/crt0_mips32r2.o

.vectors        0x9d000200       0x70
                0x00000228                __vector_offset_0 = DEFINED (__vector_dispatch_0)?(. - _ebase_address):__vector_offset_default
 *(.vector_0)
                0x00000228                __vector_offset_1 = DEFINED (__vector_dispatch_1)?(. - _ebase_address):__vector_offset_default
 *(.vector_1)
                0x00000228                __vector_offset_2 = DEFINED (__vector_dispatch_2)?(. - _ebase_address):__vector_offset_default
 *(.vector_2)
                0x00000228                __vector_offset_3 = DEFINED (__vector_dispatch_3)?(. - _ebase_address):__vector_offset_default
 *(.vector_3)
                0x00000228                __vector_offset_4 = DEFINED (__vector_dispatch_4)?(. - _ebase_address):__vector_offset_default
 *(.vector_4)
                0x00000228                __vector_offset_5 = DEFINED (__vector_dispatch_5)?(. - _ebase_address):__vector_offset_default
 *(.vector_5)
                0x00000228                __vector_offset_6 = DEFINED (__vector_dispatch_6)?(. - _ebase_address):__vector_offset_default
 *(.vector_6)
                0x00000228                __vector_offset_7 = DEFINED (__vector_dispatch_7)?(. - _ebase_address):__vector_offset_default
 *(.vector_7)
                0x00000228                __vector_offset_8 = DEFINED (__vector_dispatch_8)?(. - _ebase_address):__vector_offset_default
 *(.vector_8)
                0x00000228                __vector_offset_9 = DEFINED (__vector_dispatch_9)?(. - _ebase_address):__vector_offset_default
 *(.vector_9)
                0x00000228                __vector_offset_10 = DEFINED (__vector_dispatch_10)?(. - _ebase_address):__vector_offset_default
 *(.vector_10)
                0x00000228                __vector_offset_11 = DEFINED (__vector_dispatch_11)?(. - _ebase_address):__vector_offset_default
 *(.vector_11)
                0x00000228                __vector_offset_12 = DEFINED (__vector_dispatch_12)?(. - _ebase_address):__vector_offset_default
 *(.vector_12)
                0x00000228                __vector_offset_13 = DEFINED (__vector_dispatch_13)?(. - _ebase_address):__vector_offset_default
 *(.vector_13)
                0x00000228                __vector_offset_14 = DEFINED (__vector_dispatch_14)?(. - _ebase_address):__vector_offset_default
 *(.vector_14)
                0x00000228                __vector_offset_15 = DEFINED (__vector_dispatch_15)?(. - _ebase_address):__vector_offset_default
 *(.vector_15)
                0x00000228                __vector_offset_16 = DEFINED (__vector_dispatch_16)?(. - _ebase_address):__vector_offset_default
 *(.vector_16)
                0x00000228                __vector_offset_17 = DEFINED (__vector_dispatch_17)?(. - _ebase_address):__vector_offset_default
 *(.vector_17)
                0x00000228                __vector_offset_18 = DEFINED (__vector_dispatch_18)?(. - _ebase_address):__vector_offset_default
 *(.vector_18)
                0x00000228                __vector_offset_19 = DEFINED (__vector_dispatch_19)?(. - _ebase_address):__vector_offset_default
 *(.vector_19)
                0x00000228                __vector_offset_20 = DEFINED (__vector_dispatch_20)?(. - _ebase_address):__vector_offset_default
 *(.vector_20)
                0x00000228                __vector_offset_21 = DEFINED (__vector_dispatch_21)?(. - _ebase_address):__vector_offset_default
 *(.vector_21)
                0x00000228                __vector_offset_22 = DEFINED (__vector_dispatch_22)?(. - _ebase_address):__vector_offset_default
 *(.vector_22)
                0x00000228                __vector_offset_23 = DEFINED (__vector_dispatch_23)?(. - _ebase_address):__vector_offset_default
 *(.vector_23)
                0x00000228                __vector_offset_24 = DEFINED (__vector_dispatch_24)?(. - _ebase_address):__vector_offset_default
 *(.vector_24)
                0x00000228                __vector_offset_25 = DEFINED (__vector_dispatch_25)?(. - _ebase_address):__vector_offset_default
 *(.vector_25)
                0x00000228                __vector_offset_26 = DEFINED (__vector_dispatch_26)?(. - _ebase_address):__vector_offset_default
 *(.vector_26)
                0x00000228                __vector_offset_27 = DEFINED (__vector_dispatch_27)?(. - _ebase_address):__vector_offset_default
 *(.vector_27)
                0x00000228                __vector_offset_28 = DEFINED (__vector_dispatch_28)?(. - _ebase_address):__vector_offset_default
 *(.vector_28)
                0x00000228                __vector_offset_29 = DEFINED (__vector_dispatch_29)?(. - _ebase_address):__vector_offset_default
 *(.vector_29)
                0x00000228                __vector_offset_30 = DEFINED (__vector_dispatch_30)?(. - _ebase_address):__vector_offset_default
 *(.vector_30)
                0x00000228                __vector_offset_31 = DEFINED (__vector_dispatch_31)?(. - _ebase_address):__vector_offset_default
 *(.vector_31)
                0x00000228                __vector_offset_32 = DEFINED (__vector_dispatch_32)?(. - _ebase_address):__vector_offset_default
 *(.vector_32)
                0x00000228                __vector_offset_33 = DEFINED (__vector_dispatch_33)?(. - _ebase_address):__vector_offset_default
 *(.vector_33)
                0x00000228                __vector_offset_34 = DEFINED (__vector_dispatch_34)?(. - _ebase_address):__vector_offset_default
 *(.vector_34)
                0x00000228                __vector_offset_35 = DEFINED (__vector_dispatch_35)?(. - _ebase_address):__vector_offset_default
 *(.vector_35)
                0x00000200                __vector_offset_36 = DEFINED (__vector_dispatch_36)?(. - _ebase_address):__vector_offset_default
 *(.vector_36)
 .vector_36     0x9d000200        0x8 build/pic32mz_ef_sk_meb2/debug/_ext/1951523377/system_interrupt.o
                0x9d000200                __vector_dispatch_36
                0x00000228                __vector_offset_37 = DEFINED (__vector_dispatch_37)?(. - _ebase_address):__vector_offset_default
 *(.vector_37)
                0x00000228                __vector_offset_38 = DEFINED (__vector_dispatch_38)?(. - _ebase_address):__vector_offset_default
 *(.vector_38)
                0x00000228                __vector_offset_39 = DEFINED (__vector_dispatch_39)?(. - _ebase_address):__vector_offset_default
 *(.vector_39)
                0x00000228                __vector_offset_40 = DEFINED (__vector_dispatch_40)?(. - _ebase_address):__vector_offset_default
 *(.vector_40)
                0x00000228                __vector_offset_41 = DEFINED (__vector_dispatch_41)?(. - _ebase_address):__vector_offset_default
 *(.vector_41)
                0x00000228                __vector_offset_42 = DEFINED (__vector_dispatch_42)?(. - _ebase_address):__vector_offset_default
 *(.vector_42)
                0x00000228                __vector_offset_43 = DEFINED (__vector_dispatch_43)?(. - _ebase_address):__vector_offset_default
 *(.vector_43)
                0x00000228                __vector_offset_44 = DEFINED (__vector_dispatch_44)?(. - _ebase_address):__vector_offset_default
 *(.vector_44)
                0x00000228                __vector_offset_45 = DEFINED (__vector_dispatch_45)?(. - _ebase_address):__vector_offset_default
 *(.vector_45)
                0x00000228                __vector_offset_46 = DEFINED (__vector_dispatch_46)?(. - _ebase_address):__vector_offset_default
 *(.vector_46)
                0x00000228                __vector_offset_47 = DEFINED (__vector_dispatch_47)?(. - _ebase_address):__vector_offset_default
 *(.vector_47)
                0x00000228                __vector_offset_48 = DEFINED (__vector_dispatch_48)?(. - _ebase_address):__vector_offset_default
 *(.vector_48)
                0x00000228                __vector_offset_49 = DEFINED (__vector_dispatch_49)?(. - _ebase_address):__vector_offset_default
 *(.vector_49)
                0x00000228                __vector_offset_50 = DEFINED (__vector_dispatch_50)?(. - _ebase_address):__vector_offset_default
 *(.vector_50)
                0x00000228                __vector_offset_51 = DEFINED (__vector_dispatch_51)?(. - _ebase_address):__vector_offset_default
 *(.vector_51)
                0x00000228                __vector_offset_52 = DEFINED (__vector_dispatch_52)?(. - _ebase_address):__vector_offset_default
 *(.vector_52)
                0x00000228                __vector_offset_53 = DEFINED (__vector_dispatch_53)?(. - _ebase_address):__vector_offset_default
 *(.vector_53)
                0x00000228                __vector_offset_54 = DEFINED (__vector_dispatch_54)?(. - _ebase_address):__vector_offset_default
 *(.vector_54)
                0x00000228                __vector_offset_55 = DEFINED (__vector_dispatch_55)?(. - _ebase_address):__vector_offset_default
 *(.vector_55)
                0x00000228                __vector_offset_56 = DEFINED (__vector_dispatch_56)?(. - _ebase_address):__vector_offset_default
 *(.vector_56)
                0x00000228                __vector_offset_57 = DEFINED (__vector_dispatch_57)?(. - _ebase_address):__vector_offset_default
 *(.vector_57)
                0x00000228                __vector_offset_58 = DEFINED (__vector_dispatch_58)?(. - _ebase_address):__vector_offset_default
 *(.vector_58)
                0x00000228                __vector_offset_59 = DEFINED (__vector_dispatch_59)?(. - _ebase_address):__vector_offset_default
 *(.vector_59)
                0x00000228                __vector_offset_60 = DEFINED (__vector_dispatch_60)?(. - _ebase_address):__vector_offset_default
 *(.vector_60)
                0x00000228                __vector_offset_61 = DEFINED (__vector_dispatch_61)?(. - _ebase_address):__vector_offset_default
 *(.vector_61)
                0x00000228                __vector_offset_62 = DEFINED (__vector_dispatch_62)?(. - _ebase_address):__vector_offset_default
 *(.vector_62)
                0x00000228                __vector_offset_63 = DEFINED (__vector_dispatch_63)?(. - _ebase_address):__vector_offset_default
 *(.vector_63)
                0x00000228                __vector_offset_64 = DEFINED (__vector_dispatch_64)?(. - _ebase_address):__vector_offset_default
 *(.vector_64)
                0x00000228                __vector_offset_65 = DEFINED (__vector_dispatch_65)?(. - _ebase_address):__vector_offset_default
 *(.vector_65)
                0x00000228                __vector_offset_66 = DEFINED (__vector_dispatch_66)?(. - _ebase_address):__vector_offset_default
 *(.vector_66)
                0x00000228                __vector_offset_67 = DEFINED (__vector_dispatch_67)?(. - _ebase_address):__vector_offset_default
 *(.vector_67)
                0x00000228                __vector_offset_68 = DEFINED (__vector_dispatch_68)?(. - _ebase_address):__vector_offset_default
 *(.vector_68)
                0x00000228                __vector_offset_69 = DEFINED (__vector_dispatch_69)?(. - _ebase_address):__vector_offset_default
 *(.vector_69)
                0x00000228                __vector_offset_70 = DEFINED (__vector_dispatch_70)?(. - _ebase_address):__vector_offset_default
 *(.vector_70)
                0x00000228                __vector_offset_71 = DEFINED (__vector_dispatch_71)?(. - _ebase_address):__vector_offset_default
 *(.vector_71)
                0x00000228                __vector_offset_72 = DEFINED (__vector_dispatch_72)?(. - _ebase_address):__vector_offset_default
 *(.vector_72)
                0x00000228                __vector_offset_73 = DEFINED (__vector_dispatch_73)?(. - _ebase_address):__vector_offset_default
 *(.vector_73)
                0x00000228                __vector_offset_74 = DEFINED (__vector_dispatch_74)?(. - _ebase_address):__vector_offset_default
 *(.vector_74)
                0x00000228                __vector_offset_75 = DEFINED (__vector_dispatch_75)?(. - _ebase_address):__vector_offset_default
 *(.vector_75)
                0x00000228                __vector_offset_76 = DEFINED (__vector_dispatch_76)?(. - _ebase_address):__vector_offset_default
 *(.vector_76)
                0x00000228                __vector_offset_77 = DEFINED (__vector_dispatch_77)?(. - _ebase_address):__vector_offset_default
 *(.vector_77)
                0x00000228                __vector_offset_78 = DEFINED (__vector_dispatch_78)?(. - _ebase_address):__vector_offset_default
 *(.vector_78)
                0x00000228                __vector_offset_79 = DEFINED (__vector_dispatch_79)?(. - _ebase_address):__vector_offset_default
 *(.vector_79)
                0x00000228                __vector_offset_80 = DEFINED (__vector_dispatch_80)?(. - _ebase_address):__vector_offset_default
 *(.vector_80)
                0x00000228                __vector_offset_81 = DEFINED (__vector_dispatch_81)?(. - _ebase_address):__vector_offset_default
 *(.vector_81)
                0x00000228                __vector_offset_82 = DEFINED (__vector_dispatch_82)?(. - _ebase_address):__vector_offset_default
 *(.vector_82)
                0x00000228                __vector_offset_83 = DEFINED (__vector_dispatch_83)?(. - _ebase_address):__vector_offset_default
 *(.vector_83)
                0x00000228                __vector_offset_84 = DEFINED (__vector_dispatch_84)?(. - _ebase_address):__vector_offset_default
 *(.vector_84)
                0x00000228                __vector_offset_85 = DEFINED (__vector_dispatch_85)?(. - _ebase_address):__vector_offset_default
 *(.vector_85)
                0x00000228                __vector_offset_86 = DEFINED (__vector_dispatch_86)?(. - _ebase_address):__vector_offset_default
 *(.vector_86)
                0x00000228                __vector_offset_87 = DEFINED (__vector_dispatch_87)?(. - _ebase_address):__vector_offset_default
 *(.vector_87)
                0x00000228                __vector_offset_88 = DEFINED (__vector_dispatch_88)?(. - _ebase_address):__vector_offset_default
 *(.vector_88)
                0x00000228                __vector_offset_89 = DEFINED (__vector_dispatch_89)?(. - _ebase_address):__vector_offset_default
 *(.vector_89)
                0x00000228                __vector_offset_90 = DEFINED (__vector_dispatch_90)?(. - _ebase_address):__vector_offset_default
 *(.vector_90)
                0x00000228                __vector_offset_91 = DEFINED (__vector_dispatch_91)?(. - _ebase_address):__vector_offset_default
 *(.vector_91)
                0x00000228                __vector_offset_92 = DEFINED (__vector_dispatch_92)?(. - _ebase_address):__vector_offset_default
 *(.vector_92)
                0x00000228                __vector_offset_93 = DEFINED (__vector_dispatch_93)?(. - _ebase_address):__vector_offset_default
 *(.vector_93)
                0x00000228                __vector_offset_94 = DEFINED (__vector_dispatch_94)?(. - _ebase_address):__vector_offset_default
 *(.vector_94)
                0x00000228                __vector_offset_95 = DEFINED (__vector_dispatch_95)?(. - _ebase_address):__vector_offset_default
 *(.vector_95)
                0x00000228                __vector_offset_96 = DEFINED (__vector_dispatch_96)?(. - _ebase_address):__vector_offset_default
 *(.vector_96)
                0x00000228                __vector_offset_97 = DEFINED (__vector_dispatch_97)?(. - _ebase_address):__vector_offset_default
 *(.vector_97)
                0x00000228                __vector_offset_98 = DEFINED (__vector_dispatch_98)?(. - _ebase_address):__vector_offset_default
 *(.vector_98)
                0x00000228                __vector_offset_99 = DEFINED (__vector_dispatch_99)?(. - _ebase_address):__vector_offset_default
 *(.vector_99)
                0x00000228                __vector_offset_100 = DEFINED (__vector_dispatch_100)?(. - _ebase_address):__vector_offset_default
 *(.vector_100)
                0x00000228                __vector_offset_101 = DEFINED (__vector_dispatch_101)?(. - _ebase_address):__vector_offset_default
 *(.vector_101)
                0x00000228                __vector_offset_102 = DEFINED (__vector_dispatch_102)?(. - _ebase_address):__vector_offset_default
 *(.vector_102)
                0x00000228                __vector_offset_103 = DEFINED (__vector_dispatch_103)?(. - _ebase_address):__vector_offset_default
 *(.vector_103)
                0x00000228                __vector_offset_104 = DEFINED (__vector_dispatch_104)?(. - _ebase_address):__vector_offset_default
 *(.vector_104)
                0x00000228                __vector_offset_105 = DEFINED (__vector_dispatch_105)?(. - _ebase_address):__vector_offset_default
 *(.vector_105)
                0x00000228                __vector_offset_106 = DEFINED (__vector_dispatch_106)?(. - _ebase_address):__vector_offset_default
 *(.vector_106)
                0x00000228                __vector_offset_107 = DEFINED (__vector_dispatch_107)?(. - _ebase_address):__vector_offset_default
 *(.vector_107)
                0x00000228                __vector_offset_108 = DEFINED (__vector_dispatch_108)?(. - _ebase_address):__vector_offset_default
 *(.vector_108)
                0x00000228                __vector_offset_109 = DEFINED (__vector_dispatch_109)?(. - _ebase_address):__vector_offset_default
 *(.vector_109)
                0x00000228                __vector_offset_110 = DEFINED (__vector_dispatch_110)?(. - _ebase_address):__vector_offset_default
 *(.vector_110)
                0x00000228                __vector_offset_111 = DEFINED (__vector_dispatch_111)?(. - _ebase_address):__vector_offset_default
 *(.vector_111)
                0x00000228                __vector_offset_112 = DEFINED (__vector_dispatch_112)?(. - _ebase_address):__vector_offset_default
 *(.vector_112)
                0x00000228                __vector_offset_113 = DEFINED (__vector_dispatch_113)?(. - _ebase_address):__vector_offset_default
 *(.vector_113)
                0x00000228                __vector_offset_114 = DEFINED (__vector_dispatch_114)?(. - _ebase_address):__vector_offset_default
 *(.vector_114)
                0x00000228                __vector_offset_115 = DEFINED (__vector_dispatch_115)?(. - _ebase_address):__vector_offset_default
 *(.vector_115)
                0x00000228                __vector_offset_116 = DEFINED (__vector_dispatch_116)?(. - _ebase_address):__vector_offset_default
 *(.vector_116)
                0x00000228                __vector_offset_117 = DEFINED (__vector_dispatch_117)?(. - _ebase_address):__vector_offset_default
 *(.vector_117)
                0x00000228                __vector_offset_118 = DEFINED (__vector_dispatch_118)?(. - _ebase_address):__vector_offset_default
 *(.vector_118)
                0x00000228                __vector_offset_119 = DEFINED (__vector_dispatch_119)?(. - _ebase_address):__vector_offset_default
 *(.vector_119)
                0x00000228                __vector_offset_120 = DEFINED (__vector_dispatch_120)?(. - _ebase_address):__vector_offset_default
 *(.vector_120)
                0x00000228                __vector_offset_121 = DEFINED (__vector_dispatch_121)?(. - _ebase_address):__vector_offset_default
 *(.vector_121)
                0x00000228                __vector_offset_122 = DEFINED (__vector_dispatch_122)?(. - _ebase_address):__vector_offset_default
 *(.vector_122)
                0x00000228                __vector_offset_123 = DEFINED (__vector_dispatch_123)?(. - _ebase_address):__vector_offset_default
 *(.vector_123)
                0x00000228                __vector_offset_124 = DEFINED (__vector_dispatch_124)?(. - _ebase_address):__vector_offset_default
 *(.vector_124)
                0x00000228                __vector_offset_125 = DEFINED (__vector_dispatch_125)?(. - _ebase_address):__vector_offset_default
 *(.vector_125)
                0x00000228                __vector_offset_126 = DEFINED (__vector_dispatch_126)?(. - _ebase_address):__vector_offset_default
 *(.vector_126)
                0x00000228                __vector_offset_127 = DEFINED (__vector_dispatch_127)?(. - _ebase_address):__vector_offset_default
 *(.vector_127)
                0x00000228                __vector_offset_128 = DEFINED (__vector_dispatch_128)?(. - _ebase_address):__vector_offset_default
 *(.vector_128)
                0x00000228                __vector_offset_129 = DEFINED (__vector_dispatch_129)?(. - _ebase_address):__vector_offset_default
 *(.vector_129)
                0x00000228                __vector_offset_130 = DEFINED (__vector_dispatch_130)?(. - _ebase_address):__vector_offset_default
 *(.vector_130)
                0x00000228                __vector_offset_131 = DEFINED (__vector_dispatch_131)?(. - _ebase_address):__vector_offset_default
 *(.vector_131)
                0x00000228                __vector_offset_132 = DEFINED (__vector_dispatch_132)?(. - _ebase_address):__vector_offset_default
 *(.vector_132)
                0x00000228                __vector_offset_133 = DEFINED (__vector_dispatch_133)?(. - _ebase_address):__vector_offset_default
 *(.vector_133)
                0x00000208                __vector_offset_134 = DEFINED (__vector_dispatch_134)?(. - _ebase_address):__vector_offset_default
 *(.vector_134)
 .vector_134    0x9d000208        0x8 build/pic32mz_ef_sk_meb2/debug/_ext/1951523377/system_interrupt.o
                0x9d000208                __vector_dispatch_134
                0x00000210                __vector_offset_135 = DEFINED (__vector_dispatch_135)?(. - _ebase_address):__vector_offset_default
 *(.vector_135)
 .vector_135    0x9d000210        0x8 build/pic32mz_ef_sk_meb2/debug/_ext/713288229/drv_gfx_lcc_generic.o
                0x9d000210                __vector_dispatch_135
                0x00000228                __vector_offset_136 = DEFINED (__vector_dispatch_136)?(. - _ebase_address):__vector_offset_default
 *(.vector_136)
                0x00000228                __vector_offset_137 = DEFINED (__vector_dispatch_137)?(. - _ebase_address):__vector_offset_default
 *(.vector_137)
                0x00000228                __vector_offset_138 = DEFINED (__vector_dispatch_138)?(. - _ebase_address):__vector_offset_default
 *(.vector_138)
                0x00000228                __vector_offset_139 = DEFINED (__vector_dispatch_139)?(. - _ebase_address):__vector_offset_default
 *(.vector_139)
                0x00000228                __vector_offset_140 = DEFINED (__vector_dispatch_140)?(. - _ebase_address):__vector_offset_default
 *(.vector_140)
                0x00000228                __vector_offset_141 = DEFINED (__vector_dispatch_141)?(. - _ebase_address):__vector_offset_default
 *(.vector_141)
                0x00000228                __vector_offset_142 = DEFINED (__vector_dispatch_142)?(. - _ebase_address):__vector_offset_default
 *(.vector_142)
                0x00000228                __vector_offset_143 = DEFINED (__vector_dispatch_143)?(. - _ebase_address):__vector_offset_default
 *(.vector_143)
                0x00000228                __vector_offset_144 = DEFINED (__vector_dispatch_144)?(. - _ebase_address):__vector_offset_default
 *(.vector_144)
                0x00000228                __vector_offset_145 = DEFINED (__vector_dispatch_145)?(. - _ebase_address):__vector_offset_default
 *(.vector_145)
                0x00000228                __vector_offset_146 = DEFINED (__vector_dispatch_146)?(. - _ebase_address):__vector_offset_default
 *(.vector_146)
                0x00000228                __vector_offset_147 = DEFINED (__vector_dispatch_147)?(. - _ebase_address):__vector_offset_default
 *(.vector_147)
                0x00000228                __vector_offset_148 = DEFINED (__vector_dispatch_148)?(. - _ebase_address):__vector_offset_default
 *(.vector_148)
                0x00000228                __vector_offset_149 = DEFINED (__vector_dispatch_149)?(. - _ebase_address):__vector_offset_default
 *(.vector_149)
                0x00000228                __vector_offset_150 = DEFINED (__vector_dispatch_150)?(. - _ebase_address):__vector_offset_default
 *(.vector_150)
                0x00000228                __vector_offset_151 = DEFINED (__vector_dispatch_151)?(. - _ebase_address):__vector_offset_default
 *(.vector_151)
                0x00000228                __vector_offset_152 = DEFINED (__vector_dispatch_152)?(. - _ebase_address):__vector_offset_default
 *(.vector_152)
                0x00000228                __vector_offset_153 = DEFINED (__vector_dispatch_153)?(. - _ebase_address):__vector_offset_default
 *(.vector_153)
                0x00000228                __vector_offset_154 = DEFINED (__vector_dispatch_154)?(. - _ebase_address):__vector_offset_default
 *(.vector_154)
                0x00000228                __vector_offset_155 = DEFINED (__vector_dispatch_155)?(. - _ebase_address):__vector_offset_default
 *(.vector_155)
                0x00000228                __vector_offset_156 = DEFINED (__vector_dispatch_156)?(. - _ebase_address):__vector_offset_default
 *(.vector_156)
                0x00000228                __vector_offset_157 = DEFINED (__vector_dispatch_157)?(. - _ebase_address):__vector_offset_default
 *(.vector_157)
                0x00000228                __vector_offset_158 = DEFINED (__vector_dispatch_158)?(. - _ebase_address):__vector_offset_default
 *(.vector_158)
                0x00000228                __vector_offset_159 = DEFINED (__vector_dispatch_159)?(. - _ebase_address):__vector_offset_default
 *(.vector_159)
                0x00000218                __vector_offset_160 = DEFINED (__vector_dispatch_160)?(. - _ebase_address):__vector_offset_default
 *(.vector_160)
 .vector_160    0x9d000218        0x8 build/pic32mz_ef_sk_meb2/debug/_ext/1951523377/system_interrupt.o
                0x9d000218                __vector_dispatch_160
                0x00000228                __vector_offset_161 = DEFINED (__vector_dispatch_161)?(. - _ebase_address):__vector_offset_default
 *(.vector_161)
                0x00000220                __vector_offset_162 = DEFINED (__vector_dispatch_162)?(. - _ebase_address):__vector_offset_default
 *(.vector_162)
 .vector_162    0x9d000220        0x8 build/pic32mz_ef_sk_meb2/debug/_ext/1951523377/system_interrupt.o
                0x9d000220                __vector_dispatch_162
                0x00000228                __vector_offset_163 = DEFINED (__vector_dispatch_163)?(. - _ebase_address):__vector_offset_default
 *(.vector_163)
                0x00000228                __vector_offset_164 = DEFINED (__vector_dispatch_164)?(. - _ebase_address):__vector_offset_default
 *(.vector_164)
                0x00000228                __vector_offset_165 = DEFINED (__vector_dispatch_165)?(. - _ebase_address):__vector_offset_default
 *(.vector_165)
                0x00000228                __vector_offset_166 = DEFINED (__vector_dispatch_166)?(. - _ebase_address):__vector_offset_default
 *(.vector_166)
                0x00000228                __vector_offset_167 = DEFINED (__vector_dispatch_167)?(. - _ebase_address):__vector_offset_default
 *(.vector_167)
                0x00000228                __vector_offset_168 = DEFINED (__vector_dispatch_168)?(. - _ebase_address):__vector_offset_default
 *(.vector_168)
                0x00000228                __vector_offset_169 = DEFINED (__vector_dispatch_169)?(. - _ebase_address):__vector_offset_default
 *(.vector_169)
                0x00000228                __vector_offset_170 = DEFINED (__vector_dispatch_170)?(. - _ebase_address):__vector_offset_default
 *(.vector_170)
                0x00000228                __vector_offset_171 = DEFINED (__vector_dispatch_171)?(. - _ebase_address):__vector_offset_default
 *(.vector_171)
                0x00000228                __vector_offset_172 = DEFINED (__vector_dispatch_172)?(. - _ebase_address):__vector_offset_default
 *(.vector_172)
                0x00000228                __vector_offset_173 = DEFINED (__vector_dispatch_173)?(. - _ebase_address):__vector_offset_default
 *(.vector_173)
                0x00000228                __vector_offset_174 = DEFINED (__vector_dispatch_174)?(. - _ebase_address):__vector_offset_default
 *(.vector_174)
                0x00000228                __vector_offset_175 = DEFINED (__vector_dispatch_175)?(. - _ebase_address):__vector_offset_default
 *(.vector_175)
                0x00000228                __vector_offset_176 = DEFINED (__vector_dispatch_176)?(. - _ebase_address):__vector_offset_default
 *(.vector_176)
                0x00000228                __vector_offset_177 = DEFINED (__vector_dispatch_177)?(. - _ebase_address):__vector_offset_default
 *(.vector_177)
                0x00000228                __vector_offset_178 = DEFINED (__vector_dispatch_178)?(. - _ebase_address):__vector_offset_default
 *(.vector_178)
                0x00000228                __vector_offset_179 = DEFINED (__vector_dispatch_179)?(. - _ebase_address):__vector_offset_default
 *(.vector_179)
                0x00000228                __vector_offset_180 = DEFINED (__vector_dispatch_180)?(. - _ebase_address):__vector_offset_default
 *(.vector_180)
                0x00000228                __vector_offset_181 = DEFINED (__vector_dispatch_181)?(. - _ebase_address):__vector_offset_default
 *(.vector_181)
                0x00000228                __vector_offset_182 = DEFINED (__vector_dispatch_182)?(. - _ebase_address):__vector_offset_default
 *(.vector_182)
                0x00000228                __vector_offset_183 = DEFINED (__vector_dispatch_183)?(. - _ebase_address):__vector_offset_default
 *(.vector_183)
                0x00000228                __vector_offset_184 = DEFINED (__vector_dispatch_184)?(. - _ebase_address):__vector_offset_default
 *(.vector_184)
                0x00000228                __vector_offset_185 = DEFINED (__vector_dispatch_185)?(. - _ebase_address):__vector_offset_default
 *(.vector_185)
                0x00000228                __vector_offset_186 = DEFINED (__vector_dispatch_186)?(. - _ebase_address):__vector_offset_default
 *(.vector_186)
                0x00000228                __vector_offset_187 = DEFINED (__vector_dispatch_187)?(. - _ebase_address):__vector_offset_default
 *(.vector_187)
                0x00000228                __vector_offset_188 = DEFINED (__vector_dispatch_188)?(. - _ebase_address):__vector_offset_default
 *(.vector_188)
                0x00000228                __vector_offset_189 = DEFINED (__vector_dispatch_189)?(. - _ebase_address):__vector_offset_default
 *(.vector_189)
                0x00000228                __vector_offset_190 = DEFINED (__vector_dispatch_190)?(. - _ebase_address):__vector_offset_default
 *(.vector_190)
                0x00000228                __vector_offset_191 = DEFINED (__vector_dispatch_191)?(. - _ebase_address):__vector_offset_default
 *(.vector_191)
                0x00000228                __vector_offset_192 = DEFINED (__vector_dispatch_192)?(. - _ebase_address):__vector_offset_default
 *(.vector_192)
                0x00000228                __vector_offset_193 = DEFINED (__vector_dispatch_193)?(. - _ebase_address):__vector_offset_default
 *(.vector_193)
                0x00000228                __vector_offset_194 = DEFINED (__vector_dispatch_194)?(. - _ebase_address):__vector_offset_default
 *(.vector_194)
                0x00000228                __vector_offset_195 = DEFINED (__vector_dispatch_195)?(. - _ebase_address):__vector_offset_default
 *(.vector_195)
                0x00000228                __vector_offset_196 = DEFINED (__vector_dispatch_196)?(. - _ebase_address):__vector_offset_default
 *(.vector_196)
                0x00000228                __vector_offset_197 = DEFINED (__vector_dispatch_197)?(. - _ebase_address):__vector_offset_default
 *(.vector_197)
                0x00000228                __vector_offset_198 = DEFINED (__vector_dispatch_198)?(. - _ebase_address):__vector_offset_default
 *(.vector_198)
                0x00000228                __vector_offset_199 = DEFINED (__vector_dispatch_199)?(. - _ebase_address):__vector_offset_default
 *(.vector_199)
                0x00000228                __vector_offset_200 = DEFINED (__vector_dispatch_200)?(. - _ebase_address):__vector_offset_default
 *(.vector_200)
                0x00000228                __vector_offset_201 = DEFINED (__vector_dispatch_201)?(. - _ebase_address):__vector_offset_default
 *(.vector_201)
                0x00000228                __vector_offset_202 = DEFINED (__vector_dispatch_202)?(. - _ebase_address):__vector_offset_default
 *(.vector_202)
                0x00000228                __vector_offset_203 = DEFINED (__vector_dispatch_203)?(. - _ebase_address):__vector_offset_default
 *(.vector_203)
                0x00000228                __vector_offset_204 = DEFINED (__vector_dispatch_204)?(. - _ebase_address):__vector_offset_default
 *(.vector_204)
                0x00000228                __vector_offset_205 = DEFINED (__vector_dispatch_205)?(. - _ebase_address):__vector_offset_default
 *(.vector_205)
                0x00000228                __vector_offset_206 = DEFINED (__vector_dispatch_206)?(. - _ebase_address):__vector_offset_default
 *(.vector_206)
                0x00000228                __vector_offset_207 = DEFINED (__vector_dispatch_207)?(. - _ebase_address):__vector_offset_default
 *(.vector_207)
                0x00000228                __vector_offset_208 = DEFINED (__vector_dispatch_208)?(. - _ebase_address):__vector_offset_default
 *(.vector_208)
                0x00000228                __vector_offset_209 = DEFINED (__vector_dispatch_209)?(. - _ebase_address):__vector_offset_default
 *(.vector_209)
                0x00000228                __vector_offset_210 = DEFINED (__vector_dispatch_210)?(. - _ebase_address):__vector_offset_default
 *(.vector_210)
                0x00000228                __vector_offset_211 = DEFINED (__vector_dispatch_211)?(. - _ebase_address):__vector_offset_default
 *(.vector_211)
                0x00000228                __vector_offset_212 = DEFINED (__vector_dispatch_212)?(. - _ebase_address):__vector_offset_default
 *(.vector_212)
                0x00000228                __vector_offset_213 = DEFINED (__vector_dispatch_213)?(. - _ebase_address):__vector_offset_default
 *(.vector_213)
                0x00000228                __vector_offset_214 = DEFINED (__vector_dispatch_214)?(. - _ebase_address):__vector_offset_default
 *(.vector_214)
                0x00000228                __vector_offset_215 = DEFINED (__vector_dispatch_215)?(. - _ebase_address):__vector_offset_default
 *(.vector_215)
                0x00000228                __vector_offset_216 = DEFINED (__vector_dispatch_216)?(. - _ebase_address):__vector_offset_default
 *(.vector_216)
                0x00000228                __vector_offset_217 = DEFINED (__vector_dispatch_217)?(. - _ebase_address):__vector_offset_default
 *(.vector_217)
                0x00000228                __vector_offset_218 = DEFINED (__vector_dispatch_218)?(. - _ebase_address):__vector_offset_default
 *(.vector_218)
                0x00000228                __vector_offset_219 = DEFINED (__vector_dispatch_219)?(. - _ebase_address):__vector_offset_default
 *(.vector_219)
                0x00000228                __vector_offset_220 = DEFINED (__vector_dispatch_220)?(. - _ebase_address):__vector_offset_default
 *(.vector_220)
                0x00000228                __vector_offset_221 = DEFINED (__vector_dispatch_221)?(. - _ebase_address):__vector_offset_default
 *(.vector_221)
                0x00000228                __vector_offset_222 = DEFINED (__vector_dispatch_222)?(. - _ebase_address):__vector_offset_default
 *(.vector_222)
                0x00000228                __vector_offset_223 = DEFINED (__vector_dispatch_223)?(. - _ebase_address):__vector_offset_default
 *(.vector_223)
                0x00000228                __vector_offset_224 = DEFINED (__vector_dispatch_224)?(. - _ebase_address):__vector_offset_default
 *(.vector_224)
                0x00000228                __vector_offset_225 = DEFINED (__vector_dispatch_225)?(. - _ebase_address):__vector_offset_default
 *(.vector_225)
                0x00000228                __vector_offset_226 = DEFINED (__vector_dispatch_226)?(. - _ebase_address):__vector_offset_default
 *(.vector_226)
                0x00000228                __vector_offset_227 = DEFINED (__vector_dispatch_227)?(. - _ebase_address):__vector_offset_default
 *(.vector_227)
                0x00000228                __vector_offset_228 = DEFINED (__vector_dispatch_228)?(. - _ebase_address):__vector_offset_default
 *(.vector_228)
                0x00000228                __vector_offset_229 = DEFINED (__vector_dispatch_229)?(. - _ebase_address):__vector_offset_default
 *(.vector_229)
                0x00000228                __vector_offset_230 = DEFINED (__vector_dispatch_230)?(. - _ebase_address):__vector_offset_default
 *(.vector_230)
                0x00000228                __vector_offset_231 = DEFINED (__vector_dispatch_231)?(. - _ebase_address):__vector_offset_default
 *(.vector_231)
                0x00000228                __vector_offset_232 = DEFINED (__vector_dispatch_232)?(. - _ebase_address):__vector_offset_default
 *(.vector_232)
                0x00000228                __vector_offset_233 = DEFINED (__vector_dispatch_233)?(. - _ebase_address):__vector_offset_default
 *(.vector_233)
                0x00000228                __vector_offset_234 = DEFINED (__vector_dispatch_234)?(. - _ebase_address):__vector_offset_default
 *(.vector_234)
                0x00000228                __vector_offset_235 = DEFINED (__vector_dispatch_235)?(. - _ebase_address):__vector_offset_default
 *(.vector_235)
                0x00000228                __vector_offset_236 = DEFINED (__vector_dispatch_236)?(. - _ebase_address):__vector_offset_default
 *(.vector_236)
                0x00000228                __vector_offset_237 = DEFINED (__vector_dispatch_237)?(. - _ebase_address):__vector_offset_default
 *(.vector_237)
                0x00000228                __vector_offset_238 = DEFINED (__vector_dispatch_238)?(. - _ebase_address):__vector_offset_default
 *(.vector_238)
                0x00000228                __vector_offset_239 = DEFINED (__vector_dispatch_239)?(. - _ebase_address):__vector_offset_default
 *(.vector_239)
                0x00000228                __vector_offset_240 = DEFINED (__vector_dispatch_240)?(. - _ebase_address):__vector_offset_default
 *(.vector_240)
                0x00000228                __vector_offset_241 = DEFINED (__vector_dispatch_241)?(. - _ebase_address):__vector_offset_default
 *(.vector_241)
                0x00000228                __vector_offset_242 = DEFINED (__vector_dispatch_242)?(. - _ebase_address):__vector_offset_default
 *(.vector_242)
                0x00000228                __vector_offset_243 = DEFINED (__vector_dispatch_243)?(. - _ebase_address):__vector_offset_default
 *(.vector_243)
                0x00000228                __vector_offset_244 = DEFINED (__vector_dispatch_244)?(. - _ebase_address):__vector_offset_default
 *(.vector_244)
                0x00000228                __vector_offset_245 = DEFINED (__vector_dispatch_245)?(. - _ebase_address):__vector_offset_default
 *(.vector_245)
                0x00000228                __vector_offset_246 = DEFINED (__vector_dispatch_246)?(. - _ebase_address):__vector_offset_default
 *(.vector_246)
                0x00000228                __vector_offset_247 = DEFINED (__vector_dispatch_247)?(. - _ebase_address):__vector_offset_default
 *(.vector_247)
                0x00000228                __vector_offset_248 = DEFINED (__vector_dispatch_248)?(. - _ebase_address):__vector_offset_default
 *(.vector_248)
                0x00000228                __vector_offset_249 = DEFINED (__vector_dispatch_249)?(. - _ebase_address):__vector_offset_default
 *(.vector_249)
                0x00000228                __vector_offset_250 = DEFINED (__vector_dispatch_250)?(. - _ebase_address):__vector_offset_default
 *(.vector_250)
                0x00000228                __vector_offset_251 = DEFINED (__vector_dispatch_251)?(. - _ebase_address):__vector_offset_default
 *(.vector_251)
                0x00000228                __vector_offset_252 = DEFINED (__vector_dispatch_252)?(. - _ebase_address):__vector_offset_default
 *(.vector_252)
                0x00000228                __vector_offset_253 = DEFINED (__vector_dispatch_253)?(. - _ebase_address):__vector_offset_default
 *(.vector_253)
                0x00000228                __vector_offset_254 = DEFINED (__vector_dispatch_254)?(. - _ebase_address):__vector_offset_default
 *(.vector_254)
                0x00000228                __vector_offset_255 = DEFINED (__vector_dispatch_255)?(. - _ebase_address):__vector_offset_default
 *(.vector_255)
                0x00000228                __vector_offset_default = (. - _ebase_address)
 *(.vector_default)
 .vector_default
                0x9d000228       0x48 c:/program files (x86)/microchip/xc32/v1.42/bin/bin/../../lib/gcc/pic32mx/4.8.3/../../../../pic32mx/lib\libpic32.a(defaultinterrupt.o)
                0x9d000228                _DefaultInterrupt

.startup
 *(.startup)

.text           0x9d000270        0x0
 *(.stub .gnu.linkonce.t.*)
 *(.text.*personality*)
 *(.mips16.fn.*)
 *(.mips16.call.*)
 *(.gnu.warning)
                0x9d000270                . = ALIGN (0x4)

.init           0x9d000270        0x0
 *crti.o(.init)
 *crtbegin.o(.init)
 *(EXCLUDE_FILE(*crtn.o *crtend?.o *crtend.o) .init)
 *crtend.o(.init)
 *crtn.o(.init)
                0x9d000270                . = ALIGN (0x4)

.fini           0x9d000270        0x0
 *(.fini)
                0x9d000270                . = ALIGN (0x4)

.preinit_array  0x9d000270        0x0
                0x9d000270                PROVIDE (__preinit_array_start, .)
 *(.preinit_array)
                0x9d000270                PROVIDE (__preinit_array_end, .)
                0x9d000270                . = ALIGN (0x4)

.init_array     0x9d000270        0x0
                0x9d000270                PROVIDE (__init_array_start, .)
 *(SORT(.init_array.*))
 *(.init_array)
                0x9d000270                PROVIDE (__init_array_end, .)
                0x9d000270                . = ALIGN (0x4)

.fini_array     0x9d000270        0x0
                0x9d000270                PROVIDE (__fini_array_start, .)
 *(SORT(.fini_array.*))
 *(.fini_array)
                0x9d000270                PROVIDE (__fini_array_end, .)
                0x9d000270                . = ALIGN (0x4)

.ctors          0x9d000270        0x0
 *crtbegin.o(.ctors)
 *crtbegin?.o(.ctors)
 *(EXCLUDE_FILE(*crtend?.o *crtend.o) .ctors)
 *(SORT(.ctors.*))
 *(.ctors)
                0x9d000270                . = ALIGN (0x4)

.dtors          0x9d000270        0x0
 *crtbegin.o(.dtors)
 *crtbegin?.o(.dtors)
 *(EXCLUDE_FILE(*crtend?.o *crtend.o) .dtors)
 *(SORT(.dtors.*))
 *(.dtors)
                0x9d000270                . = ALIGN (0x4)

.rodata         0x9d000270        0x0
 *(.gnu.linkonce.r.*)
 *(.rodata1)
                0x9d000270                . = ALIGN (0x4)

.sdata2         0x9fc004b0        0x0
 *(.sdata2 .sdata2.* .gnu.linkonce.s2.*)
                0x9fc004b0                . = ALIGN (0x4)

.sbss2          0x9fc004b0        0x0
 *(.sbss2 .sbss2.* .gnu.linkonce.sb2.*)
                0x9fc004b0                . = ALIGN (0x4)

.eh_frame_hdr
 *(.eh_frame_hdr)
                0x9fc004b0                . = ALIGN (0x4)

.eh_frame
 *(.eh_frame)
                0x9fc004b0                . = ALIGN (0x4)

.gcc_except_table
 *(.gcc_except_table .gcc_except_table.*)
                0x9fc004b0                . = ALIGN (0x4)

.dbg_data       0x80000280        0x0
                0x80000280                . = (. + DEFINED (_DEBUGGER)?0x200:0x0)
                0x80000280                . = (. + DEFINED (_DEBUGGER)?0x80:0x0)

.jcr            0x80000280        0x0
 *(.jcr)
                0x80000280                . = ALIGN (0x4)

.eh_frame
 *(.eh_frame)
                0x80000280                . = ALIGN (0x4)

.gcc_except_table
 *(.gcc_except_table .gcc_except_table.*)
                0x80000280                . = ALIGN (0x4)

.persist        0x80000280        0x0
                0x80000280                _persist_begin = .
 *(.persist .persist.*)
 *(.pbss .pbss.*)
                0x80000280                . = ALIGN (0x4)
                0x80000280                _persist_end = .

.data           0x80000280        0x0
 *(.gnu.linkonce.d.*)
 *(.data1)
                0x80000280                . = ALIGN (0x4)
                0x80000280                . = .
                0x80008270                _gp = (ALIGN (0x10) + 0x7ff0)

.got            0x80000280        0x0
 *(.got.plt)
 *(.got)
                0x80000280                . = ALIGN (0x4)

.sdata          0x80000280      0x210
                0x80000280                _sdata_begin = .
 *(.sdata .sdata.* .gnu.linkonce.s.*)
 .sdata         0x80000280        0x4 build/pic32mz_ef_sk_meb2/debug/_ext/493934858/lodepng.o
                0x80000280                LODEPNG_VERSION_STRING
 .sdata         0x80000284        0x8 build/pic32mz_ef_sk_meb2/debug/_ext/1597685232/gfxu_string_utils.o
                0x80000284                drawGlyphRow
 .sdata         0x8000028c        0x8 build/pic32mz_ef_sk_meb2/debug/_ext/713288229/drv_gfx_lcc_generic.o
                0x8000028c                DRIVER_NAME
 .sdata         0x80000294      0x1d4 build/pic32mz_ef_sk_meb2/debug/_ext/715821942/gfx_assets.o
                0x8000029c                fontList
                0x800002ac                TimesNewRoman12_index_table
                0x80000370                TimesNewRoman12_lookup_6E
                0x80000374                TimesNewRoman12_lookup_6B
                0x80000378                TimesNewRoman12_lookup_67_68
                0x80000380                TimesNewRoman12_lookup_65
                0x80000384                TimesNewRoman12_lookup_63
                0x80000388                TimesNewRoman12_lookup_61
                0x8000038c                TimesNewRoman12_lookup_52
                0x80000390                TimesNewRoman12_lookup_4D
                0x80000394                TimesNewRoman12_lookup_47
                0x80000398                TimesNewRoman12_lookup_2E
                0x8000039c                TimesNewRoman12_lookup_20
                0x800003a0                TimesNewRoman18_index_table
                0x80000434                TimesNewRoman18_lookup_6B
                0x8000043c                TimesNewRoman18_lookup_69
                0x80000444                TimesNewRoman18_lookup_63
                0x8000044c                TimesNewRoman18_lookup_61
                0x80000454                TimesNewRoman18_lookup_5F
                0x80000458                TimesNewRoman18_lookup_58
                0x8000045c                TimesNewRoman18_lookup_51
                0x80000460                TimesNewRoman18_lookup_46_47
 .sdata         0x80000468       0x24 c:/program files (x86)/microchip/xc32/v1.42/bin/bin/../../lib/gcc/pic32mx/4.8.3/../../../../pic32mx/lib\libpic32.a(pic32_init_cache.o)
                0x80000468                __pic32_icache_size
                0x8000046c                __pic32_icache_linesize
                0x80000470                __pic32_icache_ways
                0x80000474                __pic32_dcache_size
                0x80000478                __pic32_dcache_linesize
                0x8000047c                __pic32_dcache_ways
                0x80000480                __pic32_scache_size
                0x80000484                __pic32_scache_linesize
                0x80000488                __pic32_scache_ways
 .sdata         0x8000048c        0x4 c:/program files (x86)/microchip/xc32/v1.42/bin/bin/../../lib/gcc/pic32mx/4.8.3/../../../../pic32mx/lib\libpic32.a(xc32_uart.o)
                0x8000048c                __XC_UART
                0x80000490                . = ALIGN (0x4)
                0x80000490                _sdata_end = .

.lit8
 *(.lit8)

.lit4
 *(.lit4)
                0x80000490                . = ALIGN (0x4)
                0x80000490                _data_end = .
                0x80000490                _bss_begin = .

.sbss           0x80000490      0x124
                0x80000490                _sbss_begin = .
 *(.dynsbss)
 *(.sbss .sbss.* .gnu.linkonce.sb.*)
 .sbss          0x80000490        0x8 build/pic32mz_ef_sk_meb2/debug/_ext/1360937237/app.o
                0x80000490                successCount
                0x80000494                color
 .sbss          0x80000498        0x4 build/pic32mz_ef_sk_meb2/debug/_ext/1360937237/ov2640.o
 .sbss          0x8000049c       0x48 build/pic32mz_ef_sk_meb2/debug/_ext/1597685232/gfxu_image_jpg_internal.o
 .sbss          0x800004e4        0x4 build/pic32mz_ef_sk_meb2/debug/_ext/1907747181/libaria.o
                0x800004e4                _initialized
 .sbss          0x800004e8        0x4 build/pic32mz_ef_sk_meb2/debug/_ext/1907747181/libaria_context.o
                0x800004e8                _activeContext
 .sbss          0x800004ec        0x4 build/pic32mz_ef_sk_meb2/debug/_ext/1847583374/gfx_context.o
                0x800004ec                _contextActive
 .sbss          0x800004f0        0x8 build/pic32mz_ef_sk_meb2/debug/_ext/1847583374/gfx_driver_interface.o
                0x800004f0                GFX_DriverInterfaces
 .sbss          0x800004f8        0x6 build/pic32mz_ef_sk_meb2/debug/_ext/1219754583/drv_i2c_static_buffer_model.o
                0x800004f8                QueueDelta_0
                0x800004fa                QueueOut_0
                0x800004fc                QueueIn_0
 .sbss          0x800004fe        0x1 build/pic32mz_ef_sk_meb2/debug/_ext/199634090/drv_tmr_static.o
 *fill*         0x800004ff        0x1 
 .sbss          0x80000500       0x28 build/pic32mz_ef_sk_meb2/debug/_ext/713288229/drv_gfx_lcc_generic.o
                0x80000505                allowLineUpdate
                0x80000506                allowFrameUpdate
                0x80000508                vsyncEnd
                0x8000050c                vsyncPulseUp
                0x80000510                vsyncPulseDown
                0x80000514                vsyncPeriod
                0x80000518                hSyncs
                0x8000051c                pixels
                0x80000520                offset
                0x80000524                line
 .sbss          0x80000528        0x4 build/pic32mz_ef_sk_meb2/debug/_ext/1740298103/libaria_harmony.o
 .sbss          0x8000052c        0xc build/pic32mz_ef_sk_meb2/debug/_ext/1951523377/system_exceptions.o
 *(.scommon)
 .scommon       0x80000538       0x10 build/pic32mz_ef_sk_meb2/debug/_ext/1360937237/app.o
                0x80000538                delayTimer
                0x8000053c                delay_ms
                0x80000540                appData
                0x80000544                i2cOpStatus
 .scommon       0x80000548        0x4 build/pic32mz_ef_sk_meb2/debug/_ext/1360937237/ov2640.o
                0x80000548                ov2640I2CHandler
 .scommon       0x8000054c        0x4 build/pic32mz_ef_sk_meb2/debug/_ext/1847583374/gfx_color_blend.o
                0x8000054c                last
 .scommon       0x80000550       0x10 build/pic32mz_ef_sk_meb2/debug/_ext/1219754583/drv_i2c_static_buffer_model.o
                0x80000550                i2c0ClientObj
                0x80000558                lBufferObj0
                0x8000055c                i2c0State
 .scommon       0x80000560       0x30 build/pic32mz_ef_sk_meb2/debug/_ext/713288229/drv_gfx_lcc_generic.o
                0x80000560                DISP_VER_RESOLUTION
                0x80000564                VER_BLANK
                0x80000568                state
                0x8000056c                HBackPorch
                0x80000570                cntxt
                0x80000574                DISP_VER_BACK_PORCH
                0x80000578                DISP_HOR_FRONT_PORCH
                0x8000057c                DISP_HOR_PULSE_WIDTH
                0x80000580                DISP_VER_PULSE_WIDTH
                0x80000584                DISP_HOR_RESOLUTION
                0x80000588                DISP_HOR_BACK_PORCH
                0x8000058c                DISP_VER_FRONT_PORCH
 .scommon       0x80000590        0x4 build/pic32mz_ef_sk_meb2/debug/_ext/1740298103/libaria_harmony.o
                0x80000590                libariaObj
 .scommon       0x80000594       0x10 build/pic32mz_ef_sk_meb2/debug/_ext/1740298103/libaria_init.o
                0x80000594                ImageWidget1
                0x80000598                LabelWidget1
                0x8000059c                ButtonWidget1
                0x800005a0                RectangleWidget1
 .scommon       0x800005a4        0x8 build/pic32mz_ef_sk_meb2/debug/_ext/924081491/sys_devcon.o
                0x800005a4                sysDevconObj
 .scommon       0x800005ac        0x8 build/pic32mz_ef_sk_meb2/debug/_ext/1951523377/system_init.o
                0x800005ac                sysObj
                0x800005b4                _sbss_end = .
                0x800005b4                . = ALIGN (0x4)

.bss            0x800005b4      0x19c
 *(.dynbss)
 *(COMMON)
 COMMON         0x800005b4       0x80 build/pic32mz_ef_sk_meb2/debug/_ext/853959373/sys_dma.o
                0x800005b4                gSysDMAChannelObj
 COMMON         0x80000634       0x2c build/pic32mz_ef_sk_meb2/debug/_ext/1219754583/drv_i2c_static_buffer_model.o
                0x80000634                i2c0Obj
 COMMON         0x80000660       0x40 build/pic32mz_ef_sk_meb2/debug/_ext/1740298103/libaria_init.o
                0x80000660                defaultScheme
 COMMON         0x800006a0       0xb0 build/pic32mz_ef_sk_meb2/debug/_ext/1847413222/sys_clk.o
                0x800006a0                clkObject
                0x80000750                . = ALIGN ((. != 0x0)?0x4:0x1)
                0x80000750                . = ALIGN (0x4)
                0x80000750                _end = .
                0x80000750                _bss_end = .
                0x00080000                _bmxdudba_address = 0x80000
                0x00080000                _bmxdupba_address = 0x80000

/DISCARD/
 *(.pdr)
 *(.rel.dyn)
 *(.note.GNU-stack)
 *(.note.GNU-stack)
 *(.gnu_debuglink)
 *(.gnu.lto_*)
 *(.discard)

.gptab.sdata
 *(.gptab.data)
 *(.gptab.sdata)

.gptab.sbss
 *(.gptab.bss)
 *(.gptab.sbss)

.mdebug.abi32   0x80000750        0x0
 *(.mdebug.abi32)
 .mdebug.abi32  0x80000750        0x0 c:/program files (x86)/microchip/xc32/v1.42/bin/bin/../../lib/gcc/pic32mx/4.8.3/../../../../pic32mx/lib\software-debug-break.o
 .mdebug.abi32  0x80000750        0x0 build/pic32mz_ef_sk_meb2/debug/_ext/1360937237/app.o
 .mdebug.abi32  0x80000750        0x0 build/pic32mz_ef_sk_meb2/debug/_ext/1360937237/main.o
 .mdebug.abi32  0x80000750        0x0 build/pic32mz_ef_sk_meb2/debug/_ext/1360937237/ov2640.o
 .mdebug.abi32  0x80000750        0x0 build/pic32mz_ef_sk_meb2/debug/_ext/1360937237/i2c_master_noint.o
 .mdebug.abi32  0x80000750        0x0 build/pic32mz_ef_sk_meb2/debug/_ext/426253641/jidctint.o
 .mdebug.abi32  0x80000750        0x0 build/pic32mz_ef_sk_meb2/debug/_ext/1597685232/gfxu_image.o
 .mdebug.abi32  0x80000750        0x0 build/pic32mz_ef_sk_meb2/debug/_ext/1597685232/gfxu_image_png_external.o
 .mdebug.abi32  0x80000750        0x0 build/pic32mz_ef_sk_meb2/debug/_ext/1597685232/gfxu_image_png_internal.o
 .mdebug.abi32  0x80000750        0x0 build/pic32mz_ef_sk_meb2/debug/_ext/1597685232/gfxu_image_jpg_internal.o
 .mdebug.abi32  0x80000750        0x0 build/pic32mz_ef_sk_meb2/debug/_ext/493934858/lodepng.o
 .mdebug.abi32  0x80000750        0x0 build/pic32mz_ef_sk_meb2/debug/_ext/1597685232/gfxu_image_raw_external.o
 .mdebug.abi32  0x80000750        0x0 build/pic32mz_ef_sk_meb2/debug/_ext/1597685232/gfxu_image_raw_internal.o
 .mdebug.abi32  0x80000750        0x0 build/pic32mz_ef_sk_meb2/debug/_ext/1597685232/gfxu_image_rle_external.o
 .mdebug.abi32  0x80000750        0x0 build/pic32mz_ef_sk_meb2/debug/_ext/1597685232/gfxu_image_rle_internal.o
 .mdebug.abi32  0x80000750        0x0 build/pic32mz_ef_sk_meb2/debug/_ext/1597685232/gfxu_image_utils.o
 .mdebug.abi32  0x80000750        0x0 build/pic32mz_ef_sk_meb2/debug/_ext/1597685232/gfxu_palette.o
 .mdebug.abi32  0x80000750        0x0 build/pic32mz_ef_sk_meb2/debug/_ext/1597685232/gfxu_string.o
 .mdebug.abi32  0x80000750        0x0 build/pic32mz_ef_sk_meb2/debug/_ext/1597685232/gfxu_string_external.o
 .mdebug.abi32  0x80000750        0x0 build/pic32mz_ef_sk_meb2/debug/_ext/1597685232/gfxu_string_internal.o
 .mdebug.abi32  0x80000750        0x0 build/pic32mz_ef_sk_meb2/debug/_ext/1597685232/gfxu_string_query.o
 .mdebug.abi32  0x80000750        0x0 build/pic32mz_ef_sk_meb2/debug/_ext/1597685232/gfxu_string_utils.o
 .mdebug.abi32  0x80000750        0x0 build/pic32mz_ef_sk_meb2/debug/_ext/1907747181/libaria.o
 .mdebug.abi32  0x80000750        0x0 build/pic32mz_ef_sk_meb2/debug/_ext/1907747181/libaria_context.o
 .mdebug.abi32  0x80000750        0x0 build/pic32mz_ef_sk_meb2/debug/_ext/1907747181/libaria_context_paint.o
 .mdebug.abi32  0x80000750        0x0 build/pic32mz_ef_sk_meb2/debug/_ext/1907747181/libaria_draw.o
 .mdebug.abi32  0x80000750        0x0 build/pic32mz_ef_sk_meb2/debug/_ext/1907747181/libaria_editwidget.o
 .mdebug.abi32  0x80000750        0x0 build/pic32mz_ef_sk_meb2/debug/_ext/1907747181/libaria_event.o
 .mdebug.abi32  0x80000750        0x0 build/pic32mz_ef_sk_meb2/debug/_ext/1907747181/libaria_input.o
 .mdebug.abi32  0x80000750        0x0 build/pic32mz_ef_sk_meb2/debug/_ext/1907747181/libaria_layer.o
 .mdebug.abi32  0x80000750        0x0 build/pic32mz_ef_sk_meb2/debug/_ext/1907747181/libaria_list.o
 .mdebug.abi32  0x80000750        0x0 build/pic32mz_ef_sk_meb2/debug/_ext/1907747181/libaria_scheme.o
 .mdebug.abi32  0x80000750        0x0 build/pic32mz_ef_sk_meb2/debug/_ext/1907747181/libaria_screen.o
 .mdebug.abi32  0x80000750        0x0 build/pic32mz_ef_sk_meb2/debug/_ext/1907747181/libaria_string.o
 .mdebug.abi32  0x80000750        0x0 build/pic32mz_ef_sk_meb2/debug/_ext/1907747181/libaria_utils.o
 .mdebug.abi32  0x80000750        0x0 build/pic32mz_ef_sk_meb2/debug/_ext/1907747181/libaria_widget.o
 .mdebug.abi32  0x80000750        0x0 build/pic32mz_ef_sk_meb2/debug/_ext/1907747181/libaria_widget_skin_classic.o
 .mdebug.abi32  0x80000750        0x0 build/pic32mz_ef_sk_meb2/debug/_ext/1907747181/libaria_widget_button.o
 .mdebug.abi32  0x80000750        0x0 build/pic32mz_ef_sk_meb2/debug/_ext/1907747181/libaria_widget_button_skin_classic.o
 .mdebug.abi32  0x80000750        0x0 build/pic32mz_ef_sk_meb2/debug/_ext/1907747181/libaria_widget_checkbox.o
 .mdebug.abi32  0x80000750        0x0 build/pic32mz_ef_sk_meb2/debug/_ext/1907747181/libaria_widget_checkbox_skin_classic.o
 .mdebug.abi32  0x80000750        0x0 build/pic32mz_ef_sk_meb2/debug/_ext/1907747181/libaria_widget_circle.o
 .mdebug.abi32  0x80000750        0x0 build/pic32mz_ef_sk_meb2/debug/_ext/1907747181/libaria_widget_circle_skin_classic.o
 .mdebug.abi32  0x80000750        0x0 build/pic32mz_ef_sk_meb2/debug/_ext/1907747181/libaria_widget_drawsurface.o
 .mdebug.abi32  0x80000750        0x0 build/pic32mz_ef_sk_meb2/debug/_ext/1907747181/libaria_widget_drawsurface_skin_classic.o
 .mdebug.abi32  0x80000750        0x0 build/pic32mz_ef_sk_meb2/debug/_ext/1907747181/libaria_widget_gradient.o
 .mdebug.abi32  0x80000750        0x0 build/pic32mz_ef_sk_meb2/debug/_ext/1907747181/libaria_widget_gradient_skin_classic.o
 .mdebug.abi32  0x80000750        0x0 build/pic32mz_ef_sk_meb2/debug/_ext/1907747181/libaria_widget_groupbox.o
 .mdebug.abi32  0x80000750        0x0 build/pic32mz_ef_sk_meb2/debug/_ext/1907747181/libaria_widget_groupbox_skin_classic.o
 .mdebug.abi32  0x80000750        0x0 build/pic32mz_ef_sk_meb2/debug/_ext/1907747181/libaria_widget_image.o
 .mdebug.abi32  0x80000750        0x0 build/pic32mz_ef_sk_meb2/debug/_ext/1907747181/libaria_widget_image_skin_classic.o
 .mdebug.abi32  0x80000750        0x0 build/pic32mz_ef_sk_meb2/debug/_ext/1907747181/libaria_widget_imagesequence.o
 .mdebug.abi32  0x80000750        0x0 build/pic32mz_ef_sk_meb2/debug/_ext/1907747181/libaria_widget_imagesequence_skin_classic.o
 .mdebug.abi32  0x80000750        0x0 build/pic32mz_ef_sk_meb2/debug/_ext/1907747181/libaria_widget_keypad.o
 .mdebug.abi32  0x80000750        0x0 build/pic32mz_ef_sk_meb2/debug/_ext/1907747181/libaria_widget_keypad_skin_classic.o
 .mdebug.abi32  0x80000750        0x0 build/pic32mz_ef_sk_meb2/debug/_ext/1907747181/libaria_widget_label.o
 .mdebug.abi32  0x80000750        0x0 build/pic32mz_ef_sk_meb2/debug/_ext/1907747181/libaria_widget_label_skin_classic.o
 .mdebug.abi32  0x80000750        0x0 build/pic32mz_ef_sk_meb2/debug/_ext/1907747181/libaria_widget_line.o
 .mdebug.abi32  0x80000750        0x0 build/pic32mz_ef_sk_meb2/debug/_ext/1907747181/libaria_widget_line_skin_classic.o
 .mdebug.abi32  0x80000750        0x0 build/pic32mz_ef_sk_meb2/debug/_ext/1907747181/libaria_widget_list.o
 .mdebug.abi32  0x80000750        0x0 build/pic32mz_ef_sk_meb2/debug/_ext/1907747181/libaria_widget_list_skin_classic.o
 .mdebug.abi32  0x80000750        0x0 build/pic32mz_ef_sk_meb2/debug/_ext/1907747181/libaria_widget_listwheel.o
 .mdebug.abi32  0x80000750        0x0 build/pic32mz_ef_sk_meb2/debug/_ext/1907747181/libaria_widget_listwheel_skin_classic.o
 .mdebug.abi32  0x80000750        0x0 build/pic32mz_ef_sk_meb2/debug/_ext/1907747181/libaria_widget_progressbar.o
 .mdebug.abi32  0x80000750        0x0 build/pic32mz_ef_sk_meb2/debug/_ext/1907747181/libaria_widget_progressbar_skin_classic.o
 .mdebug.abi32  0x80000750        0x0 build/pic32mz_ef_sk_meb2/debug/_ext/1907747181/libaria_widget_radiobutton.o
 .mdebug.abi32  0x80000750        0x0 build/pic32mz_ef_sk_meb2/debug/_ext/1907747181/libaria_widget_radiobutton_skin_classic.o
 .mdebug.abi32  0x80000750        0x0 build/pic32mz_ef_sk_meb2/debug/_ext/1907747181/libaria_radiobutton_group.o
 .mdebug.abi32  0x80000750        0x0 build/pic32mz_ef_sk_meb2/debug/_ext/1907747181/libaria_widget_rectangle.o
 .mdebug.abi32  0x80000750        0x0 build/pic32mz_ef_sk_meb2/debug/_ext/1907747181/libaria_widget_rectangle_skin_classic.o
 .mdebug.abi32  0x80000750        0x0 build/pic32mz_ef_sk_meb2/debug/_ext/1907747181/libaria_widget_scrollbar.o
 .mdebug.abi32  0x80000750        0x0 build/pic32mz_ef_sk_meb2/debug/_ext/1907747181/libaria_widget_scrollbar_skin_classic.o
 .mdebug.abi32  0x80000750        0x0 build/pic32mz_ef_sk_meb2/debug/_ext/1907747181/libaria_widget_slider.o
 .mdebug.abi32  0x80000750        0x0 build/pic32mz_ef_sk_meb2/debug/_ext/1907747181/libaria_widget_slider_skin_classic.o
 .mdebug.abi32  0x80000750        0x0 build/pic32mz_ef_sk_meb2/debug/_ext/1907747181/libaria_widget_textfield.o
 .mdebug.abi32  0x80000750        0x0 build/pic32mz_ef_sk_meb2/debug/_ext/1907747181/libaria_widget_textfield_skin_classic.o
 .mdebug.abi32  0x80000750        0x0 build/pic32mz_ef_sk_meb2/debug/_ext/1907747181/libaria_widget_touchtest.o
 .mdebug.abi32  0x80000750        0x0 build/pic32mz_ef_sk_meb2/debug/_ext/1907747181/libaria_widget_touchtest_skin_classic.o
 .mdebug.abi32  0x80000750        0x0 build/pic32mz_ef_sk_meb2/debug/_ext/1907747181/libaria_widget_window.o
 .mdebug.abi32  0x80000750        0x0 build/pic32mz_ef_sk_meb2/debug/_ext/1907747181/libaria_widget_window_skin_classic.o
 .mdebug.abi32  0x80000750        0x0 build/pic32mz_ef_sk_meb2/debug/_ext/1847583374/gfx.o
 .mdebug.abi32  0x80000750        0x0 build/pic32mz_ef_sk_meb2/debug/_ext/1847583374/gfx_color.o
 .mdebug.abi32  0x80000750        0x0 build/pic32mz_ef_sk_meb2/debug/_ext/1847583374/gfx_context.o
 .mdebug.abi32  0x80000750        0x0 build/pic32mz_ef_sk_meb2/debug/_ext/1847583374/gfx_default_impl.o
 .mdebug.abi32  0x80000750        0x0 build/pic32mz_ef_sk_meb2/debug/_ext/1847583374/gfx_display.o
 .mdebug.abi32  0x80000750        0x0 build/pic32mz_ef_sk_meb2/debug/_ext/1847583374/gfx_driver_interface.o
 .mdebug.abi32  0x80000750        0x0 build/pic32mz_ef_sk_meb2/debug/_ext/1847583374/gfx_get.o
 .mdebug.abi32  0x80000750        0x0 build/pic32mz_ef_sk_meb2/debug/_ext/1847583374/gfx_interface.o
 .mdebug.abi32  0x80000750        0x0 build/pic32mz_ef_sk_meb2/debug/_ext/1847583374/gfx_layer.o
 .mdebug.abi32  0x80000750        0x0 build/pic32mz_ef_sk_meb2/debug/_ext/1847583374/gfx_pixel_buffer.o
 .mdebug.abi32  0x80000750        0x0 build/pic32mz_ef_sk_meb2/debug/_ext/1847583374/gfx_rect.o
 .mdebug.abi32  0x80000750        0x0 build/pic32mz_ef_sk_meb2/debug/_ext/1847583374/gfx_util.o
 .mdebug.abi32  0x80000750        0x0 build/pic32mz_ef_sk_meb2/debug/_ext/1847583374/gfx_set.o
 .mdebug.abi32  0x80000750        0x0 build/pic32mz_ef_sk_meb2/debug/_ext/1847583374/gfx_color_blend.o
 .mdebug.abi32  0x80000750        0x0 build/pic32mz_ef_sk_meb2/debug/_ext/1847583374/gfx_color_convert.o
 .mdebug.abi32  0x80000750        0x0 build/pic32mz_ef_sk_meb2/debug/_ext/1847583374/gfx_color_lerp.o
 .mdebug.abi32  0x80000750        0x0 build/pic32mz_ef_sk_meb2/debug/_ext/1847583374/gfx_color_value.o
 .mdebug.abi32  0x80000750        0x0 build/pic32mz_ef_sk_meb2/debug/_ext/1847583374/gfx_draw_blit.o
 .mdebug.abi32  0x80000750        0x0 build/pic32mz_ef_sk_meb2/debug/_ext/1847583374/gfx_draw_circle.o
 .mdebug.abi32  0x80000750        0x0 build/pic32mz_ef_sk_meb2/debug/_ext/1847583374/gfx_draw_line.o
 .mdebug.abi32  0x80000750        0x0 build/pic32mz_ef_sk_meb2/debug/_ext/1847583374/gfx_draw_pixel.o
 .mdebug.abi32  0x80000750        0x0 build/pic32mz_ef_sk_meb2/debug/_ext/1847583374/gfx_draw_rect.o
 .mdebug.abi32  0x80000750        0x0 build/pic32mz_ef_sk_meb2/debug/_ext/1847583374/gfx_math.o
 .mdebug.abi32  0x80000750        0x0 build/pic32mz_ef_sk_meb2/debug/_ext/853959373/sys_dma.o
 .mdebug.abi32  0x80000750        0x0 build/pic32mz_ef_sk_meb2/debug/_ext/1042686532/sys_int_pic32.o
 .mdebug.abi32  0x80000750        0x0 build/pic32mz_ef_sk_meb2/debug/_ext/1219754583/drv_i2c_static_buffer_model.o
 .mdebug.abi32  0x80000750        0x0 build/pic32mz_ef_sk_meb2/debug/_ext/1219754583/drv_i2c_mapping.o
 .mdebug.abi32  0x80000750        0x0 build/pic32mz_ef_sk_meb2/debug/_ext/199634090/drv_tmr_static.o
 .mdebug.abi32  0x80000750        0x0 build/pic32mz_ef_sk_meb2/debug/_ext/199634090/drv_tmr_mapping.o
 .mdebug.abi32  0x80000750        0x0 build/pic32mz_ef_sk_meb2/debug/_ext/713288229/drv_gfx_lcc_generic.o
 .mdebug.abi32  0x80000750        0x0 build/pic32mz_ef_sk_meb2/debug/_ext/1740298103/libaria_harmony.o
 .mdebug.abi32  0x80000750        0x0 build/pic32mz_ef_sk_meb2/debug/_ext/1740298103/libaria_init.o
 .mdebug.abi32  0x80000750        0x0 build/pic32mz_ef_sk_meb2/debug/_ext/1740298103/libaria_events.o
 .mdebug.abi32  0x80000750        0x0 build/pic32mz_ef_sk_meb2/debug/_ext/1740298103/libaria_macros.o
 .mdebug.abi32  0x80000750        0x0 build/pic32mz_ef_sk_meb2/debug/_ext/477038478/gfx_display_def.o
 .mdebug.abi32  0x80000750        0x0 build/pic32mz_ef_sk_meb2/debug/_ext/477038478/gfx_driver_def.o
 .mdebug.abi32  0x80000750        0x0 build/pic32mz_ef_sk_meb2/debug/_ext/1847413222/sys_clk.o
 .mdebug.abi32  0x80000750        0x0 build/pic32mz_ef_sk_meb2/debug/_ext/1847413222/sys_clk_pic32mz.o
 .mdebug.abi32  0x80000750        0x0 build/pic32mz_ef_sk_meb2/debug/_ext/924081491/sys_devcon.o
 .mdebug.abi32  0x80000750        0x0 build/pic32mz_ef_sk_meb2/debug/_ext/924081491/sys_devcon_pic32mz.o
 .mdebug.abi32  0x80000750        0x0 build/pic32mz_ef_sk_meb2/debug/_ext/50030870/sys_ports_static.o
 .mdebug.abi32  0x80000750        0x0 build/pic32mz_ef_sk_meb2/debug/_ext/1465531745/bsp.o
 .mdebug.abi32  0x80000750        0x0 build/pic32mz_ef_sk_meb2/debug/_ext/1951523377/system_init.o
 .mdebug.abi32  0x80000750        0x0 build/pic32mz_ef_sk_meb2/debug/_ext/1951523377/system_interrupt.o
 .mdebug.abi32  0x80000750        0x0 build/pic32mz_ef_sk_meb2/debug/_ext/1951523377/system_exceptions.o
 .mdebug.abi32  0x80000750        0x0 build/pic32mz_ef_sk_meb2/debug/_ext/1951523377/system_tasks.o
 .mdebug.abi32  0x80000750        0x0 build/pic32mz_ef_sk_meb2/debug/_ext/715821942/gfx_assets.o
 .mdebug.abi32  0x80000750        0x0 c:/program files (x86)/microchip/xc32/v1.42/bin/bin/../../lib/gcc/pic32mx/4.8.3\libgcc.a(floatunsisf.o)
 .mdebug.abi32  0x80000750        0x0 c:/program files (x86)/microchip/xc32/v1.42/bin/bin/../../lib/gcc/pic32mx/4.8.3/../../../../pic32mx/lib\libpic32.a(default-bootstrap-exception-handler.o)
 .mdebug.abi32  0x80000750        0x0 c:/program files (x86)/microchip/xc32/v1.42/bin/bin/../../lib/gcc/pic32mx/4.8.3/../../../../pic32mx/lib\libpic32.a(default-on-reset.o)
 .mdebug.abi32  0x80000750        0x0 c:/program files (x86)/microchip/xc32/v1.42/bin/bin/../../lib/gcc/pic32mx/4.8.3/../../../../pic32mx/lib\libpic32.a(default-on-bootstrap.o)
 .mdebug.abi32  0x80000750        0x0 c:/program files (x86)/microchip/xc32/v1.42/bin/bin/../../lib/gcc/pic32mx/4.8.3/../../../../pic32mx/lib\libpic32.a(defaultinterrupt.o)
 .mdebug.abi32  0x80000750        0x0 c:/program files (x86)/microchip/xc32/v1.42/bin/bin/../../lib/gcc/pic32mx/4.8.3/../../../../pic32mx/lib\libpic32.a(default-cache-err-exception-handler.o)
 .mdebug.abi32  0x80000750        0x0 c:/program files (x86)/microchip/xc32/v1.42/bin/bin/../../lib/gcc/pic32mx/4.8.3/../../../../pic32mx/lib\libpic32.a(default-simple-tlb-refill-exception-handler.o)
 .mdebug.abi32  0x80000750        0x0 c:/program files (x86)/microchip/xc32/v1.42/bin/bin/../../lib/gcc/pic32mx/4.8.3/../../../../pic32mx/lib\libc.a(fclose.o)
 .mdebug.abi32  0x80000750        0x0 c:/program files (x86)/microchip/xc32/v1.42/bin/bin/../../lib/gcc/pic32mx/4.8.3/../../../../pic32mx/lib\libc.a(fflush.o)
 .mdebug.abi32  0x80000750        0x0 c:/program files (x86)/microchip/xc32/v1.42/bin/bin/../../lib/gcc/pic32mx/4.8.3/../../../../pic32mx/lib\libc.a(fopen.o)
 .mdebug.abi32  0x80000750        0x0 c:/program files (x86)/microchip/xc32/v1.42/bin/bin/../../lib/gcc/pic32mx/4.8.3/../../../../pic32mx/lib\libc.a(fread.o)
 .mdebug.abi32  0x80000750        0x0 c:/program files (x86)/microchip/xc32/v1.42/bin/bin/../../lib/gcc/pic32mx/4.8.3/../../../../pic32mx/lib\libc.a(freopen.o)
 .mdebug.abi32  0x80000750        0x0 c:/program files (x86)/microchip/xc32/v1.42/bin/bin/../../lib/gcc/pic32mx/4.8.3/../../../../pic32mx/lib\libc.a(fseek.o)
 .mdebug.abi32  0x80000750        0x0 c:/program files (x86)/microchip/xc32/v1.42/bin/bin/../../lib/gcc/pic32mx/4.8.3/../../../../pic32mx/lib\libc.a(fwrite.o)
 .mdebug.abi32  0x80000750        0x0 c:/program files (x86)/microchip/xc32/v1.42/bin/bin/../../lib/gcc/pic32mx/4.8.3/../../../../pic32mx/lib\libc.a(buf.o)
 .mdebug.abi32  0x80000750        0x0 c:/program files (x86)/microchip/xc32/v1.42/bin/bin/../../lib/gcc/pic32mx/4.8.3/../../../../pic32mx/lib\libc.a(calloc.o)
 .mdebug.abi32  0x80000750        0x0 c:/program files (x86)/microchip/xc32/v1.42/bin/bin/../../lib/gcc/pic32mx/4.8.3/../../../../pic32mx/lib\libc.a(errno.o)
 .mdebug.abi32  0x80000750        0x0 c:/program files (x86)/microchip/xc32/v1.42/bin/bin/../../lib/gcc/pic32mx/4.8.3/../../../../pic32mx/lib\libc.a(malloc.o)
 .mdebug.abi32  0x80000750        0x0 c:/program files (x86)/microchip/xc32/v1.42/bin/bin/../../lib/gcc/pic32mx/4.8.3/../../../../pic32mx/lib\libc.a(tfiles.o)
 .mdebug.abi32  0x80000750        0x0 c:/program files (x86)/microchip/xc32/v1.42/bin/bin/../../lib/gcc/pic32mx/4.8.3/../../../../pic32mx/lib\libc.a(_iob.o)
 .mdebug.abi32  0x80000750        0x0 c:/program files (x86)/microchip/xc32/v1.42/bin/bin/../../lib/gcc/pic32mx/4.8.3/../../../../pic32mx/lib\libc.a(fgetc.o)
 .mdebug.abi32  0x80000750        0x0 c:/program files (x86)/microchip/xc32/v1.42/bin/bin/../../lib/gcc/pic32mx/4.8.3/../../../../pic32mx/lib\libc.a(_fputc_simple.o)
 .mdebug.abi32  0x80000750        0x0 c:/program files (x86)/microchip/xc32/v1.42/bin/bin/../../lib/gcc/pic32mx/4.8.3/../../../../pic32mx/lib\libc.a(filbuf.o)
 .mdebug.abi32  0x80000750        0x0 c:/program files (x86)/microchip/xc32/v1.42/bin/bin/../../lib/gcc/pic32mx/4.8.3/../../../../pic32mx/lib\libc.a(_flsbuf_simple.o)
 .mdebug.abi32  0x80000750        0x0 c:/program files (x86)/microchip/xc32/v1.42/bin/bin/../../lib/gcc/pic32mx/4.8.3/../../../../pic32mx/lib\libpic32.a(sbrk.o)
 .mdebug.abi32  0x80000750        0x0 c:/program files (x86)/microchip/xc32/v1.42/bin/bin/../../lib/gcc/pic32mx/4.8.3/../../../../pic32mx/lib\libpic32.a(read.o)
 .mdebug.abi32  0x80000750        0x0 c:/program files (x86)/microchip/xc32/v1.42/bin/bin/../../lib/gcc/pic32mx/4.8.3/../../../../pic32mx/lib\libpic32.a(write.o)
 .mdebug.abi32  0x80000750        0x0 c:/program files (x86)/microchip/xc32/v1.42/bin/bin/../../lib/gcc/pic32mx/4.8.3/../../../../pic32mx/lib\libpic32.a(lseek.o)
 .mdebug.abi32  0x80000750        0x0 c:/program files (x86)/microchip/xc32/v1.42/bin/bin/../../lib/gcc/pic32mx/4.8.3/../../../../pic32mx/lib\libpic32.a(remove.o)
 .mdebug.abi32  0x80000750        0x0 c:/program files (x86)/microchip/xc32/v1.42/bin/bin/../../lib/gcc/pic32mx/4.8.3/../../../../pic32mx/lib\libpic32.a(close.o)
 .mdebug.abi32  0x80000750        0x0 c:/program files (x86)/microchip/xc32/v1.42/bin/bin/../../lib/gcc/pic32mx/4.8.3/../../../../pic32mx/lib\libpic32.a(open.o)
 .mdebug.abi32  0x80000750        0x0 c:/program files (x86)/microchip/xc32/v1.42/bin/bin/../../lib/gcc/pic32mx/4.8.3/../../../../pic32mx/lib\libpic32.a(xc32_uart.o)
 .mdebug.abi32  0x80000750        0x0 c:/program files (x86)/microchip/xc32/v1.42/bin/bin/../../lib/gcc/pic32mx/4.8.3/../../../../pic32mx/lib\libpic32.a(_mon_putc.o)

.mdebug.abiN32
 *(.mdebug.abiN32)

.mdebug.abi64
 *(.mdebug.abi64)

.mdebug.abiO64
 *(.mdebug.abiO64)

.mdebug.eabi32
 *(.mdebug.eabi32)

.mdebug.eabi64
 *(.mdebug.eabi64)

.gcc_compiled_long32
 *(.gcc_compiled_long32)

.gcc_compiled_long64
 *(.gcc_compiled_long64)

.stab
 *(.stab)

.stabstr
 *(.stabstr)

.stab.excl
 *(.stab.excl)

.stab.exclstr
 *(.stab.exclstr)

.stab.index
 *(.stab.index)

.stab.indexstr
 *(.stab.indexstr)

.comment        0x00000000       0xd1
 *(.comment)
 .comment       0x00000000       0x3c c:/program files (x86)/microchip/xc32/v1.42/bin/bin/../../lib/gcc/pic32mx/4.8.3/../../../../pic32mx/lib\software-debug-break.o
                                 0x3d (size before relaxing)
 .comment       0x00000000       0x3d build/pic32mz_ef_sk_meb2/debug/_ext/1360937237/app.o
 .comment       0x00000000       0x3d build/pic32mz_ef_sk_meb2/debug/_ext/1360937237/main.o
 .comment       0x00000000       0x3d build/pic32mz_ef_sk_meb2/debug/_ext/1360937237/ov2640.o
 .comment       0x00000000       0x3d build/pic32mz_ef_sk_meb2/debug/_ext/1360937237/i2c_master_noint.o
 .comment       0x00000000       0x3d build/pic32mz_ef_sk_meb2/debug/_ext/426253641/jidctint.o
 .comment       0x00000000       0x3d build/pic32mz_ef_sk_meb2/debug/_ext/1597685232/gfxu_image.o
 .comment       0x00000000       0x3d build/pic32mz_ef_sk_meb2/debug/_ext/1597685232/gfxu_image_png_external.o
 .comment       0x00000000       0x3d build/pic32mz_ef_sk_meb2/debug/_ext/1597685232/gfxu_image_png_internal.o
 .comment       0x00000000       0x3d build/pic32mz_ef_sk_meb2/debug/_ext/1597685232/gfxu_image_jpg_internal.o
 .comment       0x00000000       0x3d build/pic32mz_ef_sk_meb2/debug/_ext/493934858/lodepng.o
 .comment       0x00000000       0x3d build/pic32mz_ef_sk_meb2/debug/_ext/1597685232/gfxu_image_raw_external.o
 .comment       0x00000000       0x3d build/pic32mz_ef_sk_meb2/debug/_ext/1597685232/gfxu_image_raw_internal.o
 .comment       0x00000000       0x3d build/pic32mz_ef_sk_meb2/debug/_ext/1597685232/gfxu_image_rle_external.o
 .comment       0x00000000       0x3d build/pic32mz_ef_sk_meb2/debug/_ext/1597685232/gfxu_image_rle_internal.o
 .comment       0x00000000       0x3d build/pic32mz_ef_sk_meb2/debug/_ext/1597685232/gfxu_image_utils.o
 .comment       0x00000000       0x3d build/pic32mz_ef_sk_meb2/debug/_ext/1597685232/gfxu_palette.o
 .comment       0x00000000       0x3d build/pic32mz_ef_sk_meb2/debug/_ext/1597685232/gfxu_string.o
 .comment       0x00000000       0x3d build/pic32mz_ef_sk_meb2/debug/_ext/1597685232/gfxu_string_external.o
 .comment       0x00000000       0x3d build/pic32mz_ef_sk_meb2/debug/_ext/1597685232/gfxu_string_internal.o
 .comment       0x00000000       0x3d build/pic32mz_ef_sk_meb2/debug/_ext/1597685232/gfxu_string_query.o
 .comment       0x00000000       0x3d build/pic32mz_ef_sk_meb2/debug/_ext/1597685232/gfxu_string_utils.o
 .comment       0x00000000       0x3d build/pic32mz_ef_sk_meb2/debug/_ext/1907747181/libaria.o
 .comment       0x00000000       0x3d build/pic32mz_ef_sk_meb2/debug/_ext/1907747181/libaria_context.o
 .comment       0x00000000       0x3d build/pic32mz_ef_sk_meb2/debug/_ext/1907747181/libaria_context_paint.o
 .comment       0x00000000       0x3d build/pic32mz_ef_sk_meb2/debug/_ext/1907747181/libaria_draw.o
 .comment       0x00000000       0x3d build/pic32mz_ef_sk_meb2/debug/_ext/1907747181/libaria_editwidget.o
 .comment       0x00000000       0x3d build/pic32mz_ef_sk_meb2/debug/_ext/1907747181/libaria_event.o
 .comment       0x00000000       0x3d build/pic32mz_ef_sk_meb2/debug/_ext/1907747181/libaria_input.o
 .comment       0x00000000       0x3d build/pic32mz_ef_sk_meb2/debug/_ext/1907747181/libaria_layer.o
 .comment       0x00000000       0x3d build/pic32mz_ef_sk_meb2/debug/_ext/1907747181/libaria_list.o
 .comment       0x00000000       0x3d build/pic32mz_ef_sk_meb2/debug/_ext/1907747181/libaria_scheme.o
 .comment       0x00000000       0x3d build/pic32mz_ef_sk_meb2/debug/_ext/1907747181/libaria_screen.o
 .comment       0x00000000       0x3d build/pic32mz_ef_sk_meb2/debug/_ext/1907747181/libaria_string.o
 .comment       0x00000000       0x3d build/pic32mz_ef_sk_meb2/debug/_ext/1907747181/libaria_utils.o
 .comment       0x00000000       0x3d build/pic32mz_ef_sk_meb2/debug/_ext/1907747181/libaria_widget.o
 .comment       0x00000000       0x3d build/pic32mz_ef_sk_meb2/debug/_ext/1907747181/libaria_widget_skin_classic.o
 .comment       0x00000000       0x3d build/pic32mz_ef_sk_meb2/debug/_ext/1907747181/libaria_widget_button.o
 .comment       0x00000000       0x3d build/pic32mz_ef_sk_meb2/debug/_ext/1907747181/libaria_widget_button_skin_classic.o
 .comment       0x00000000       0x3d build/pic32mz_ef_sk_meb2/debug/_ext/1907747181/libaria_widget_checkbox.o
 .comment       0x00000000       0x3d build/pic32mz_ef_sk_meb2/debug/_ext/1907747181/libaria_widget_checkbox_skin_classic.o
 .comment       0x00000000       0x3d build/pic32mz_ef_sk_meb2/debug/_ext/1907747181/libaria_widget_circle.o
 .comment       0x00000000       0x3d build/pic32mz_ef_sk_meb2/debug/_ext/1907747181/libaria_widget_circle_skin_classic.o
 .comment       0x00000000       0x3d build/pic32mz_ef_sk_meb2/debug/_ext/1907747181/libaria_widget_drawsurface.o
 .comment       0x00000000       0x3d build/pic32mz_ef_sk_meb2/debug/_ext/1907747181/libaria_widget_drawsurface_skin_classic.o
 .comment       0x00000000       0x3d build/pic32mz_ef_sk_meb2/debug/_ext/1907747181/libaria_widget_gradient.o
 .comment       0x00000000       0x3d build/pic32mz_ef_sk_meb2/debug/_ext/1907747181/libaria_widget_gradient_skin_classic.o
 .comment       0x00000000       0x3d build/pic32mz_ef_sk_meb2/debug/_ext/1907747181/libaria_widget_groupbox.o
 .comment       0x00000000       0x3d build/pic32mz_ef_sk_meb2/debug/_ext/1907747181/libaria_widget_groupbox_skin_classic.o
 .comment       0x00000000       0x3d build/pic32mz_ef_sk_meb2/debug/_ext/1907747181/libaria_widget_image.o
 .comment       0x00000000       0x3d build/pic32mz_ef_sk_meb2/debug/_ext/1907747181/libaria_widget_image_skin_classic.o
 .comment       0x00000000       0x3d build/pic32mz_ef_sk_meb2/debug/_ext/1907747181/libaria_widget_imagesequence.o
 .comment       0x00000000       0x3d build/pic32mz_ef_sk_meb2/debug/_ext/1907747181/libaria_widget_imagesequence_skin_classic.o
 .comment       0x00000000       0x3d build/pic32mz_ef_sk_meb2/debug/_ext/1907747181/libaria_widget_keypad.o
 .comment       0x00000000       0x3d build/pic32mz_ef_sk_meb2/debug/_ext/1907747181/libaria_widget_keypad_skin_classic.o
 .comment       0x00000000       0x3d build/pic32mz_ef_sk_meb2/debug/_ext/1907747181/libaria_widget_label.o
 .comment       0x00000000       0x3d build/pic32mz_ef_sk_meb2/debug/_ext/1907747181/libaria_widget_label_skin_classic.o
 .comment       0x00000000       0x3d build/pic32mz_ef_sk_meb2/debug/_ext/1907747181/libaria_widget_line.o
 .comment       0x00000000       0x3d build/pic32mz_ef_sk_meb2/debug/_ext/1907747181/libaria_widget_line_skin_classic.o
 .comment       0x00000000       0x3d build/pic32mz_ef_sk_meb2/debug/_ext/1907747181/libaria_widget_list.o
 .comment       0x00000000       0x3d build/pic32mz_ef_sk_meb2/debug/_ext/1907747181/libaria_widget_list_skin_classic.o
 .comment       0x00000000       0x3d build/pic32mz_ef_sk_meb2/debug/_ext/1907747181/libaria_widget_listwheel.o
 .comment       0x00000000       0x3d build/pic32mz_ef_sk_meb2/debug/_ext/1907747181/libaria_widget_listwheel_skin_classic.o
 .comment       0x00000000       0x3d build/pic32mz_ef_sk_meb2/debug/_ext/1907747181/libaria_widget_progressbar.o
 .comment       0x00000000       0x3d build/pic32mz_ef_sk_meb2/debug/_ext/1907747181/libaria_widget_progressbar_skin_classic.o
 .comment       0x00000000       0x3d build/pic32mz_ef_sk_meb2/debug/_ext/1907747181/libaria_widget_radiobutton.o
 .comment       0x00000000       0x3d build/pic32mz_ef_sk_meb2/debug/_ext/1907747181/libaria_widget_radiobutton_skin_classic.o
 .comment       0x00000000       0x3d build/pic32mz_ef_sk_meb2/debug/_ext/1907747181/libaria_radiobutton_group.o
 .comment       0x00000000       0x3d build/pic32mz_ef_sk_meb2/debug/_ext/1907747181/libaria_widget_rectangle.o
 .comment       0x00000000       0x3d build/pic32mz_ef_sk_meb2/debug/_ext/1907747181/libaria_widget_rectangle_skin_classic.o
 .comment       0x00000000       0x3d build/pic32mz_ef_sk_meb2/debug/_ext/1907747181/libaria_widget_scrollbar.o
 .comment       0x00000000       0x3d build/pic32mz_ef_sk_meb2/debug/_ext/1907747181/libaria_widget_scrollbar_skin_classic.o
 .comment       0x00000000       0x3d build/pic32mz_ef_sk_meb2/debug/_ext/1907747181/libaria_widget_slider.o
 .comment       0x00000000       0x3d build/pic32mz_ef_sk_meb2/debug/_ext/1907747181/libaria_widget_slider_skin_classic.o
 .comment       0x00000000       0x3d build/pic32mz_ef_sk_meb2/debug/_ext/1907747181/libaria_widget_textfield.o
 .comment       0x00000000       0x3d build/pic32mz_ef_sk_meb2/debug/_ext/1907747181/libaria_widget_textfield_skin_classic.o
 .comment       0x00000000       0x3d build/pic32mz_ef_sk_meb2/debug/_ext/1907747181/libaria_widget_touchtest.o
 .comment       0x00000000       0x3d build/pic32mz_ef_sk_meb2/debug/_ext/1907747181/libaria_widget_touchtest_skin_classic.o
 .comment       0x00000000       0x3d build/pic32mz_ef_sk_meb2/debug/_ext/1907747181/libaria_widget_window.o
 .comment       0x00000000       0x3d build/pic32mz_ef_sk_meb2/debug/_ext/1907747181/libaria_widget_window_skin_classic.o
 .comment       0x00000000       0x3d build/pic32mz_ef_sk_meb2/debug/_ext/1847583374/gfx.o
 .comment       0x00000000       0x3d build/pic32mz_ef_sk_meb2/debug/_ext/1847583374/gfx_color.o
 .comment       0x00000000       0x3d build/pic32mz_ef_sk_meb2/debug/_ext/1847583374/gfx_context.o
 .comment       0x00000000       0x3d build/pic32mz_ef_sk_meb2/debug/_ext/1847583374/gfx_default_impl.o
 .comment       0x00000000       0x3d build/pic32mz_ef_sk_meb2/debug/_ext/1847583374/gfx_display.o
 .comment       0x00000000       0x3d build/pic32mz_ef_sk_meb2/debug/_ext/1847583374/gfx_driver_interface.o
 .comment       0x00000000       0x3d build/pic32mz_ef_sk_meb2/debug/_ext/1847583374/gfx_get.o
 .comment       0x00000000       0x3d build/pic32mz_ef_sk_meb2/debug/_ext/1847583374/gfx_interface.o
 .comment       0x00000000       0x3d build/pic32mz_ef_sk_meb2/debug/_ext/1847583374/gfx_layer.o
 .comment       0x00000000       0x3d build/pic32mz_ef_sk_meb2/debug/_ext/1847583374/gfx_pixel_buffer.o
 .comment       0x00000000       0x3d build/pic32mz_ef_sk_meb2/debug/_ext/1847583374/gfx_rect.o
 .comment       0x00000000       0x3d build/pic32mz_ef_sk_meb2/debug/_ext/1847583374/gfx_util.o
 .comment       0x00000000       0x3d build/pic32mz_ef_sk_meb2/debug/_ext/1847583374/gfx_set.o
 .comment       0x00000000       0x3d build/pic32mz_ef_sk_meb2/debug/_ext/1847583374/gfx_color_blend.o
 .comment       0x00000000       0x3d build/pic32mz_ef_sk_meb2/debug/_ext/1847583374/gfx_color_convert.o
 .comment       0x00000000       0x3d build/pic32mz_ef_sk_meb2/debug/_ext/1847583374/gfx_color_lerp.o
 .comment       0x00000000       0x3d build/pic32mz_ef_sk_meb2/debug/_ext/1847583374/gfx_color_value.o
 .comment       0x00000000       0x3d build/pic32mz_ef_sk_meb2/debug/_ext/1847583374/gfx_draw_blit.o
 .comment       0x00000000       0x3d build/pic32mz_ef_sk_meb2/debug/_ext/1847583374/gfx_draw_circle.o
 .comment       0x00000000       0x3d build/pic32mz_ef_sk_meb2/debug/_ext/1847583374/gfx_draw_line.o
 .comment       0x00000000       0x3d build/pic32mz_ef_sk_meb2/debug/_ext/1847583374/gfx_draw_pixel.o
 .comment       0x00000000       0x3d build/pic32mz_ef_sk_meb2/debug/_ext/1847583374/gfx_draw_rect.o
 .comment       0x00000000       0x3d build/pic32mz_ef_sk_meb2/debug/_ext/1847583374/gfx_math.o
 .comment       0x00000000       0x3d build/pic32mz_ef_sk_meb2/debug/_ext/853959373/sys_dma.o
 .comment       0x00000000       0x3d build/pic32mz_ef_sk_meb2/debug/_ext/1042686532/sys_int_pic32.o
 .comment       0x00000000       0x3d build/pic32mz_ef_sk_meb2/debug/_ext/1219754583/drv_i2c_static_buffer_model.o
 .comment       0x00000000       0x3d build/pic32mz_ef_sk_meb2/debug/_ext/1219754583/drv_i2c_mapping.o
 .comment       0x00000000       0x3d build/pic32mz_ef_sk_meb2/debug/_ext/199634090/drv_tmr_static.o
 .comment       0x00000000       0x3d build/pic32mz_ef_sk_meb2/debug/_ext/199634090/drv_tmr_mapping.o
 .comment       0x00000000       0x3d build/pic32mz_ef_sk_meb2/debug/_ext/713288229/drv_gfx_lcc_generic.o
 .comment       0x00000000       0x3d build/pic32mz_ef_sk_meb2/debug/_ext/1740298103/libaria_harmony.o
 .comment       0x00000000       0x3d build/pic32mz_ef_sk_meb2/debug/_ext/1740298103/libaria_init.o
 .comment       0x00000000       0x3d build/pic32mz_ef_sk_meb2/debug/_ext/1740298103/libaria_events.o
 .comment       0x00000000       0x3d build/pic32mz_ef_sk_meb2/debug/_ext/1740298103/libaria_macros.o
 .comment       0x00000000       0x3d build/pic32mz_ef_sk_meb2/debug/_ext/477038478/gfx_display_def.o
 .comment       0x00000000       0x3d build/pic32mz_ef_sk_meb2/debug/_ext/477038478/gfx_driver_def.o
 .comment       0x00000000       0x3d build/pic32mz_ef_sk_meb2/debug/_ext/1847413222/sys_clk.o
 .comment       0x00000000       0x3d build/pic32mz_ef_sk_meb2/debug/_ext/1847413222/sys_clk_pic32mz.o
 .comment       0x00000000       0x3d build/pic32mz_ef_sk_meb2/debug/_ext/924081491/sys_devcon.o
 .comment       0x00000000       0x3d build/pic32mz_ef_sk_meb2/debug/_ext/924081491/sys_devcon_pic32mz.o
 .comment       0x00000000       0x3d build/pic32mz_ef_sk_meb2/debug/_ext/50030870/sys_ports_static.o
 .comment       0x00000000       0x3d build/pic32mz_ef_sk_meb2/debug/_ext/1465531745/bsp.o
 .comment       0x00000000       0x3d build/pic32mz_ef_sk_meb2/debug/_ext/1951523377/system_init.o
 .comment       0x00000000       0x3d build/pic32mz_ef_sk_meb2/debug/_ext/1951523377/system_interrupt.o
 .comment       0x00000000       0x3d build/pic32mz_ef_sk_meb2/debug/_ext/1951523377/system_exceptions.o
 .comment       0x00000000       0x3d build/pic32mz_ef_sk_meb2/debug/_ext/1951523377/system_tasks.o
 .comment       0x00000000       0x3d build/pic32mz_ef_sk_meb2/debug/_ext/715821942/gfx_assets.o
 .comment       0x00000000       0x3d c:/program files (x86)/microchip/xc32/v1.42/bin/bin/../../lib/gcc/pic32mx/4.8.3\libgcc.a(floatunsisf.o)
 .comment       0x0000003c       0x18 c:/program files (x86)/microchip/xc32/v1.42/bin/bin/../../lib/gcc/pic32mx/4.8.3/../../../../pic32mx/lib\libpic32.a(memset.o)
                                 0x19 (size before relaxing)
 .comment       0x00000054       0x19 c:/program files (x86)/microchip/xc32/v1.42/bin/bin/../../lib/gcc/pic32mx/4.8.3/../../../../pic32mx/lib\libpic32.a(strcpy.o)
                                 0x1a (size before relaxing)
 .comment       0x0000006d       0x19 c:/program files (x86)/microchip/xc32/v1.42/bin/bin/../../lib/gcc/pic32mx/4.8.3/../../../../pic32mx/lib\libpic32.a(strlen.o)
                                 0x1a (size before relaxing)
 .comment       0x00000000       0x3d c:/program files (x86)/microchip/xc32/v1.42/bin/bin/../../lib/gcc/pic32mx/4.8.3/../../../../pic32mx/lib\libpic32.a(default-bootstrap-exception-handler.o)
 .comment       0x00000000       0x3d c:/program files (x86)/microchip/xc32/v1.42/bin/bin/../../lib/gcc/pic32mx/4.8.3/../../../../pic32mx/lib\libpic32.a(default-on-reset.o)
 .comment       0x00000000       0x3d c:/program files (x86)/microchip/xc32/v1.42/bin/bin/../../lib/gcc/pic32mx/4.8.3/../../../../pic32mx/lib\libpic32.a(default-on-bootstrap.o)
 .comment       0x00000000       0x3d c:/program files (x86)/microchip/xc32/v1.42/bin/bin/../../lib/gcc/pic32mx/4.8.3/../../../../pic32mx/lib\libpic32.a(defaultinterrupt.o)
 .comment       0x00000000       0x3d c:/program files (x86)/microchip/xc32/v1.42/bin/bin/../../lib/gcc/pic32mx/4.8.3/../../../../pic32mx/lib\libpic32.a(default-cache-err-exception-handler.o)
 .comment       0x00000000       0x3d c:/program files (x86)/microchip/xc32/v1.42/bin/bin/../../lib/gcc/pic32mx/4.8.3/../../../../pic32mx/lib\libpic32.a(default-simple-tlb-refill-exception-handler.o)
 .comment       0x00000000       0x3d c:/program files (x86)/microchip/xc32/v1.42/bin/bin/../../lib/gcc/pic32mx/4.8.3/../../../../pic32mx/lib\libc.a(fclose.o)
 .comment       0x00000000       0x3d c:/program files (x86)/microchip/xc32/v1.42/bin/bin/../../lib/gcc/pic32mx/4.8.3/../../../../pic32mx/lib\libc.a(fflush.o)
 .comment       0x00000000       0x3d c:/program files (x86)/microchip/xc32/v1.42/bin/bin/../../lib/gcc/pic32mx/4.8.3/../../../../pic32mx/lib\libc.a(fopen.o)
 .comment       0x00000000       0x3d c:/program files (x86)/microchip/xc32/v1.42/bin/bin/../../lib/gcc/pic32mx/4.8.3/../../../../pic32mx/lib\libc.a(fread.o)
 .comment       0x00000000       0x3d c:/program files (x86)/microchip/xc32/v1.42/bin/bin/../../lib/gcc/pic32mx/4.8.3/../../../../pic32mx/lib\libc.a(freopen.o)
 .comment       0x00000000       0x3d c:/program files (x86)/microchip/xc32/v1.42/bin/bin/../../lib/gcc/pic32mx/4.8.3/../../../../pic32mx/lib\libc.a(fseek.o)
 .comment       0x00000000       0x3d c:/program files (x86)/microchip/xc32/v1.42/bin/bin/../../lib/gcc/pic32mx/4.8.3/../../../../pic32mx/lib\libc.a(fwrite.o)
 .comment       0x00000000       0x3d c:/program files (x86)/microchip/xc32/v1.42/bin/bin/../../lib/gcc/pic32mx/4.8.3/../../../../pic32mx/lib\libc.a(buf.o)
 .comment       0x00000000       0x3d c:/program files (x86)/microchip/xc32/v1.42/bin/bin/../../lib/gcc/pic32mx/4.8.3/../../../../pic32mx/lib\libc.a(calloc.o)
 .comment       0x00000000       0x3d c:/program files (x86)/microchip/xc32/v1.42/bin/bin/../../lib/gcc/pic32mx/4.8.3/../../../../pic32mx/lib\libc.a(errno.o)
 .comment       0x00000000       0x3d c:/program files (x86)/microchip/xc32/v1.42/bin/bin/../../lib/gcc/pic32mx/4.8.3/../../../../pic32mx/lib\libc.a(malloc.o)
 .comment       0x00000000       0x3d c:/program files (x86)/microchip/xc32/v1.42/bin/bin/../../lib/gcc/pic32mx/4.8.3/../../../../pic32mx/lib\libc.a(tfiles.o)
 .comment       0x00000000       0x3d c:/program files (x86)/microchip/xc32/v1.42/bin/bin/../../lib/gcc/pic32mx/4.8.3/../../../../pic32mx/lib\libc.a(_iob.o)
 .comment       0x00000000       0x3d c:/program files (x86)/microchip/xc32/v1.42/bin/bin/../../lib/gcc/pic32mx/4.8.3/../../../../pic32mx/lib\libc.a(fgetc.o)
 .comment       0x00000000       0x3d c:/program files (x86)/microchip/xc32/v1.42/bin/bin/../../lib/gcc/pic32mx/4.8.3/../../../../pic32mx/lib\libc.a(_fputc_simple.o)
 .comment       0x00000000       0x3d c:/program files (x86)/microchip/xc32/v1.42/bin/bin/../../lib/gcc/pic32mx/4.8.3/../../../../pic32mx/lib\libc.a(filbuf.o)
 .comment       0x00000000       0x3d c:/program files (x86)/microchip/xc32/v1.42/bin/bin/../../lib/gcc/pic32mx/4.8.3/../../../../pic32mx/lib\libc.a(_flsbuf_simple.o)
 .comment       0x00000086       0x4b c:/program files (x86)/microchip/xc32/v1.42/bin/bin/../../lib/gcc/pic32mx/4.8.3/../../../../pic32mx/lib\libpic32.a(sbrk.o)
                                 0x88 (size before relaxing)
 .comment       0x00000000       0x3d c:/program files (x86)/microchip/xc32/v1.42/bin/bin/../../lib/gcc/pic32mx/4.8.3/../../../../pic32mx/lib\libpic32.a(read.o)
 .comment       0x00000000       0x3d c:/program files (x86)/microchip/xc32/v1.42/bin/bin/../../lib/gcc/pic32mx/4.8.3/../../../../pic32mx/lib\libpic32.a(write.o)
 .comment       0x00000000       0x3d c:/program files (x86)/microchip/xc32/v1.42/bin/bin/../../lib/gcc/pic32mx/4.8.3/../../../../pic32mx/lib\libpic32.a(lseek.o)
 .comment       0x00000000       0x3d c:/program files (x86)/microchip/xc32/v1.42/bin/bin/../../lib/gcc/pic32mx/4.8.3/../../../../pic32mx/lib\libpic32.a(remove.o)
 .comment       0x00000000       0x3d c:/program files (x86)/microchip/xc32/v1.42/bin/bin/../../lib/gcc/pic32mx/4.8.3/../../../../pic32mx/lib\libpic32.a(close.o)
 .comment       0x00000000       0x3d c:/program files (x86)/microchip/xc32/v1.42/bin/bin/../../lib/gcc/pic32mx/4.8.3/../../../../pic32mx/lib\libpic32.a(open.o)
 .comment       0x00000000       0x3d c:/program files (x86)/microchip/xc32/v1.42/bin/bin/../../lib/gcc/pic32mx/4.8.3/../../../../pic32mx/lib\libpic32.a(xc32_uart.o)
 .comment       0x00000000       0x3d c:/program files (x86)/microchip/xc32/v1.42/bin/bin/../../lib/gcc/pic32mx/4.8.3/../../../../pic32mx/lib\libpic32.a(_mon_putc.o)

.debug
 *(.debug)

.line
 *(.line)

.debug_srcinfo
 *(.debug_srcinfo)

.debug_sfnames
 *(.debug_sfnames)

.debug_aranges  0x00000000     0x3f10
 *(.debug_aranges)
 .debug_aranges
                0x00000000       0x20 c:/program files (x86)/microchip/xc32/v1.42/bin/bin/../../lib/gcc/pic32mx/4.8.3/../../../../pic32mx/lib\software-debug-break.o
 .debug_aranges
                0x00000020       0x38 build/pic32mz_ef_sk_meb2/debug/_ext/1360937237/app.o
 .debug_aranges
                0x00000058       0x20 build/pic32mz_ef_sk_meb2/debug/_ext/1360937237/main.o
 .debug_aranges
                0x00000078       0x38 build/pic32mz_ef_sk_meb2/debug/_ext/1360937237/ov2640.o
 .debug_aranges
                0x000000b0       0x50 build/pic32mz_ef_sk_meb2/debug/_ext/1360937237/i2c_master_noint.o
 .debug_aranges
                0x00000100       0x20 build/pic32mz_ef_sk_meb2/debug/_ext/426253641/jidctint.o
 .debug_aranges
                0x00000120       0x20 build/pic32mz_ef_sk_meb2/debug/_ext/1597685232/gfxu_image.o
 .debug_aranges
                0x00000140       0x30 build/pic32mz_ef_sk_meb2/debug/_ext/1597685232/gfxu_image_png_external.o
 .debug_aranges
                0x00000170       0x20 build/pic32mz_ef_sk_meb2/debug/_ext/1597685232/gfxu_image_png_internal.o
 .debug_aranges
                0x00000190       0x68 build/pic32mz_ef_sk_meb2/debug/_ext/1597685232/gfxu_image_jpg_internal.o
 .debug_aranges
                0x000001f8      0x430 build/pic32mz_ef_sk_meb2/debug/_ext/493934858/lodepng.o
 .debug_aranges
                0x00000628       0x38 build/pic32mz_ef_sk_meb2/debug/_ext/1597685232/gfxu_image_raw_external.o
 .debug_aranges
                0x00000660       0x20 build/pic32mz_ef_sk_meb2/debug/_ext/1597685232/gfxu_image_raw_internal.o
 .debug_aranges
                0x00000680       0x40 build/pic32mz_ef_sk_meb2/debug/_ext/1597685232/gfxu_image_rle_external.o
 .debug_aranges
                0x000006c0       0x20 build/pic32mz_ef_sk_meb2/debug/_ext/1597685232/gfxu_image_rle_internal.o
 .debug_aranges
                0x000006e0       0x80 build/pic32mz_ef_sk_meb2/debug/_ext/1597685232/gfxu_image_utils.o
 .debug_aranges
                0x00000760       0x20 build/pic32mz_ef_sk_meb2/debug/_ext/1597685232/gfxu_palette.o
 .debug_aranges
                0x00000780       0x28 build/pic32mz_ef_sk_meb2/debug/_ext/1597685232/gfxu_string.o
 .debug_aranges
                0x000007a8       0x48 build/pic32mz_ef_sk_meb2/debug/_ext/1597685232/gfxu_string_external.o
 .debug_aranges
                0x000007f0       0x28 build/pic32mz_ef_sk_meb2/debug/_ext/1597685232/gfxu_string_internal.o
 .debug_aranges
                0x00000818       0x68 build/pic32mz_ef_sk_meb2/debug/_ext/1597685232/gfxu_string_query.o
 .debug_aranges
                0x00000880       0x98 build/pic32mz_ef_sk_meb2/debug/_ext/1597685232/gfxu_string_utils.o
 .debug_aranges
                0x00000918       0x30 build/pic32mz_ef_sk_meb2/debug/_ext/1907747181/libaria.o
 .debug_aranges
                0x00000948       0xf8 build/pic32mz_ef_sk_meb2/debug/_ext/1907747181/libaria_context.o
 .debug_aranges
                0x00000a40       0x28 build/pic32mz_ef_sk_meb2/debug/_ext/1907747181/libaria_context_paint.o
 .debug_aranges
                0x00000a68       0x38 build/pic32mz_ef_sk_meb2/debug/_ext/1907747181/libaria_draw.o
 .debug_aranges
                0x00000aa0       0x98 build/pic32mz_ef_sk_meb2/debug/_ext/1907747181/libaria_editwidget.o
 .debug_aranges
                0x00000b38       0x40 build/pic32mz_ef_sk_meb2/debug/_ext/1907747181/libaria_event.o
 .debug_aranges
                0x00000b78       0x60 build/pic32mz_ef_sk_meb2/debug/_ext/1907747181/libaria_input.o
 .debug_aranges
                0x00000bd8       0xa0 build/pic32mz_ef_sk_meb2/debug/_ext/1907747181/libaria_layer.o
 .debug_aranges
                0x00000c78       0x80 build/pic32mz_ef_sk_meb2/debug/_ext/1907747181/libaria_list.o
 .debug_aranges
                0x00000cf8       0x20 build/pic32mz_ef_sk_meb2/debug/_ext/1907747181/libaria_scheme.o
 .debug_aranges
                0x00000d18       0x80 build/pic32mz_ef_sk_meb2/debug/_ext/1907747181/libaria_screen.o
 .debug_aranges
                0x00000d98      0x108 build/pic32mz_ef_sk_meb2/debug/_ext/1907747181/libaria_string.o
 .debug_aranges
                0x00000ea0       0xa8 build/pic32mz_ef_sk_meb2/debug/_ext/1907747181/libaria_utils.o
 .debug_aranges
                0x00000f48      0x228 build/pic32mz_ef_sk_meb2/debug/_ext/1907747181/libaria_widget.o
 .debug_aranges
                0x00001170       0x30 build/pic32mz_ef_sk_meb2/debug/_ext/1907747181/libaria_widget_skin_classic.o
 .debug_aranges
                0x000011a0      0x108 build/pic32mz_ef_sk_meb2/debug/_ext/1907747181/libaria_widget_button.o
 .debug_aranges
                0x000012a8       0x50 build/pic32mz_ef_sk_meb2/debug/_ext/1907747181/libaria_widget_button_skin_classic.o
 .debug_aranges
                0x000012f8       0xe8 build/pic32mz_ef_sk_meb2/debug/_ext/1907747181/libaria_widget_checkbox.o
 .debug_aranges
                0x000013e0       0x58 build/pic32mz_ef_sk_meb2/debug/_ext/1907747181/libaria_widget_checkbox_skin_classic.o
 .debug_aranges
                0x00001438       0x50 build/pic32mz_ef_sk_meb2/debug/_ext/1907747181/libaria_widget_circle.o
 .debug_aranges
                0x00001488       0x38 build/pic32mz_ef_sk_meb2/debug/_ext/1907747181/libaria_widget_circle_skin_classic.o
 .debug_aranges
                0x000014c0       0x40 build/pic32mz_ef_sk_meb2/debug/_ext/1907747181/libaria_widget_drawsurface.o
 .debug_aranges
                0x00001500       0x38 build/pic32mz_ef_sk_meb2/debug/_ext/1907747181/libaria_widget_drawsurface_skin_classic.o
 .debug_aranges
                0x00001538       0x40 build/pic32mz_ef_sk_meb2/debug/_ext/1907747181/libaria_widget_gradient.o
 .debug_aranges
                0x00001578       0x30 build/pic32mz_ef_sk_meb2/debug/_ext/1907747181/libaria_widget_gradient_skin_classic.o
 .debug_aranges
                0x000015a8       0x50 build/pic32mz_ef_sk_meb2/debug/_ext/1907747181/libaria_widget_groupbox.o
 .debug_aranges
                0x000015f8       0x48 build/pic32mz_ef_sk_meb2/debug/_ext/1907747181/libaria_widget_groupbox_skin_classic.o
 .debug_aranges
                0x00001640       0x60 build/pic32mz_ef_sk_meb2/debug/_ext/1907747181/libaria_widget_image.o
 .debug_aranges
                0x000016a0       0x40 build/pic32mz_ef_sk_meb2/debug/_ext/1907747181/libaria_widget_image_skin_classic.o
 .debug_aranges
                0x000016e0       0xe0 build/pic32mz_ef_sk_meb2/debug/_ext/1907747181/libaria_widget_imagesequence.o
 .debug_aranges
                0x000017c0       0x40 build/pic32mz_ef_sk_meb2/debug/_ext/1907747181/libaria_widget_imagesequence_skin_classic.o
 .debug_aranges
                0x00001800       0xf0 build/pic32mz_ef_sk_meb2/debug/_ext/1907747181/libaria_widget_keypad.o
 .debug_aranges
                0x000018f0       0x30 build/pic32mz_ef_sk_meb2/debug/_ext/1907747181/libaria_widget_keypad_skin_classic.o
 .debug_aranges
                0x00001920       0x60 build/pic32mz_ef_sk_meb2/debug/_ext/1907747181/libaria_widget_label.o
 .debug_aranges
                0x00001980       0x40 build/pic32mz_ef_sk_meb2/debug/_ext/1907747181/libaria_widget_label_skin_classic.o
 .debug_aranges
                0x000019c0       0x50 build/pic32mz_ef_sk_meb2/debug/_ext/1907747181/libaria_widget_line.o
 .debug_aranges
                0x00001a10       0x38 build/pic32mz_ef_sk_meb2/debug/_ext/1907747181/libaria_widget_line_skin_classic.o
 .debug_aranges
                0x00001a48      0x170 build/pic32mz_ef_sk_meb2/debug/_ext/1907747181/libaria_widget_list.o
 .debug_aranges
                0x00001bb8       0x58 build/pic32mz_ef_sk_meb2/debug/_ext/1907747181/libaria_widget_list_skin_classic.o
 .debug_aranges
                0x00001c10       0xf0 build/pic32mz_ef_sk_meb2/debug/_ext/1907747181/libaria_widget_listwheel.o
 .debug_aranges
                0x00001d00       0x58 build/pic32mz_ef_sk_meb2/debug/_ext/1907747181/libaria_widget_listwheel_skin_classic.o
 .debug_aranges
                0x00001d58       0x60 build/pic32mz_ef_sk_meb2/debug/_ext/1907747181/libaria_widget_progressbar.o
 .debug_aranges
                0x00001db8       0x38 build/pic32mz_ef_sk_meb2/debug/_ext/1907747181/libaria_widget_progressbar_skin_classic.o
 .debug_aranges
                0x00001df0      0x100 build/pic32mz_ef_sk_meb2/debug/_ext/1907747181/libaria_widget_radiobutton.o
 .debug_aranges
                0x00001ef0       0x58 build/pic32mz_ef_sk_meb2/debug/_ext/1907747181/libaria_widget_radiobutton_skin_classic.o
 .debug_aranges
                0x00001f48       0x40 build/pic32mz_ef_sk_meb2/debug/_ext/1907747181/libaria_radiobutton_group.o
 .debug_aranges
                0x00001f88       0x40 build/pic32mz_ef_sk_meb2/debug/_ext/1907747181/libaria_widget_rectangle.o
 .debug_aranges
                0x00001fc8       0x38 build/pic32mz_ef_sk_meb2/debug/_ext/1907747181/libaria_widget_rectangle_skin_classic.o
 .debug_aranges
                0x00002000      0x108 build/pic32mz_ef_sk_meb2/debug/_ext/1907747181/libaria_widget_scrollbar.o
 .debug_aranges
                0x00002108       0x40 build/pic32mz_ef_sk_meb2/debug/_ext/1907747181/libaria_widget_scrollbar_skin_classic.o
 .debug_aranges
                0x00002148       0xe8 build/pic32mz_ef_sk_meb2/debug/_ext/1907747181/libaria_widget_slider.o
 .debug_aranges
                0x00002230       0x38 build/pic32mz_ef_sk_meb2/debug/_ext/1907747181/libaria_widget_slider_skin_classic.o
 .debug_aranges
                0x00002268       0xf8 build/pic32mz_ef_sk_meb2/debug/_ext/1907747181/libaria_widget_textfield.o
 .debug_aranges
                0x00002360       0x48 build/pic32mz_ef_sk_meb2/debug/_ext/1907747181/libaria_widget_textfield_skin_classic.o
 .debug_aranges
                0x000023a8       0x68 build/pic32mz_ef_sk_meb2/debug/_ext/1907747181/libaria_widget_touchtest.o
 .debug_aranges
                0x00002410       0x38 build/pic32mz_ef_sk_meb2/debug/_ext/1907747181/libaria_widget_touchtest_skin_classic.o
 .debug_aranges
                0x00002448       0x60 build/pic32mz_ef_sk_meb2/debug/_ext/1907747181/libaria_widget_window.o
 .debug_aranges
                0x000024a8       0x58 build/pic32mz_ef_sk_meb2/debug/_ext/1907747181/libaria_widget_window_skin_classic.o
 .debug_aranges
                0x00002500       0x88 build/pic32mz_ef_sk_meb2/debug/_ext/1847583374/gfx.o
 .debug_aranges
                0x00002588       0x40 build/pic32mz_ef_sk_meb2/debug/_ext/1847583374/gfx_color.o
 .debug_aranges
                0x000025c8       0x30 build/pic32mz_ef_sk_meb2/debug/_ext/1847583374/gfx_context.o
 .debug_aranges
                0x000025f8      0x2b8 build/pic32mz_ef_sk_meb2/debug/_ext/1847583374/gfx_default_impl.o
 .debug_aranges
                0x000028b0       0x20 build/pic32mz_ef_sk_meb2/debug/_ext/1847583374/gfx_display.o
 .debug_aranges
                0x000028d0       0x30 build/pic32mz_ef_sk_meb2/debug/_ext/1847583374/gfx_driver_interface.o
 .debug_aranges
                0x00002900      0x160 build/pic32mz_ef_sk_meb2/debug/_ext/1847583374/gfx_get.o
 .debug_aranges
                0x00002a60       0x18 build/pic32mz_ef_sk_meb2/debug/_ext/1847583374/gfx_interface.o
 .debug_aranges
                0x00002a78       0x40 build/pic32mz_ef_sk_meb2/debug/_ext/1847583374/gfx_layer.o
 .debug_aranges
                0x00002ab8       0xc0 build/pic32mz_ef_sk_meb2/debug/_ext/1847583374/gfx_pixel_buffer.o
 .debug_aranges
                0x00002b78       0x38 build/pic32mz_ef_sk_meb2/debug/_ext/1847583374/gfx_rect.o
 .debug_aranges
                0x00002bb0       0x60 build/pic32mz_ef_sk_meb2/debug/_ext/1847583374/gfx_util.o
 .debug_aranges
                0x00002c10      0x138 build/pic32mz_ef_sk_meb2/debug/_ext/1847583374/gfx_set.o
 .debug_aranges
                0x00002d48       0x68 build/pic32mz_ef_sk_meb2/debug/_ext/1847583374/gfx_color_blend.o
 .debug_aranges
                0x00002db0      0x208 build/pic32mz_ef_sk_meb2/debug/_ext/1847583374/gfx_color_convert.o
 .debug_aranges
                0x00002fb8       0x58 build/pic32mz_ef_sk_meb2/debug/_ext/1847583374/gfx_color_lerp.o
 .debug_aranges
                0x00003010       0x20 build/pic32mz_ef_sk_meb2/debug/_ext/1847583374/gfx_color_value.o
 .debug_aranges
                0x00003030       0x20 build/pic32mz_ef_sk_meb2/debug/_ext/1847583374/gfx_draw_blit.o
 .debug_aranges
                0x00003050       0x20 build/pic32mz_ef_sk_meb2/debug/_ext/1847583374/gfx_draw_circle.o
 .debug_aranges
                0x00003070       0x50 build/pic32mz_ef_sk_meb2/debug/_ext/1847583374/gfx_draw_line.o
 .debug_aranges
                0x000030c0       0x28 build/pic32mz_ef_sk_meb2/debug/_ext/1847583374/gfx_draw_pixel.o
 .debug_aranges
                0x000030e8       0x60 build/pic32mz_ef_sk_meb2/debug/_ext/1847583374/gfx_draw_rect.o
 .debug_aranges
                0x00003148       0x78 build/pic32mz_ef_sk_meb2/debug/_ext/1847583374/gfx_math.o
 .debug_aranges
                0x000031c0       0xe8 build/pic32mz_ef_sk_meb2/debug/_ext/853959373/sys_dma.o
 .debug_aranges
                0x000032a8       0x48 build/pic32mz_ef_sk_meb2/debug/_ext/1042686532/sys_int_pic32.o
 .debug_aranges
                0x000032f0       0x98 build/pic32mz_ef_sk_meb2/debug/_ext/1219754583/drv_i2c_static_buffer_model.o
 .debug_aranges
                0x00003388       0x60 build/pic32mz_ef_sk_meb2/debug/_ext/1219754583/drv_i2c_mapping.o
 .debug_aranges
                0x000033e8       0xd0 build/pic32mz_ef_sk_meb2/debug/_ext/199634090/drv_tmr_static.o
 .debug_aranges
                0x000034b8       0xe8 build/pic32mz_ef_sk_meb2/debug/_ext/199634090/drv_tmr_mapping.o
 .debug_aranges
                0x000035a0       0x68 build/pic32mz_ef_sk_meb2/debug/_ext/713288229/drv_gfx_lcc_generic.o
 .debug_aranges
                0x00003608       0x28 build/pic32mz_ef_sk_meb2/debug/_ext/1740298103/libaria_harmony.o
 .debug_aranges
                0x00003630       0x28 build/pic32mz_ef_sk_meb2/debug/_ext/1740298103/libaria_init.o
 .debug_aranges
                0x00003658       0x18 build/pic32mz_ef_sk_meb2/debug/_ext/1740298103/libaria_events.o
 .debug_aranges
                0x00003670       0x18 build/pic32mz_ef_sk_meb2/debug/_ext/1740298103/libaria_macros.o
 .debug_aranges
                0x00003688       0x18 build/pic32mz_ef_sk_meb2/debug/_ext/477038478/gfx_display_def.o
 .debug_aranges
                0x000036a0       0x20 build/pic32mz_ef_sk_meb2/debug/_ext/477038478/gfx_driver_def.o
 .debug_aranges
                0x000036c0       0x88 build/pic32mz_ef_sk_meb2/debug/_ext/1847413222/sys_clk.o
 .debug_aranges
                0x00003748       0x88 build/pic32mz_ef_sk_meb2/debug/_ext/1847413222/sys_clk_pic32mz.o
 .debug_aranges
                0x000037d0       0x78 build/pic32mz_ef_sk_meb2/debug/_ext/924081491/sys_devcon.o
 .debug_aranges
                0x00003848       0xc8 build/pic32mz_ef_sk_meb2/debug/_ext/924081491/sys_devcon_pic32mz.o
 .debug_aranges
                0x00003910      0x108 build/pic32mz_ef_sk_meb2/debug/_ext/50030870/sys_ports_static.o
 .debug_aranges
                0x00003a18       0x68 build/pic32mz_ef_sk_meb2/debug/_ext/1465531745/bsp.o
 .debug_aranges
                0x00003a80       0x20 build/pic32mz_ef_sk_meb2/debug/_ext/1951523377/system_init.o
 .debug_aranges
                0x00003aa0       0x38 build/pic32mz_ef_sk_meb2/debug/_ext/1951523377/system_interrupt.o
 .debug_aranges
                0x00003ad8       0x20 build/pic32mz_ef_sk_meb2/debug/_ext/1951523377/system_exceptions.o
 .debug_aranges
                0x00003af8       0x20 build/pic32mz_ef_sk_meb2/debug/_ext/1951523377/system_tasks.o
 .debug_aranges
                0x00003b18       0x18 build/pic32mz_ef_sk_meb2/debug/_ext/715821942/gfx_assets.o
 .debug_aranges
                0x00003b30       0x20 c:/program files (x86)/microchip/xc32/v1.42/bin/bin/../../lib/gcc/pic32mx/4.8.3\libgcc.a(floatunsisf.o)
 .debug_aranges
                0x00003b50       0x20 c:/program files (x86)/microchip/xc32/v1.42/bin/bin/../../lib/gcc/pic32mx/4.8.3/../../../../pic32mx/lib\libpic32.a(default-bootstrap-exception-handler.o)
 .debug_aranges
                0x00003b70       0x20 c:/program files (x86)/microchip/xc32/v1.42/bin/bin/../../lib/gcc/pic32mx/4.8.3/../../../../pic32mx/lib\libpic32.a(default-on-reset.o)
 .debug_aranges
                0x00003b90       0x20 c:/program files (x86)/microchip/xc32/v1.42/bin/bin/../../lib/gcc/pic32mx/4.8.3/../../../../pic32mx/lib\libpic32.a(default-on-bootstrap.o)
 .debug_aranges
                0x00003bb0       0x20 c:/program files (x86)/microchip/xc32/v1.42/bin/bin/../../lib/gcc/pic32mx/4.8.3/../../../../pic32mx/lib\libpic32.a(defaultinterrupt.o)
 .debug_aranges
                0x00003bd0       0x20 c:/program files (x86)/microchip/xc32/v1.42/bin/bin/../../lib/gcc/pic32mx/4.8.3/../../../../pic32mx/lib\libpic32.a(default-cache-err-exception-handler.o)
 .debug_aranges
                0x00003bf0       0x20 c:/program files (x86)/microchip/xc32/v1.42/bin/bin/../../lib/gcc/pic32mx/4.8.3/../../../../pic32mx/lib\libpic32.a(default-simple-tlb-refill-exception-handler.o)
 .debug_aranges
                0x00003c10       0x20 c:/program files (x86)/microchip/xc32/v1.42/bin/bin/../../lib/gcc/pic32mx/4.8.3/../../../../pic32mx/lib\libc.a(fclose.o)
 .debug_aranges
                0x00003c30       0x20 c:/program files (x86)/microchip/xc32/v1.42/bin/bin/../../lib/gcc/pic32mx/4.8.3/../../../../pic32mx/lib\libc.a(fflush.o)
 .debug_aranges
                0x00003c50       0x20 c:/program files (x86)/microchip/xc32/v1.42/bin/bin/../../lib/gcc/pic32mx/4.8.3/../../../../pic32mx/lib\libc.a(fopen.o)
 .debug_aranges
                0x00003c70       0x20 c:/program files (x86)/microchip/xc32/v1.42/bin/bin/../../lib/gcc/pic32mx/4.8.3/../../../../pic32mx/lib\libc.a(fread.o)
 .debug_aranges
                0x00003c90       0x20 c:/program files (x86)/microchip/xc32/v1.42/bin/bin/../../lib/gcc/pic32mx/4.8.3/../../../../pic32mx/lib\libc.a(freopen.o)
 .debug_aranges
                0x00003cb0       0x28 c:/program files (x86)/microchip/xc32/v1.42/bin/bin/../../lib/gcc/pic32mx/4.8.3/../../../../pic32mx/lib\libc.a(fseek.o)
 .debug_aranges
                0x00003cd8       0x20 c:/program files (x86)/microchip/xc32/v1.42/bin/bin/../../lib/gcc/pic32mx/4.8.3/../../../../pic32mx/lib\libc.a(fwrite.o)
 .debug_aranges
                0x00003cf8       0x28 c:/program files (x86)/microchip/xc32/v1.42/bin/bin/../../lib/gcc/pic32mx/4.8.3/../../../../pic32mx/lib\libc.a(buf.o)
 .debug_aranges
                0x00003d20       0x20 c:/program files (x86)/microchip/xc32/v1.42/bin/bin/../../lib/gcc/pic32mx/4.8.3/../../../../pic32mx/lib\libc.a(calloc.o)
 .debug_aranges
                0x00003d40       0x30 c:/program files (x86)/microchip/xc32/v1.42/bin/bin/../../lib/gcc/pic32mx/4.8.3/../../../../pic32mx/lib\libc.a(malloc.o)
 .debug_aranges
                0x00003d70       0x20 c:/program files (x86)/microchip/xc32/v1.42/bin/bin/../../lib/gcc/pic32mx/4.8.3/../../../../pic32mx/lib\libc.a(fgetc.o)
 .debug_aranges
                0x00003d90       0x20 c:/program files (x86)/microchip/xc32/v1.42/bin/bin/../../lib/gcc/pic32mx/4.8.3/../../../../pic32mx/lib\libc.a(_fputc_simple.o)
 .debug_aranges
                0x00003db0       0x20 c:/program files (x86)/microchip/xc32/v1.42/bin/bin/../../lib/gcc/pic32mx/4.8.3/../../../../pic32mx/lib\libc.a(filbuf.o)
 .debug_aranges
                0x00003dd0       0x20 c:/program files (x86)/microchip/xc32/v1.42/bin/bin/../../lib/gcc/pic32mx/4.8.3/../../../../pic32mx/lib\libc.a(_flsbuf_simple.o)
 .debug_aranges
                0x00003df0       0x40 c:/program files (x86)/microchip/xc32/v1.42/bin/bin/../../lib/gcc/pic32mx/4.8.3/../../../../pic32mx/lib\libpic32.a(sbrk.o)
 .debug_aranges
                0x00003e30       0x20 c:/program files (x86)/microchip/xc32/v1.42/bin/bin/../../lib/gcc/pic32mx/4.8.3/../../../../pic32mx/lib\libpic32.a(read.o)
 .debug_aranges
                0x00003e50       0x20 c:/program files (x86)/microchip/xc32/v1.42/bin/bin/../../lib/gcc/pic32mx/4.8.3/../../../../pic32mx/lib\libpic32.a(write.o)
 .debug_aranges
                0x00003e70       0x20 c:/program files (x86)/microchip/xc32/v1.42/bin/bin/../../lib/gcc/pic32mx/4.8.3/../../../../pic32mx/lib\libpic32.a(lseek.o)
 .debug_aranges
                0x00003e90       0x20 c:/program files (x86)/microchip/xc32/v1.42/bin/bin/../../lib/gcc/pic32mx/4.8.3/../../../../pic32mx/lib\libpic32.a(remove.o)
 .debug_aranges
                0x00003eb0       0x20 c:/program files (x86)/microchip/xc32/v1.42/bin/bin/../../lib/gcc/pic32mx/4.8.3/../../../../pic32mx/lib\libpic32.a(close.o)
 .debug_aranges
                0x00003ed0       0x20 c:/program files (x86)/microchip/xc32/v1.42/bin/bin/../../lib/gcc/pic32mx/4.8.3/../../../../pic32mx/lib\libpic32.a(open.o)
 .debug_aranges
                0x00003ef0       0x20 c:/program files (x86)/microchip/xc32/v1.42/bin/bin/../../lib/gcc/pic32mx/4.8.3/../../../../pic32mx/lib\libpic32.a(_mon_putc.o)

.debug_pubnames
 *(.debug_pubnames)

.debug_info     0x00000000   0x14b584
 *(.debug_info .gnu.linkonce.wi.*)
 .debug_info    0x00000000       0xe5 c:/program files (x86)/microchip/xc32/v1.42/bin/bin/../../lib/gcc/pic32mx/4.8.3/../../../../pic32mx/lib\software-debug-break.o
 .debug_info    0x000000e5     0x1712 build/pic32mz_ef_sk_meb2/debug/_ext/1360937237/app.o
 .debug_info    0x000017f7      0x1b9 build/pic32mz_ef_sk_meb2/debug/_ext/1360937237/main.o
 .debug_info    0x000019b0     0x13ef build/pic32mz_ef_sk_meb2/debug/_ext/1360937237/ov2640.o
 .debug_info    0x00002d9f     0x16e1 build/pic32mz_ef_sk_meb2/debug/_ext/1360937237/i2c_master_noint.o
 .debug_info    0x00004480      0x4e3 build/pic32mz_ef_sk_meb2/debug/_ext/426253641/jidctint.o
 .debug_info    0x00004963     0x12c4 build/pic32mz_ef_sk_meb2/debug/_ext/1597685232/gfxu_image.o
 .debug_info    0x00005c27     0x18a3 build/pic32mz_ef_sk_meb2/debug/_ext/1597685232/gfxu_image_png_external.o
 .debug_info    0x000074ca      0xeb2 build/pic32mz_ef_sk_meb2/debug/_ext/1597685232/gfxu_image_png_internal.o
 .debug_info    0x0000837c     0x495b build/pic32mz_ef_sk_meb2/debug/_ext/1597685232/gfxu_image_jpg_internal.o
 .debug_info    0x0000ccd7     0xe515 build/pic32mz_ef_sk_meb2/debug/_ext/493934858/lodepng.o
 .debug_info    0x0001b1ec     0x1b3f build/pic32mz_ef_sk_meb2/debug/_ext/1597685232/gfxu_image_raw_external.o
 .debug_info    0x0001cd2b     0x12ae build/pic32mz_ef_sk_meb2/debug/_ext/1597685232/gfxu_image_raw_internal.o
 .debug_info    0x0001dfd9     0x1d1a build/pic32mz_ef_sk_meb2/debug/_ext/1597685232/gfxu_image_rle_external.o
 .debug_info    0x0001fcf3     0x1572 build/pic32mz_ef_sk_meb2/debug/_ext/1597685232/gfxu_image_rle_internal.o
 .debug_info    0x00021265     0x103d build/pic32mz_ef_sk_meb2/debug/_ext/1597685232/gfxu_image_utils.o
 .debug_info    0x000222a2      0xd0c build/pic32mz_ef_sk_meb2/debug/_ext/1597685232/gfxu_palette.o
 .debug_info    0x00022fae     0x1289 build/pic32mz_ef_sk_meb2/debug/_ext/1597685232/gfxu_string.o
 .debug_info    0x00024237     0x19d6 build/pic32mz_ef_sk_meb2/debug/_ext/1597685232/gfxu_string_external.o
 .debug_info    0x00025c0d      0xe85 build/pic32mz_ef_sk_meb2/debug/_ext/1597685232/gfxu_string_internal.o
 .debug_info    0x00026a92     0x17b4 build/pic32mz_ef_sk_meb2/debug/_ext/1597685232/gfxu_string_query.o
 .debug_info    0x00028246     0x1dd8 build/pic32mz_ef_sk_meb2/debug/_ext/1597685232/gfxu_string_utils.o
 .debug_info    0x0002a01e     0x2744 build/pic32mz_ef_sk_meb2/debug/_ext/1907747181/libaria.o
 .debug_info    0x0002c762     0x357e build/pic32mz_ef_sk_meb2/debug/_ext/1907747181/libaria_context.o
 .debug_info    0x0002fce0     0x2f7f build/pic32mz_ef_sk_meb2/debug/_ext/1907747181/libaria_context_paint.o
 .debug_info    0x00032c5f      0xf16 build/pic32mz_ef_sk_meb2/debug/_ext/1907747181/libaria_draw.o
 .debug_info    0x00033b75     0x2166 build/pic32mz_ef_sk_meb2/debug/_ext/1907747181/libaria_editwidget.o
 .debug_info    0x00035cdb     0x2525 build/pic32mz_ef_sk_meb2/debug/_ext/1907747181/libaria_event.o
 .debug_info    0x00038200     0x2715 build/pic32mz_ef_sk_meb2/debug/_ext/1907747181/libaria_input.o
 .debug_info    0x0003a915     0x3477 build/pic32mz_ef_sk_meb2/debug/_ext/1907747181/libaria_layer.o
 .debug_info    0x0003dd8c     0x2897 build/pic32mz_ef_sk_meb2/debug/_ext/1907747181/libaria_list.o
 .debug_info    0x00040623      0xabc build/pic32mz_ef_sk_meb2/debug/_ext/1907747181/libaria_scheme.o
 .debug_info    0x000410df     0x3171 build/pic32mz_ef_sk_meb2/debug/_ext/1907747181/libaria_screen.o
 .debug_info    0x00044250     0x37c3 build/pic32mz_ef_sk_meb2/debug/_ext/1907747181/libaria_string.o
 .debug_info    0x00047a13     0x3623 build/pic32mz_ef_sk_meb2/debug/_ext/1907747181/libaria_utils.o
 .debug_info    0x0004b036     0x404b build/pic32mz_ef_sk_meb2/debug/_ext/1907747181/libaria_widget.o
 .debug_info    0x0004f081     0x2975 build/pic32mz_ef_sk_meb2/debug/_ext/1907747181/libaria_widget_skin_classic.o
 .debug_info    0x000519f6     0x366a build/pic32mz_ef_sk_meb2/debug/_ext/1907747181/libaria_widget_button.o
 .debug_info    0x00055060     0x341f build/pic32mz_ef_sk_meb2/debug/_ext/1907747181/libaria_widget_button_skin_classic.o
 .debug_info    0x0005847f     0x34a3 build/pic32mz_ef_sk_meb2/debug/_ext/1907747181/libaria_widget_checkbox.o
 .debug_info    0x0005b922     0x3558 build/pic32mz_ef_sk_meb2/debug/_ext/1907747181/libaria_widget_checkbox_skin_classic.o
 .debug_info    0x0005ee7a     0x2629 build/pic32mz_ef_sk_meb2/debug/_ext/1907747181/libaria_widget_circle.o
 .debug_info    0x000614a3     0x2b55 build/pic32mz_ef_sk_meb2/debug/_ext/1907747181/libaria_widget_circle_skin_classic.o
 .debug_info    0x00063ff8     0x25c3 build/pic32mz_ef_sk_meb2/debug/_ext/1907747181/libaria_widget_drawsurface.o
 .debug_info    0x000665bb     0x2ae0 build/pic32mz_ef_sk_meb2/debug/_ext/1907747181/libaria_widget_drawsurface_skin_classic.o
 .debug_info    0x0006909b     0x2616 build/pic32mz_ef_sk_meb2/debug/_ext/1907747181/libaria_widget_gradient.o
 .debug_info    0x0006b6b1     0x2afe build/pic32mz_ef_sk_meb2/debug/_ext/1907747181/libaria_widget_gradient_skin_classic.o
 .debug_info    0x0006e1af     0x27a5 build/pic32mz_ef_sk_meb2/debug/_ext/1907747181/libaria_widget_groupbox.o
 .debug_info    0x00070954     0x30d1 build/pic32mz_ef_sk_meb2/debug/_ext/1907747181/libaria_widget_groupbox_skin_classic.o
 .debug_info    0x00073a25     0x2988 build/pic32mz_ef_sk_meb2/debug/_ext/1907747181/libaria_widget_image.o
 .debug_info    0x000763ad     0x3054 build/pic32mz_ef_sk_meb2/debug/_ext/1907747181/libaria_widget_image_skin_classic.o
 .debug_info    0x00079401     0x3176 build/pic32mz_ef_sk_meb2/debug/_ext/1907747181/libaria_widget_imagesequence.o
 .debug_info    0x0007c577     0x3120 build/pic32mz_ef_sk_meb2/debug/_ext/1907747181/libaria_widget_imagesequence_skin_classic.o
 .debug_info    0x0007f697     0x40dd build/pic32mz_ef_sk_meb2/debug/_ext/1907747181/libaria_widget_keypad.o
 .debug_info    0x00083774     0x2c61 build/pic32mz_ef_sk_meb2/debug/_ext/1907747181/libaria_widget_keypad_skin_classic.o
 .debug_info    0x000863d5     0x2885 build/pic32mz_ef_sk_meb2/debug/_ext/1907747181/libaria_widget_label.o
 .debug_info    0x00088c5a     0x2e06 build/pic32mz_ef_sk_meb2/debug/_ext/1907747181/libaria_widget_label_skin_classic.o
 .debug_info    0x0008ba60     0x263a build/pic32mz_ef_sk_meb2/debug/_ext/1907747181/libaria_widget_line.o
 .debug_info    0x0008e09a     0x2b58 build/pic32mz_ef_sk_meb2/debug/_ext/1907747181/libaria_widget_line_skin_classic.o
 .debug_info    0x00090bf2     0x49b6 build/pic32mz_ef_sk_meb2/debug/_ext/1907747181/libaria_widget_list.o
 .debug_info    0x000955a8     0x39f2 build/pic32mz_ef_sk_meb2/debug/_ext/1907747181/libaria_widget_list_skin_classic.o
 .debug_info    0x00098f9a     0x36d6 build/pic32mz_ef_sk_meb2/debug/_ext/1907747181/libaria_widget_listwheel.o
 .debug_info    0x0009c670     0x3732 build/pic32mz_ef_sk_meb2/debug/_ext/1907747181/libaria_widget_listwheel_skin_classic.o
 .debug_info    0x0009fda2     0x2845 build/pic32mz_ef_sk_meb2/debug/_ext/1907747181/libaria_widget_progressbar.o
 .debug_info    0x000a25e7     0x2c92 build/pic32mz_ef_sk_meb2/debug/_ext/1907747181/libaria_widget_progressbar_skin_classic.o
 .debug_info    0x000a5279     0x3726 build/pic32mz_ef_sk_meb2/debug/_ext/1907747181/libaria_widget_radiobutton.o
 .debug_info    0x000a899f     0x3b83 build/pic32mz_ef_sk_meb2/debug/_ext/1907747181/libaria_widget_radiobutton_skin_classic.o
 .debug_info    0x000ac522     0x2caa build/pic32mz_ef_sk_meb2/debug/_ext/1907747181/libaria_radiobutton_group.o
 .debug_info    0x000af1cc     0x254c build/pic32mz_ef_sk_meb2/debug/_ext/1907747181/libaria_widget_rectangle.o
 .debug_info    0x000b1718     0x2af3 build/pic32mz_ef_sk_meb2/debug/_ext/1907747181/libaria_widget_rectangle_skin_classic.o
 .debug_info    0x000b420b     0x384e build/pic32mz_ef_sk_meb2/debug/_ext/1907747181/libaria_widget_scrollbar.o
 .debug_info    0x000b7a59     0x33d0 build/pic32mz_ef_sk_meb2/debug/_ext/1907747181/libaria_widget_scrollbar_skin_classic.o
 .debug_info    0x000bae29     0x3275 build/pic32mz_ef_sk_meb2/debug/_ext/1907747181/libaria_widget_slider.o
 .debug_info    0x000be09e     0x2e89 build/pic32mz_ef_sk_meb2/debug/_ext/1907747181/libaria_widget_slider_skin_classic.o
 .debug_info    0x000c0f27     0x3485 build/pic32mz_ef_sk_meb2/debug/_ext/1907747181/libaria_widget_textfield.o
 .debug_info    0x000c43ac     0x307b build/pic32mz_ef_sk_meb2/debug/_ext/1907747181/libaria_widget_textfield_skin_classic.o
 .debug_info    0x000c7427     0x2a58 build/pic32mz_ef_sk_meb2/debug/_ext/1907747181/libaria_widget_touchtest.o
 .debug_info    0x000c9e7f     0x2d81 build/pic32mz_ef_sk_meb2/debug/_ext/1907747181/libaria_widget_touchtest_skin_classic.o
 .debug_info    0x000ccc00     0x2a48 build/pic32mz_ef_sk_meb2/debug/_ext/1907747181/libaria_widget_window.o
 .debug_info    0x000cf648     0x3460 build/pic32mz_ef_sk_meb2/debug/_ext/1907747181/libaria_widget_window_skin_classic.o
 .debug_info    0x000d2aa8     0x3619 build/pic32mz_ef_sk_meb2/debug/_ext/1847583374/gfx.o
 .debug_info    0x000d60c1      0x765 build/pic32mz_ef_sk_meb2/debug/_ext/1847583374/gfx_color.o
 .debug_info    0x000d6826     0x27e5 build/pic32mz_ef_sk_meb2/debug/_ext/1847583374/gfx_context.o
 .debug_info    0x000d900b     0x44a2 build/pic32mz_ef_sk_meb2/debug/_ext/1847583374/gfx_default_impl.o
 .debug_info    0x000dd4ad      0x954 build/pic32mz_ef_sk_meb2/debug/_ext/1847583374/gfx_display.o
 .debug_info    0x000dde01     0x2984 build/pic32mz_ef_sk_meb2/debug/_ext/1847583374/gfx_driver_interface.o
 .debug_info    0x000e0785     0x3d17 build/pic32mz_ef_sk_meb2/debug/_ext/1847583374/gfx_get.o
 .debug_info    0x000e449c      0x785 build/pic32mz_ef_sk_meb2/debug/_ext/1847583374/gfx_interface.o
 .debug_info    0x000e4c21     0x2860 build/pic32mz_ef_sk_meb2/debug/_ext/1847583374/gfx_layer.o
 .debug_info    0x000e7481     0x1926 build/pic32mz_ef_sk_meb2/debug/_ext/1847583374/gfx_pixel_buffer.o
 .debug_info    0x000e8da7      0x570 build/pic32mz_ef_sk_meb2/debug/_ext/1847583374/gfx_rect.o
 .debug_info    0x000e9317      0x8c5 build/pic32mz_ef_sk_meb2/debug/_ext/1847583374/gfx_util.o
 .debug_info    0x000e9bdc     0x3963 build/pic32mz_ef_sk_meb2/debug/_ext/1847583374/gfx_set.o
 .debug_info    0x000ed53f      0xea8 build/pic32mz_ef_sk_meb2/debug/_ext/1847583374/gfx_color_blend.o
 .debug_info    0x000ee3e7     0x3d8a build/pic32mz_ef_sk_meb2/debug/_ext/1847583374/gfx_color_convert.o
 .debug_info    0x000f2171      0xf24 build/pic32mz_ef_sk_meb2/debug/_ext/1847583374/gfx_color_lerp.o
 .debug_info    0x000f3095      0x848 build/pic32mz_ef_sk_meb2/debug/_ext/1847583374/gfx_color_value.o
 .debug_info    0x000f38dd     0x2c29 build/pic32mz_ef_sk_meb2/debug/_ext/1847583374/gfx_draw_blit.o
 .debug_info    0x000f6506     0x2872 build/pic32mz_ef_sk_meb2/debug/_ext/1847583374/gfx_draw_circle.o
 .debug_info    0x000f8d78     0x2c05 build/pic32mz_ef_sk_meb2/debug/_ext/1847583374/gfx_draw_line.o
 .debug_info    0x000fb97d     0x2989 build/pic32mz_ef_sk_meb2/debug/_ext/1847583374/gfx_draw_pixel.o
 .debug_info    0x000fe306     0x2e92 build/pic32mz_ef_sk_meb2/debug/_ext/1847583374/gfx_draw_rect.o
 .debug_info    0x00101198      0x71f build/pic32mz_ef_sk_meb2/debug/_ext/1847583374/gfx_math.o
 .debug_info    0x001018b7     0x8b1b build/pic32mz_ef_sk_meb2/debug/_ext/853959373/sys_dma.o
 .debug_info    0x0010a3d2     0x21e9 build/pic32mz_ef_sk_meb2/debug/_ext/1042686532/sys_int_pic32.o
 .debug_info    0x0010c5bb     0x7798 build/pic32mz_ef_sk_meb2/debug/_ext/1219754583/drv_i2c_static_buffer_model.o
 .debug_info    0x00113d53     0x122d build/pic32mz_ef_sk_meb2/debug/_ext/1219754583/drv_i2c_mapping.o
 .debug_info    0x00114f80     0x58b9 build/pic32mz_ef_sk_meb2/debug/_ext/199634090/drv_tmr_static.o
 .debug_info    0x0011a839     0x1a18 build/pic32mz_ef_sk_meb2/debug/_ext/199634090/drv_tmr_mapping.o
 .debug_info    0x0011c251     0x9fed build/pic32mz_ef_sk_meb2/debug/_ext/713288229/drv_gfx_lcc_generic.o
 .debug_info    0x0012623e     0x2dc9 build/pic32mz_ef_sk_meb2/debug/_ext/1740298103/libaria_harmony.o
 .debug_info    0x00129007     0x3493 build/pic32mz_ef_sk_meb2/debug/_ext/1740298103/libaria_init.o
 .debug_info    0x0012c49a      0xb4b build/pic32mz_ef_sk_meb2/debug/_ext/1740298103/libaria_events.o
 .debug_info    0x0012cfe5      0xb4b build/pic32mz_ef_sk_meb2/debug/_ext/1740298103/libaria_macros.o
 .debug_info    0x0012db30      0x910 build/pic32mz_ef_sk_meb2/debug/_ext/477038478/gfx_display_def.o
 .debug_info    0x0012e440     0x2878 build/pic32mz_ef_sk_meb2/debug/_ext/477038478/gfx_driver_def.o
 .debug_info    0x00130cb8     0x3166 build/pic32mz_ef_sk_meb2/debug/_ext/1847413222/sys_clk.o
 .debug_info    0x00133e1e     0x3570 build/pic32mz_ef_sk_meb2/debug/_ext/1847413222/sys_clk_pic32mz.o
 .debug_info    0x0013738e     0x172d build/pic32mz_ef_sk_meb2/debug/_ext/924081491/sys_devcon.o
 .debug_info    0x00138abb     0x144b build/pic32mz_ef_sk_meb2/debug/_ext/924081491/sys_devcon_pic32mz.o
 .debug_info    0x00139f06     0x5e6e build/pic32mz_ef_sk_meb2/debug/_ext/50030870/sys_ports_static.o
 .debug_info    0x0013fd74     0x137b build/pic32mz_ef_sk_meb2/debug/_ext/1465531745/bsp.o
 .debug_info    0x001410ef     0x3c4a build/pic32mz_ef_sk_meb2/debug/_ext/1951523377/system_init.o
 .debug_info    0x00144d39     0x23a8 build/pic32mz_ef_sk_meb2/debug/_ext/1951523377/system_interrupt.o
 .debug_info    0x001470e1      0xca0 build/pic32mz_ef_sk_meb2/debug/_ext/1951523377/system_exceptions.o
 .debug_info    0x00147d81      0xc82 build/pic32mz_ef_sk_meb2/debug/_ext/1951523377/system_tasks.o
 .debug_info    0x00148a03     0x12ff build/pic32mz_ef_sk_meb2/debug/_ext/715821942/gfx_assets.o
 .debug_info    0x00149d02      0x131 c:/program files (x86)/microchip/xc32/v1.42/bin/bin/../../lib/gcc/pic32mx/4.8.3\libgcc.a(floatunsisf.o)
 .debug_info    0x00149e33       0xf5 c:/program files (x86)/microchip/xc32/v1.42/bin/bin/../../lib/gcc/pic32mx/4.8.3/../../../../pic32mx/lib\libpic32.a(default-bootstrap-exception-handler.o)
 .debug_info    0x00149f28       0xcf c:/program files (x86)/microchip/xc32/v1.42/bin/bin/../../lib/gcc/pic32mx/4.8.3/../../../../pic32mx/lib\libpic32.a(default-on-reset.o)
 .debug_info    0x00149ff7       0xd7 c:/program files (x86)/microchip/xc32/v1.42/bin/bin/../../lib/gcc/pic32mx/4.8.3/../../../../pic32mx/lib\libpic32.a(default-on-bootstrap.o)
 .debug_info    0x0014a0ce       0xe9 c:/program files (x86)/microchip/xc32/v1.42/bin/bin/../../lib/gcc/pic32mx/4.8.3/../../../../pic32mx/lib\libpic32.a(defaultinterrupt.o)
 .debug_info    0x0014a1b7       0xf5 c:/program files (x86)/microchip/xc32/v1.42/bin/bin/../../lib/gcc/pic32mx/4.8.3/../../../../pic32mx/lib\libpic32.a(default-cache-err-exception-handler.o)
 .debug_info    0x0014a2ac      0x105 c:/program files (x86)/microchip/xc32/v1.42/bin/bin/../../lib/gcc/pic32mx/4.8.3/../../../../pic32mx/lib\libpic32.a(default-simple-tlb-refill-exception-handler.o)
 .debug_info    0x0014a3b1       0xc8 c:/program files (x86)/microchip/xc32/v1.42/bin/bin/../../lib/gcc/pic32mx/4.8.3/../../../../pic32mx/lib\libc.a(fclose.o)
 .debug_info    0x0014a479       0xc8 c:/program files (x86)/microchip/xc32/v1.42/bin/bin/../../lib/gcc/pic32mx/4.8.3/../../../../pic32mx/lib\libc.a(fflush.o)
 .debug_info    0x0014a541       0xc6 c:/program files (x86)/microchip/xc32/v1.42/bin/bin/../../lib/gcc/pic32mx/4.8.3/../../../../pic32mx/lib\libc.a(fopen.o)
 .debug_info    0x0014a607       0xc6 c:/program files (x86)/microchip/xc32/v1.42/bin/bin/../../lib/gcc/pic32mx/4.8.3/../../../../pic32mx/lib\libc.a(fread.o)
 .debug_info    0x0014a6cd       0xca c:/program files (x86)/microchip/xc32/v1.42/bin/bin/../../lib/gcc/pic32mx/4.8.3/../../../../pic32mx/lib\libc.a(freopen.o)
 .debug_info    0x0014a797       0xe6 c:/program files (x86)/microchip/xc32/v1.42/bin/bin/../../lib/gcc/pic32mx/4.8.3/../../../../pic32mx/lib\libc.a(fseek.o)
 .debug_info    0x0014a87d       0xc8 c:/program files (x86)/microchip/xc32/v1.42/bin/bin/../../lib/gcc/pic32mx/4.8.3/../../../../pic32mx/lib\libc.a(fwrite.o)
 .debug_info    0x0014a945       0xee c:/program files (x86)/microchip/xc32/v1.42/bin/bin/../../lib/gcc/pic32mx/4.8.3/../../../../pic32mx/lib\libc.a(buf.o)
 .debug_info    0x0014aa33       0xc8 c:/program files (x86)/microchip/xc32/v1.42/bin/bin/../../lib/gcc/pic32mx/4.8.3/../../../../pic32mx/lib\libc.a(calloc.o)
 .debug_info    0x0014aafb       0xf9 c:/program files (x86)/microchip/xc32/v1.42/bin/bin/../../lib/gcc/pic32mx/4.8.3/../../../../pic32mx/lib\libc.a(malloc.o)
 .debug_info    0x0014abf4       0xc6 c:/program files (x86)/microchip/xc32/v1.42/bin/bin/../../lib/gcc/pic32mx/4.8.3/../../../../pic32mx/lib\libc.a(fgetc.o)
 .debug_info    0x0014acba       0xc6 c:/program files (x86)/microchip/xc32/v1.42/bin/bin/../../lib/gcc/pic32mx/4.8.3/../../../../pic32mx/lib\libc.a(_fputc_simple.o)
 .debug_info    0x0014ad80       0xc9 c:/program files (x86)/microchip/xc32/v1.42/bin/bin/../../lib/gcc/pic32mx/4.8.3/../../../../pic32mx/lib\libc.a(filbuf.o)
 .debug_info    0x0014ae49       0xc9 c:/program files (x86)/microchip/xc32/v1.42/bin/bin/../../lib/gcc/pic32mx/4.8.3/../../../../pic32mx/lib\libc.a(_flsbuf_simple.o)
 .debug_info    0x0014af12      0x12c c:/program files (x86)/microchip/xc32/v1.42/bin/bin/../../lib/gcc/pic32mx/4.8.3/../../../../pic32mx/lib\libpic32.a(sbrk.o)
 .debug_info    0x0014b03e       0xbe c:/program files (x86)/microchip/xc32/v1.42/bin/bin/../../lib/gcc/pic32mx/4.8.3/../../../../pic32mx/lib\libpic32.a(read.o)
 .debug_info    0x0014b0fc       0xc0 c:/program files (x86)/microchip/xc32/v1.42/bin/bin/../../lib/gcc/pic32mx/4.8.3/../../../../pic32mx/lib\libpic32.a(write.o)
 .debug_info    0x0014b1bc       0xc0 c:/program files (x86)/microchip/xc32/v1.42/bin/bin/../../lib/gcc/pic32mx/4.8.3/../../../../pic32mx/lib\libpic32.a(lseek.o)
 .debug_info    0x0014b27c       0xc2 c:/program files (x86)/microchip/xc32/v1.42/bin/bin/../../lib/gcc/pic32mx/4.8.3/../../../../pic32mx/lib\libpic32.a(remove.o)
 .debug_info    0x0014b33e       0xc0 c:/program files (x86)/microchip/xc32/v1.42/bin/bin/../../lib/gcc/pic32mx/4.8.3/../../../../pic32mx/lib\libpic32.a(close.o)
 .debug_info    0x0014b3fe       0xbe c:/program files (x86)/microchip/xc32/v1.42/bin/bin/../../lib/gcc/pic32mx/4.8.3/../../../../pic32mx/lib\libpic32.a(open.o)
 .debug_info    0x0014b4bc       0xc8 c:/program files (x86)/microchip/xc32/v1.42/bin/bin/../../lib/gcc/pic32mx/4.8.3/../../../../pic32mx/lib\libpic32.a(_mon_putc.o)

.debug_abbrev   0x00000000    0x14809
 *(.debug_abbrev)
 .debug_abbrev  0x00000000       0x28 c:/program files (x86)/microchip/xc32/v1.42/bin/bin/../../lib/gcc/pic32mx/4.8.3/../../../../pic32mx/lib\software-debug-break.o
 .debug_abbrev  0x00000028      0x288 build/pic32mz_ef_sk_meb2/debug/_ext/1360937237/app.o
 .debug_abbrev  0x000002b0       0x93 build/pic32mz_ef_sk_meb2/debug/_ext/1360937237/main.o
 .debug_abbrev  0x00000343      0x2a4 build/pic32mz_ef_sk_meb2/debug/_ext/1360937237/ov2640.o
 .debug_abbrev  0x000005e7      0x233 build/pic32mz_ef_sk_meb2/debug/_ext/1360937237/i2c_master_noint.o
 .debug_abbrev  0x0000081a       0xb1 build/pic32mz_ef_sk_meb2/debug/_ext/426253641/jidctint.o
 .debug_abbrev  0x000008cb      0x1b0 build/pic32mz_ef_sk_meb2/debug/_ext/1597685232/gfxu_image.o
 .debug_abbrev  0x00000a7b      0x284 build/pic32mz_ef_sk_meb2/debug/_ext/1597685232/gfxu_image_png_external.o
 .debug_abbrev  0x00000cff      0x1eb build/pic32mz_ef_sk_meb2/debug/_ext/1597685232/gfxu_image_png_internal.o
 .debug_abbrev  0x00000eea      0x456 build/pic32mz_ef_sk_meb2/debug/_ext/1597685232/gfxu_image_jpg_internal.o
 .debug_abbrev  0x00001340      0x5c7 build/pic32mz_ef_sk_meb2/debug/_ext/493934858/lodepng.o
 .debug_abbrev  0x00001907      0x2ab build/pic32mz_ef_sk_meb2/debug/_ext/1597685232/gfxu_image_raw_external.o
 .debug_abbrev  0x00001bb2      0x234 build/pic32mz_ef_sk_meb2/debug/_ext/1597685232/gfxu_image_raw_internal.o
 .debug_abbrev  0x00001de6      0x2f6 build/pic32mz_ef_sk_meb2/debug/_ext/1597685232/gfxu_image_rle_external.o
 .debug_abbrev  0x000020dc      0x248 build/pic32mz_ef_sk_meb2/debug/_ext/1597685232/gfxu_image_rle_internal.o
 .debug_abbrev  0x00002324      0x1ff build/pic32mz_ef_sk_meb2/debug/_ext/1597685232/gfxu_image_utils.o
 .debug_abbrev  0x00002523      0x139 build/pic32mz_ef_sk_meb2/debug/_ext/1597685232/gfxu_palette.o
 .debug_abbrev  0x0000265c      0x1c6 build/pic32mz_ef_sk_meb2/debug/_ext/1597685232/gfxu_string.o
 .debug_abbrev  0x00002822      0x330 build/pic32mz_ef_sk_meb2/debug/_ext/1597685232/gfxu_string_external.o
 .debug_abbrev  0x00002b52      0x1c0 build/pic32mz_ef_sk_meb2/debug/_ext/1597685232/gfxu_string_internal.o
 .debug_abbrev  0x00002d12      0x256 build/pic32mz_ef_sk_meb2/debug/_ext/1597685232/gfxu_string_query.o
 .debug_abbrev  0x00002f68      0x33b build/pic32mz_ef_sk_meb2/debug/_ext/1597685232/gfxu_string_utils.o
 .debug_abbrev  0x000032a3      0x219 build/pic32mz_ef_sk_meb2/debug/_ext/1907747181/libaria.o
 .debug_abbrev  0x000034bc      0x415 build/pic32mz_ef_sk_meb2/debug/_ext/1907747181/libaria_context.o
 .debug_abbrev  0x000038d1      0x281 build/pic32mz_ef_sk_meb2/debug/_ext/1907747181/libaria_context_paint.o
 .debug_abbrev  0x00003b52      0x177 build/pic32mz_ef_sk_meb2/debug/_ext/1907747181/libaria_draw.o
 .debug_abbrev  0x00003cc9      0x286 build/pic32mz_ef_sk_meb2/debug/_ext/1907747181/libaria_editwidget.o
 .debug_abbrev  0x00003f4f      0x280 build/pic32mz_ef_sk_meb2/debug/_ext/1907747181/libaria_event.o
 .debug_abbrev  0x000041cf      0x258 build/pic32mz_ef_sk_meb2/debug/_ext/1907747181/libaria_input.o
 .debug_abbrev  0x00004427      0x2e0 build/pic32mz_ef_sk_meb2/debug/_ext/1907747181/libaria_layer.o
 .debug_abbrev  0x00004707      0x2a8 build/pic32mz_ef_sk_meb2/debug/_ext/1907747181/libaria_list.o
 .debug_abbrev  0x000049af      0x14e build/pic32mz_ef_sk_meb2/debug/_ext/1907747181/libaria_scheme.o
 .debug_abbrev  0x00004afd      0x2c0 build/pic32mz_ef_sk_meb2/debug/_ext/1907747181/libaria_screen.o
 .debug_abbrev  0x00004dbd      0x44a build/pic32mz_ef_sk_meb2/debug/_ext/1907747181/libaria_string.o
 .debug_abbrev  0x00005207      0x3f7 build/pic32mz_ef_sk_meb2/debug/_ext/1907747181/libaria_utils.o
 .debug_abbrev  0x000055fe      0x3fb build/pic32mz_ef_sk_meb2/debug/_ext/1907747181/libaria_widget.o
 .debug_abbrev  0x000059f9      0x256 build/pic32mz_ef_sk_meb2/debug/_ext/1907747181/libaria_widget_skin_classic.o
 .debug_abbrev  0x00005c4f      0x396 build/pic32mz_ef_sk_meb2/debug/_ext/1907747181/libaria_widget_button.o
 .debug_abbrev  0x00005fe5      0x2ef build/pic32mz_ef_sk_meb2/debug/_ext/1907747181/libaria_widget_button_skin_classic.o
 .debug_abbrev  0x000062d4      0x368 build/pic32mz_ef_sk_meb2/debug/_ext/1907747181/libaria_widget_checkbox.o
 .debug_abbrev  0x0000663c      0x329 build/pic32mz_ef_sk_meb2/debug/_ext/1907747181/libaria_widget_checkbox_skin_classic.o
 .debug_abbrev  0x00006965      0x25a build/pic32mz_ef_sk_meb2/debug/_ext/1907747181/libaria_widget_circle.o
 .debug_abbrev  0x00006bbf      0x258 build/pic32mz_ef_sk_meb2/debug/_ext/1907747181/libaria_widget_circle_skin_classic.o
 .debug_abbrev  0x00006e17      0x25a build/pic32mz_ef_sk_meb2/debug/_ext/1907747181/libaria_widget_drawsurface.o
 .debug_abbrev  0x00007071      0x261 build/pic32mz_ef_sk_meb2/debug/_ext/1907747181/libaria_widget_drawsurface_skin_classic.o
 .debug_abbrev  0x000072d2      0x25a build/pic32mz_ef_sk_meb2/debug/_ext/1907747181/libaria_widget_gradient.o
 .debug_abbrev  0x0000752c      0x254 build/pic32mz_ef_sk_meb2/debug/_ext/1907747181/libaria_widget_gradient_skin_classic.o
 .debug_abbrev  0x00007780      0x29e build/pic32mz_ef_sk_meb2/debug/_ext/1907747181/libaria_widget_groupbox.o
 .debug_abbrev  0x00007a1e      0x2b7 build/pic32mz_ef_sk_meb2/debug/_ext/1907747181/libaria_widget_groupbox_skin_classic.o
 .debug_abbrev  0x00007cd5      0x265 build/pic32mz_ef_sk_meb2/debug/_ext/1907747181/libaria_widget_image.o
 .debug_abbrev  0x00007f3a      0x287 build/pic32mz_ef_sk_meb2/debug/_ext/1907747181/libaria_widget_image_skin_classic.o
 .debug_abbrev  0x000081c1      0x2ed build/pic32mz_ef_sk_meb2/debug/_ext/1907747181/libaria_widget_imagesequence.o
 .debug_abbrev  0x000084ae      0x278 build/pic32mz_ef_sk_meb2/debug/_ext/1907747181/libaria_widget_imagesequence_skin_classic.o
 .debug_abbrev  0x00008726      0x39c build/pic32mz_ef_sk_meb2/debug/_ext/1907747181/libaria_widget_keypad.o
 .debug_abbrev  0x00008ac2      0x269 build/pic32mz_ef_sk_meb2/debug/_ext/1907747181/libaria_widget_keypad_skin_classic.o
 .debug_abbrev  0x00008d2b      0x29c build/pic32mz_ef_sk_meb2/debug/_ext/1907747181/libaria_widget_label.o
 .debug_abbrev  0x00008fc7      0x263 build/pic32mz_ef_sk_meb2/debug/_ext/1907747181/libaria_widget_label_skin_classic.o
 .debug_abbrev  0x0000922a      0x278 build/pic32mz_ef_sk_meb2/debug/_ext/1907747181/libaria_widget_line.o
 .debug_abbrev  0x000094a2      0x258 build/pic32mz_ef_sk_meb2/debug/_ext/1907747181/libaria_widget_line_skin_classic.o
 .debug_abbrev  0x000096fa      0x429 build/pic32mz_ef_sk_meb2/debug/_ext/1907747181/libaria_widget_list.o
 .debug_abbrev  0x00009b23      0x347 build/pic32mz_ef_sk_meb2/debug/_ext/1907747181/libaria_widget_list_skin_classic.o
 .debug_abbrev  0x00009e6a      0x3e2 build/pic32mz_ef_sk_meb2/debug/_ext/1907747181/libaria_widget_listwheel.o
 .debug_abbrev  0x0000a24c      0x3c2 build/pic32mz_ef_sk_meb2/debug/_ext/1907747181/libaria_widget_listwheel_skin_classic.o
 .debug_abbrev  0x0000a60e      0x25a build/pic32mz_ef_sk_meb2/debug/_ext/1907747181/libaria_widget_progressbar.o
 .debug_abbrev  0x0000a868      0x269 build/pic32mz_ef_sk_meb2/debug/_ext/1907747181/libaria_widget_progressbar_skin_classic.o
 .debug_abbrev  0x0000aad1      0x357 build/pic32mz_ef_sk_meb2/debug/_ext/1907747181/libaria_widget_radiobutton.o
 .debug_abbrev  0x0000ae28      0x364 build/pic32mz_ef_sk_meb2/debug/_ext/1907747181/libaria_widget_radiobutton_skin_classic.o
 .debug_abbrev  0x0000b18c      0x26d build/pic32mz_ef_sk_meb2/debug/_ext/1907747181/libaria_radiobutton_group.o
 .debug_abbrev  0x0000b3f9      0x269 build/pic32mz_ef_sk_meb2/debug/_ext/1907747181/libaria_widget_rectangle.o
 .debug_abbrev  0x0000b662      0x245 build/pic32mz_ef_sk_meb2/debug/_ext/1907747181/libaria_widget_rectangle_skin_classic.o
 .debug_abbrev  0x0000b8a7      0x39a build/pic32mz_ef_sk_meb2/debug/_ext/1907747181/libaria_widget_scrollbar.o
 .debug_abbrev  0x0000bc41      0x296 build/pic32mz_ef_sk_meb2/debug/_ext/1907747181/libaria_widget_scrollbar_skin_classic.o
 .debug_abbrev  0x0000bed7      0x376 build/pic32mz_ef_sk_meb2/debug/_ext/1907747181/libaria_widget_slider.o
 .debug_abbrev  0x0000c24d      0x269 build/pic32mz_ef_sk_meb2/debug/_ext/1907747181/libaria_widget_slider_skin_classic.o
 .debug_abbrev  0x0000c4b6      0x3af build/pic32mz_ef_sk_meb2/debug/_ext/1907747181/libaria_widget_textfield.o
 .debug_abbrev  0x0000c865      0x290 build/pic32mz_ef_sk_meb2/debug/_ext/1907747181/libaria_widget_textfield_skin_classic.o
 .debug_abbrev  0x0000caf5      0x2b6 build/pic32mz_ef_sk_meb2/debug/_ext/1907747181/libaria_widget_touchtest.o
 .debug_abbrev  0x0000cdab      0x28b build/pic32mz_ef_sk_meb2/debug/_ext/1907747181/libaria_widget_touchtest_skin_classic.o
 .debug_abbrev  0x0000d036      0x2b6 build/pic32mz_ef_sk_meb2/debug/_ext/1907747181/libaria_widget_window.o
 .debug_abbrev  0x0000d2ec      0x2ef build/pic32mz_ef_sk_meb2/debug/_ext/1907747181/libaria_widget_window_skin_classic.o
 .debug_abbrev  0x0000d5db      0x328 build/pic32mz_ef_sk_meb2/debug/_ext/1847583374/gfx.o
 .debug_abbrev  0x0000d903       0xd9 build/pic32mz_ef_sk_meb2/debug/_ext/1847583374/gfx_color.o
 .debug_abbrev  0x0000d9dc      0x1a4 build/pic32mz_ef_sk_meb2/debug/_ext/1847583374/gfx_context.o
 .debug_abbrev  0x0000db80      0x3fc build/pic32mz_ef_sk_meb2/debug/_ext/1847583374/gfx_default_impl.o
 .debug_abbrev  0x0000df7c      0x125 build/pic32mz_ef_sk_meb2/debug/_ext/1847583374/gfx_display.o
 .debug_abbrev  0x0000e0a1      0x1ae build/pic32mz_ef_sk_meb2/debug/_ext/1847583374/gfx_driver_interface.o
 .debug_abbrev  0x0000e24f      0x2a0 build/pic32mz_ef_sk_meb2/debug/_ext/1847583374/gfx_get.o
 .debug_abbrev  0x0000e4ef       0x9f build/pic32mz_ef_sk_meb2/debug/_ext/1847583374/gfx_interface.o
 .debug_abbrev  0x0000e58e      0x226 build/pic32mz_ef_sk_meb2/debug/_ext/1847583374/gfx_layer.o
 .debug_abbrev  0x0000e7b4      0x304 build/pic32mz_ef_sk_meb2/debug/_ext/1847583374/gfx_pixel_buffer.o
 .debug_abbrev  0x0000eab8      0x12d build/pic32mz_ef_sk_meb2/debug/_ext/1847583374/gfx_rect.o
 .debug_abbrev  0x0000ebe5      0x18f build/pic32mz_ef_sk_meb2/debug/_ext/1847583374/gfx_util.o
 .debug_abbrev  0x0000ed74      0x23c build/pic32mz_ef_sk_meb2/debug/_ext/1847583374/gfx_set.o
 .debug_abbrev  0x0000efb0      0x2b8 build/pic32mz_ef_sk_meb2/debug/_ext/1847583374/gfx_color_blend.o
 .debug_abbrev  0x0000f268      0x2af build/pic32mz_ef_sk_meb2/debug/_ext/1847583374/gfx_color_convert.o
 .debug_abbrev  0x0000f517      0x1c9 build/pic32mz_ef_sk_meb2/debug/_ext/1847583374/gfx_color_lerp.o
 .debug_abbrev  0x0000f6e0      0x111 build/pic32mz_ef_sk_meb2/debug/_ext/1847583374/gfx_color_value.o
 .debug_abbrev  0x0000f7f1      0x2a8 build/pic32mz_ef_sk_meb2/debug/_ext/1847583374/gfx_draw_blit.o
 .debug_abbrev  0x0000fa99      0x1d0 build/pic32mz_ef_sk_meb2/debug/_ext/1847583374/gfx_draw_circle.o
 .debug_abbrev  0x0000fc69      0x291 build/pic32mz_ef_sk_meb2/debug/_ext/1847583374/gfx_draw_line.o
 .debug_abbrev  0x0000fefa      0x223 build/pic32mz_ef_sk_meb2/debug/_ext/1847583374/gfx_draw_pixel.o
 .debug_abbrev  0x0001011d      0x281 build/pic32mz_ef_sk_meb2/debug/_ext/1847583374/gfx_draw_rect.o
 .debug_abbrev  0x0001039e       0xee build/pic32mz_ef_sk_meb2/debug/_ext/1847583374/gfx_math.o
 .debug_abbrev  0x0001048c      0x421 build/pic32mz_ef_sk_meb2/debug/_ext/853959373/sys_dma.o
 .debug_abbrev  0x000108ad      0x22c build/pic32mz_ef_sk_meb2/debug/_ext/1042686532/sys_int_pic32.o
 .debug_abbrev  0x00010ad9      0x44b build/pic32mz_ef_sk_meb2/debug/_ext/1219754583/drv_i2c_static_buffer_model.o
 .debug_abbrev  0x00010f24      0x1ab build/pic32mz_ef_sk_meb2/debug/_ext/1219754583/drv_i2c_mapping.o
 .debug_abbrev  0x000110cf      0x447 build/pic32mz_ef_sk_meb2/debug/_ext/199634090/drv_tmr_static.o
 .debug_abbrev  0x00011516      0x2ee build/pic32mz_ef_sk_meb2/debug/_ext/199634090/drv_tmr_mapping.o
 .debug_abbrev  0x00011804      0x4e3 build/pic32mz_ef_sk_meb2/debug/_ext/713288229/drv_gfx_lcc_generic.o
 .debug_abbrev  0x00011ce7      0x257 build/pic32mz_ef_sk_meb2/debug/_ext/1740298103/libaria_harmony.o
 .debug_abbrev  0x00011f3e      0x2ae build/pic32mz_ef_sk_meb2/debug/_ext/1740298103/libaria_init.o
 .debug_abbrev  0x000121ec      0x10e build/pic32mz_ef_sk_meb2/debug/_ext/1740298103/libaria_events.o
 .debug_abbrev  0x000122fa      0x10e build/pic32mz_ef_sk_meb2/debug/_ext/1740298103/libaria_macros.o
 .debug_abbrev  0x00012408       0xda build/pic32mz_ef_sk_meb2/debug/_ext/477038478/gfx_display_def.o
 .debug_abbrev  0x000124e2      0x179 build/pic32mz_ef_sk_meb2/debug/_ext/477038478/gfx_driver_def.o
 .debug_abbrev  0x0001265b      0x404 build/pic32mz_ef_sk_meb2/debug/_ext/1847413222/sys_clk.o
 .debug_abbrev  0x00012a5f      0x432 build/pic32mz_ef_sk_meb2/debug/_ext/1847413222/sys_clk_pic32mz.o
 .debug_abbrev  0x00012e91      0x2ef build/pic32mz_ef_sk_meb2/debug/_ext/924081491/sys_devcon.o
 .debug_abbrev  0x00013180      0x290 build/pic32mz_ef_sk_meb2/debug/_ext/924081491/sys_devcon_pic32mz.o
 .debug_abbrev  0x00013410      0x2e3 build/pic32mz_ef_sk_meb2/debug/_ext/50030870/sys_ports_static.o
 .debug_abbrev  0x000136f3      0x284 build/pic32mz_ef_sk_meb2/debug/_ext/1465531745/bsp.o
 .debug_abbrev  0x00013977      0x2f9 build/pic32mz_ef_sk_meb2/debug/_ext/1951523377/system_init.o
 .debug_abbrev  0x00013c70      0x237 build/pic32mz_ef_sk_meb2/debug/_ext/1951523377/system_interrupt.o
 .debug_abbrev  0x00013ea7      0x151 build/pic32mz_ef_sk_meb2/debug/_ext/1951523377/system_exceptions.o
 .debug_abbrev  0x00013ff8      0x16f build/pic32mz_ef_sk_meb2/debug/_ext/1951523377/system_tasks.o
 .debug_abbrev  0x00014167      0x161 build/pic32mz_ef_sk_meb2/debug/_ext/715821942/gfx_assets.o
 .debug_abbrev  0x000142c8       0x62 c:/program files (x86)/microchip/xc32/v1.42/bin/bin/../../lib/gcc/pic32mx/4.8.3\libgcc.a(floatunsisf.o)
 .debug_abbrev  0x0001432a       0x28 c:/program files (x86)/microchip/xc32/v1.42/bin/bin/../../lib/gcc/pic32mx/4.8.3/../../../../pic32mx/lib\libpic32.a(default-bootstrap-exception-handler.o)
 .debug_abbrev  0x00014352       0x28 c:/program files (x86)/microchip/xc32/v1.42/bin/bin/../../lib/gcc/pic32mx/4.8.3/../../../../pic32mx/lib\libpic32.a(default-on-reset.o)
 .debug_abbrev  0x0001437a       0x28 c:/program files (x86)/microchip/xc32/v1.42/bin/bin/../../lib/gcc/pic32mx/4.8.3/../../../../pic32mx/lib\libpic32.a(default-on-bootstrap.o)
 .debug_abbrev  0x000143a2       0x28 c:/program files (x86)/microchip/xc32/v1.42/bin/bin/../../lib/gcc/pic32mx/4.8.3/../../../../pic32mx/lib\libpic32.a(defaultinterrupt.o)
 .debug_abbrev  0x000143ca       0x28 c:/program files (x86)/microchip/xc32/v1.42/bin/bin/../../lib/gcc/pic32mx/4.8.3/../../../../pic32mx/lib\libpic32.a(default-cache-err-exception-handler.o)
 .debug_abbrev  0x000143f2       0x28 c:/program files (x86)/microchip/xc32/v1.42/bin/bin/../../lib/gcc/pic32mx/4.8.3/../../../../pic32mx/lib\libpic32.a(default-simple-tlb-refill-exception-handler.o)
 .debug_abbrev  0x0001441a       0x28 c:/program files (x86)/microchip/xc32/v1.42/bin/bin/../../lib/gcc/pic32mx/4.8.3/../../../../pic32mx/lib\libc.a(fclose.o)
 .debug_abbrev  0x00014442       0x28 c:/program files (x86)/microchip/xc32/v1.42/bin/bin/../../lib/gcc/pic32mx/4.8.3/../../../../pic32mx/lib\libc.a(fflush.o)
 .debug_abbrev  0x0001446a       0x28 c:/program files (x86)/microchip/xc32/v1.42/bin/bin/../../lib/gcc/pic32mx/4.8.3/../../../../pic32mx/lib\libc.a(fopen.o)
 .debug_abbrev  0x00014492       0x28 c:/program files (x86)/microchip/xc32/v1.42/bin/bin/../../lib/gcc/pic32mx/4.8.3/../../../../pic32mx/lib\libc.a(fread.o)
 .debug_abbrev  0x000144ba       0x28 c:/program files (x86)/microchip/xc32/v1.42/bin/bin/../../lib/gcc/pic32mx/4.8.3/../../../../pic32mx/lib\libc.a(freopen.o)
 .debug_abbrev  0x000144e2       0x35 c:/program files (x86)/microchip/xc32/v1.42/bin/bin/../../lib/gcc/pic32mx/4.8.3/../../../../pic32mx/lib\libc.a(fseek.o)
 .debug_abbrev  0x00014517       0x28 c:/program files (x86)/microchip/xc32/v1.42/bin/bin/../../lib/gcc/pic32mx/4.8.3/../../../../pic32mx/lib\libc.a(fwrite.o)
 .debug_abbrev  0x0001453f       0x4f c:/program files (x86)/microchip/xc32/v1.42/bin/bin/../../lib/gcc/pic32mx/4.8.3/../../../../pic32mx/lib\libc.a(buf.o)
 .debug_abbrev  0x0001458e       0x28 c:/program files (x86)/microchip/xc32/v1.42/bin/bin/../../lib/gcc/pic32mx/4.8.3/../../../../pic32mx/lib\libc.a(calloc.o)
 .debug_abbrev  0x000145b6       0x47 c:/program files (x86)/microchip/xc32/v1.42/bin/bin/../../lib/gcc/pic32mx/4.8.3/../../../../pic32mx/lib\libc.a(malloc.o)
 .debug_abbrev  0x000145fd       0x28 c:/program files (x86)/microchip/xc32/v1.42/bin/bin/../../lib/gcc/pic32mx/4.8.3/../../../../pic32mx/lib\libc.a(fgetc.o)
 .debug_abbrev  0x00014625       0x28 c:/program files (x86)/microchip/xc32/v1.42/bin/bin/../../lib/gcc/pic32mx/4.8.3/../../../../pic32mx/lib\libc.a(_fputc_simple.o)
 .debug_abbrev  0x0001464d       0x28 c:/program files (x86)/microchip/xc32/v1.42/bin/bin/../../lib/gcc/pic32mx/4.8.3/../../../../pic32mx/lib\libc.a(filbuf.o)
 .debug_abbrev  0x00014675       0x28 c:/program files (x86)/microchip/xc32/v1.42/bin/bin/../../lib/gcc/pic32mx/4.8.3/../../../../pic32mx/lib\libc.a(_flsbuf_simple.o)
 .debug_abbrev  0x0001469d       0x54 c:/program files (x86)/microchip/xc32/v1.42/bin/bin/../../lib/gcc/pic32mx/4.8.3/../../../../pic32mx/lib\libpic32.a(sbrk.o)
 .debug_abbrev  0x000146f1       0x28 c:/program files (x86)/microchip/xc32/v1.42/bin/bin/../../lib/gcc/pic32mx/4.8.3/../../../../pic32mx/lib\libpic32.a(read.o)
 .debug_abbrev  0x00014719       0x28 c:/program files (x86)/microchip/xc32/v1.42/bin/bin/../../lib/gcc/pic32mx/4.8.3/../../../../pic32mx/lib\libpic32.a(write.o)
 .debug_abbrev  0x00014741       0x28 c:/program files (x86)/microchip/xc32/v1.42/bin/bin/../../lib/gcc/pic32mx/4.8.3/../../../../pic32mx/lib\libpic32.a(lseek.o)
 .debug_abbrev  0x00014769       0x28 c:/program files (x86)/microchip/xc32/v1.42/bin/bin/../../lib/gcc/pic32mx/4.8.3/../../../../pic32mx/lib\libpic32.a(remove.o)
 .debug_abbrev  0x00014791       0x28 c:/program files (x86)/microchip/xc32/v1.42/bin/bin/../../lib/gcc/pic32mx/4.8.3/../../../../pic32mx/lib\libpic32.a(close.o)
 .debug_abbrev  0x000147b9       0x28 c:/program files (x86)/microchip/xc32/v1.42/bin/bin/../../lib/gcc/pic32mx/4.8.3/../../../../pic32mx/lib\libpic32.a(open.o)
 .debug_abbrev  0x000147e1       0x28 c:/program files (x86)/microchip/xc32/v1.42/bin/bin/../../lib/gcc/pic32mx/4.8.3/../../../../pic32mx/lib\libpic32.a(_mon_putc.o)

.debug_line     0x00000000    0x2535e
 *(.debug_line)
 .debug_line    0x00000000       0x9c c:/program files (x86)/microchip/xc32/v1.42/bin/bin/../../lib/gcc/pic32mx/4.8.3/../../../../pic32mx/lib\software-debug-break.o
 .debug_line    0x0000009c      0x3ef build/pic32mz_ef_sk_meb2/debug/_ext/1360937237/app.o
 .debug_line    0x0000048b       0xc4 build/pic32mz_ef_sk_meb2/debug/_ext/1360937237/main.o
 .debug_line    0x0000054f      0x32f build/pic32mz_ef_sk_meb2/debug/_ext/1360937237/ov2640.o
 .debug_line    0x0000087e      0x345 build/pic32mz_ef_sk_meb2/debug/_ext/1360937237/i2c_master_noint.o
 .debug_line    0x00000bc3      0x1d9 build/pic32mz_ef_sk_meb2/debug/_ext/426253641/jidctint.o
 .debug_line    0x00000d9c      0x25b build/pic32mz_ef_sk_meb2/debug/_ext/1597685232/gfxu_image.o
 .debug_line    0x00000ff7      0x30c build/pic32mz_ef_sk_meb2/debug/_ext/1597685232/gfxu_image_png_external.o
 .debug_line    0x00001303      0x316 build/pic32mz_ef_sk_meb2/debug/_ext/1597685232/gfxu_image_png_internal.o
 .debug_line    0x00001619      0x68d build/pic32mz_ef_sk_meb2/debug/_ext/1597685232/gfxu_image_jpg_internal.o
 .debug_line    0x00001ca6     0x200b build/pic32mz_ef_sk_meb2/debug/_ext/493934858/lodepng.o
 .debug_line    0x00003cb1      0x365 build/pic32mz_ef_sk_meb2/debug/_ext/1597685232/gfxu_image_raw_external.o
 .debug_line    0x00004016      0x279 build/pic32mz_ef_sk_meb2/debug/_ext/1597685232/gfxu_image_raw_internal.o
 .debug_line    0x0000428f      0x3a6 build/pic32mz_ef_sk_meb2/debug/_ext/1597685232/gfxu_image_rle_external.o
 .debug_line    0x00004635      0x2ad build/pic32mz_ef_sk_meb2/debug/_ext/1597685232/gfxu_image_rle_internal.o
 .debug_line    0x000048e2      0x2b5 build/pic32mz_ef_sk_meb2/debug/_ext/1597685232/gfxu_image_utils.o
 .debug_line    0x00004b97      0x221 build/pic32mz_ef_sk_meb2/debug/_ext/1597685232/gfxu_palette.o
 .debug_line    0x00004db8      0x280 build/pic32mz_ef_sk_meb2/debug/_ext/1597685232/gfxu_string.o
 .debug_line    0x00005038      0x38d build/pic32mz_ef_sk_meb2/debug/_ext/1597685232/gfxu_string_external.o
 .debug_line    0x000053c5      0x242 build/pic32mz_ef_sk_meb2/debug/_ext/1597685232/gfxu_string_internal.o
 .debug_line    0x00005607      0x374 build/pic32mz_ef_sk_meb2/debug/_ext/1597685232/gfxu_string_query.o
 .debug_line    0x0000597b      0x473 build/pic32mz_ef_sk_meb2/debug/_ext/1597685232/gfxu_string_utils.o
 .debug_line    0x00005dee      0x36b build/pic32mz_ef_sk_meb2/debug/_ext/1907747181/libaria.o
 .debug_line    0x00006159      0x617 build/pic32mz_ef_sk_meb2/debug/_ext/1907747181/libaria_context.o
 .debug_line    0x00006770      0x407 build/pic32mz_ef_sk_meb2/debug/_ext/1907747181/libaria_context_paint.o
 .debug_line    0x00006b77      0x268 build/pic32mz_ef_sk_meb2/debug/_ext/1907747181/libaria_draw.o
 .debug_line    0x00006ddf      0x439 build/pic32mz_ef_sk_meb2/debug/_ext/1907747181/libaria_editwidget.o
 .debug_line    0x00007218      0x382 build/pic32mz_ef_sk_meb2/debug/_ext/1907747181/libaria_event.o
 .debug_line    0x0000759a      0x40c build/pic32mz_ef_sk_meb2/debug/_ext/1907747181/libaria_input.o
 .debug_line    0x000079a6      0x518 build/pic32mz_ef_sk_meb2/debug/_ext/1907747181/libaria_layer.o
 .debug_line    0x00007ebe      0x4b2 build/pic32mz_ef_sk_meb2/debug/_ext/1907747181/libaria_list.o
 .debug_line    0x00008370      0x1f2 build/pic32mz_ef_sk_meb2/debug/_ext/1907747181/libaria_scheme.o
 .debug_line    0x00008562      0x4ca build/pic32mz_ef_sk_meb2/debug/_ext/1907747181/libaria_screen.o
 .debug_line    0x00008a2c      0x701 build/pic32mz_ef_sk_meb2/debug/_ext/1907747181/libaria_string.o
 .debug_line    0x0000912d      0x5bd build/pic32mz_ef_sk_meb2/debug/_ext/1907747181/libaria_utils.o
 .debug_line    0x000096ea      0x939 build/pic32mz_ef_sk_meb2/debug/_ext/1907747181/libaria_widget.o
 .debug_line    0x0000a023      0x3d9 build/pic32mz_ef_sk_meb2/debug/_ext/1907747181/libaria_widget_skin_classic.o
 .debug_line    0x0000a3fc      0x61c build/pic32mz_ef_sk_meb2/debug/_ext/1907747181/libaria_widget_button.o
 .debug_line    0x0000aa18      0x4f4 build/pic32mz_ef_sk_meb2/debug/_ext/1907747181/libaria_widget_button_skin_classic.o
 .debug_line    0x0000af0c      0x590 build/pic32mz_ef_sk_meb2/debug/_ext/1907747181/libaria_widget_checkbox.o
 .debug_line    0x0000b49c      0x530 build/pic32mz_ef_sk_meb2/debug/_ext/1907747181/libaria_widget_checkbox_skin_classic.o
 .debug_line    0x0000b9cc      0x3d4 build/pic32mz_ef_sk_meb2/debug/_ext/1907747181/libaria_widget_circle.o
 .debug_line    0x0000bda0      0x42b build/pic32mz_ef_sk_meb2/debug/_ext/1907747181/libaria_widget_circle_skin_classic.o
 .debug_line    0x0000c1cb      0x3ad build/pic32mz_ef_sk_meb2/debug/_ext/1907747181/libaria_widget_drawsurface.o
 .debug_line    0x0000c578      0x438 build/pic32mz_ef_sk_meb2/debug/_ext/1907747181/libaria_widget_drawsurface_skin_classic.o
 .debug_line    0x0000c9b0      0x3a8 build/pic32mz_ef_sk_meb2/debug/_ext/1907747181/libaria_widget_gradient.o
 .debug_line    0x0000cd58      0x41d build/pic32mz_ef_sk_meb2/debug/_ext/1907747181/libaria_widget_gradient_skin_classic.o
 .debug_line    0x0000d175      0x3ce build/pic32mz_ef_sk_meb2/debug/_ext/1907747181/libaria_widget_groupbox.o
 .debug_line    0x0000d543      0x4b0 build/pic32mz_ef_sk_meb2/debug/_ext/1907747181/libaria_widget_groupbox_skin_classic.o
 .debug_line    0x0000d9f3      0x413 build/pic32mz_ef_sk_meb2/debug/_ext/1907747181/libaria_widget_image.o
 .debug_line    0x0000de06      0x48e build/pic32mz_ef_sk_meb2/debug/_ext/1907747181/libaria_widget_image_skin_classic.o
 .debug_line    0x0000e294      0x5d7 build/pic32mz_ef_sk_meb2/debug/_ext/1907747181/libaria_widget_imagesequence.o
 .debug_line    0x0000e86b      0x499 build/pic32mz_ef_sk_meb2/debug/_ext/1907747181/libaria_widget_imagesequence_skin_classic.o
 .debug_line    0x0000ed04      0x62c build/pic32mz_ef_sk_meb2/debug/_ext/1907747181/libaria_widget_keypad.o
 .debug_line    0x0000f330      0x414 build/pic32mz_ef_sk_meb2/debug/_ext/1907747181/libaria_widget_keypad_skin_classic.o
 .debug_line    0x0000f744      0x3f2 build/pic32mz_ef_sk_meb2/debug/_ext/1907747181/libaria_widget_label.o
 .debug_line    0x0000fb36      0x45b build/pic32mz_ef_sk_meb2/debug/_ext/1907747181/libaria_widget_label_skin_classic.o
 .debug_line    0x0000ff91      0x3cf build/pic32mz_ef_sk_meb2/debug/_ext/1907747181/libaria_widget_line.o
 .debug_line    0x00010360      0x42a build/pic32mz_ef_sk_meb2/debug/_ext/1907747181/libaria_widget_line_skin_classic.o
 .debug_line    0x0001078a      0x82d build/pic32mz_ef_sk_meb2/debug/_ext/1907747181/libaria_widget_list.o
 .debug_line    0x00010fb7      0x543 build/pic32mz_ef_sk_meb2/debug/_ext/1907747181/libaria_widget_list_skin_classic.o
 .debug_line    0x000114fa      0x608 build/pic32mz_ef_sk_meb2/debug/_ext/1907747181/libaria_widget_listwheel.o
 .debug_line    0x00011b02      0x541 build/pic32mz_ef_sk_meb2/debug/_ext/1907747181/libaria_widget_listwheel_skin_classic.o
 .debug_line    0x00012043      0x405 build/pic32mz_ef_sk_meb2/debug/_ext/1907747181/libaria_widget_progressbar.o
 .debug_line    0x00012448      0x46a build/pic32mz_ef_sk_meb2/debug/_ext/1907747181/libaria_widget_progressbar_skin_classic.o
 .debug_line    0x000128b2      0x5fc build/pic32mz_ef_sk_meb2/debug/_ext/1907747181/libaria_widget_radiobutton.o
 .debug_line    0x00012eae      0x594 build/pic32mz_ef_sk_meb2/debug/_ext/1907747181/libaria_widget_radiobutton_skin_classic.o
 .debug_line    0x00013442      0x40a build/pic32mz_ef_sk_meb2/debug/_ext/1907747181/libaria_radiobutton_group.o
 .debug_line    0x0001384c      0x3aa build/pic32mz_ef_sk_meb2/debug/_ext/1907747181/libaria_widget_rectangle.o
 .debug_line    0x00013bf6      0x44b build/pic32mz_ef_sk_meb2/debug/_ext/1907747181/libaria_widget_rectangle_skin_classic.o
 .debug_line    0x00014041      0x677 build/pic32mz_ef_sk_meb2/debug/_ext/1907747181/libaria_widget_scrollbar.o
 .debug_line    0x000146b8      0x49e build/pic32mz_ef_sk_meb2/debug/_ext/1907747181/libaria_widget_scrollbar_skin_classic.o
 .debug_line    0x00014b56      0x5dd build/pic32mz_ef_sk_meb2/debug/_ext/1907747181/libaria_widget_slider.o
 .debug_line    0x00015133      0x42c build/pic32mz_ef_sk_meb2/debug/_ext/1907747181/libaria_widget_slider_skin_classic.o
 .debug_line    0x0001555f      0x5ad build/pic32mz_ef_sk_meb2/debug/_ext/1907747181/libaria_widget_textfield.o
 .debug_line    0x00015b0c      0x496 build/pic32mz_ef_sk_meb2/debug/_ext/1907747181/libaria_widget_textfield_skin_classic.o
 .debug_line    0x00015fa2      0x440 build/pic32mz_ef_sk_meb2/debug/_ext/1907747181/libaria_widget_touchtest.o
 .debug_line    0x000163e2      0x460 build/pic32mz_ef_sk_meb2/debug/_ext/1907747181/libaria_widget_touchtest_skin_classic.o
 .debug_line    0x00016842      0x424 build/pic32mz_ef_sk_meb2/debug/_ext/1907747181/libaria_widget_window.o
 .debug_line    0x00016c66      0x522 build/pic32mz_ef_sk_meb2/debug/_ext/1907747181/libaria_widget_window_skin_classic.o
 .debug_line    0x00017188      0x459 build/pic32mz_ef_sk_meb2/debug/_ext/1847583374/gfx.o
 .debug_line    0x000175e1      0x1bb build/pic32mz_ef_sk_meb2/debug/_ext/1847583374/gfx_color.o
 .debug_line    0x0001779c      0x245 build/pic32mz_ef_sk_meb2/debug/_ext/1847583374/gfx_context.o
 .debug_line    0x000179e1      0x993 build/pic32mz_ef_sk_meb2/debug/_ext/1847583374/gfx_default_impl.o
 .debug_line    0x00018374      0x181 build/pic32mz_ef_sk_meb2/debug/_ext/1847583374/gfx_display.o
 .debug_line    0x000184f5      0x26f build/pic32mz_ef_sk_meb2/debug/_ext/1847583374/gfx_driver_interface.o
 .debug_line    0x00018764      0x596 build/pic32mz_ef_sk_meb2/debug/_ext/1847583374/gfx_get.o
 .debug_line    0x00018cfa      0x1ae build/pic32mz_ef_sk_meb2/debug/_ext/1847583374/gfx_interface.o
 .debug_line    0x00018ea8      0x27d build/pic32mz_ef_sk_meb2/debug/_ext/1847583374/gfx_layer.o
 .debug_line    0x00019125      0x452 build/pic32mz_ef_sk_meb2/debug/_ext/1847583374/gfx_pixel_buffer.o
 .debug_line    0x00019577      0x1bf build/pic32mz_ef_sk_meb2/debug/_ext/1847583374/gfx_rect.o
 .debug_line    0x00019736      0x23a build/pic32mz_ef_sk_meb2/debug/_ext/1847583374/gfx_util.o
 .debug_line    0x00019970      0x50a build/pic32mz_ef_sk_meb2/debug/_ext/1847583374/gfx_set.o
 .debug_line    0x00019e7a      0x2ae build/pic32mz_ef_sk_meb2/debug/_ext/1847583374/gfx_color_blend.o
 .debug_line    0x0001a128      0x6fb build/pic32mz_ef_sk_meb2/debug/_ext/1847583374/gfx_color_convert.o
 .debug_line    0x0001a823      0x269 build/pic32mz_ef_sk_meb2/debug/_ext/1847583374/gfx_color_lerp.o
 .debug_line    0x0001aa8c      0x178 build/pic32mz_ef_sk_meb2/debug/_ext/1847583374/gfx_color_value.o
 .debug_line    0x0001ac04      0x281 build/pic32mz_ef_sk_meb2/debug/_ext/1847583374/gfx_draw_blit.o
 .debug_line    0x0001ae85      0x246 build/pic32mz_ef_sk_meb2/debug/_ext/1847583374/gfx_draw_circle.o
 .debug_line    0x0001b0cb      0x2ed build/pic32mz_ef_sk_meb2/debug/_ext/1847583374/gfx_draw_line.o
 .debug_line    0x0001b3b8      0x26f build/pic32mz_ef_sk_meb2/debug/_ext/1847583374/gfx_draw_pixel.o
 .debug_line    0x0001b627      0x33c build/pic32mz_ef_sk_meb2/debug/_ext/1847583374/gfx_draw_rect.o
 .debug_line    0x0001b963      0x1ff build/pic32mz_ef_sk_meb2/debug/_ext/1847583374/gfx_math.o
 .debug_line    0x0001bb62      0xd89 build/pic32mz_ef_sk_meb2/debug/_ext/853959373/sys_dma.o
 .debug_line    0x0001c8eb      0x35c build/pic32mz_ef_sk_meb2/debug/_ext/1042686532/sys_int_pic32.o
 .debug_line    0x0001cc47      0xe30 build/pic32mz_ef_sk_meb2/debug/_ext/1219754583/drv_i2c_static_buffer_model.o
 .debug_line    0x0001da77      0x3c5 build/pic32mz_ef_sk_meb2/debug/_ext/1219754583/drv_i2c_mapping.o
 .debug_line    0x0001de3c      0x7b2 build/pic32mz_ef_sk_meb2/debug/_ext/199634090/drv_tmr_static.o
 .debug_line    0x0001e5ee      0x546 build/pic32mz_ef_sk_meb2/debug/_ext/199634090/drv_tmr_mapping.o
 .debug_line    0x0001eb34      0xa85 build/pic32mz_ef_sk_meb2/debug/_ext/713288229/drv_gfx_lcc_generic.o
 .debug_line    0x0001f5b9      0x45e build/pic32mz_ef_sk_meb2/debug/_ext/1740298103/libaria_harmony.o
 .debug_line    0x0001fa17      0x516 build/pic32mz_ef_sk_meb2/debug/_ext/1740298103/libaria_init.o
 .debug_line    0x0001ff2d      0x128 build/pic32mz_ef_sk_meb2/debug/_ext/1740298103/libaria_events.o
 .debug_line    0x00020055      0x128 build/pic32mz_ef_sk_meb2/debug/_ext/1740298103/libaria_macros.o
 .debug_line    0x0002017d      0x1b7 build/pic32mz_ef_sk_meb2/debug/_ext/477038478/gfx_display_def.o
 .debug_line    0x00020334      0x287 build/pic32mz_ef_sk_meb2/debug/_ext/477038478/gfx_driver_def.o
 .debug_line    0x000205bb      0x714 build/pic32mz_ef_sk_meb2/debug/_ext/1847413222/sys_clk.o
 .debug_line    0x00020ccf      0x91e build/pic32mz_ef_sk_meb2/debug/_ext/1847413222/sys_clk_pic32mz.o
 .debug_line    0x000215ed      0x679 build/pic32mz_ef_sk_meb2/debug/_ext/924081491/sys_devcon.o
 .debug_line    0x00021c66      0x5b0 build/pic32mz_ef_sk_meb2/debug/_ext/924081491/sys_devcon_pic32mz.o
 .debug_line    0x00022216      0x9b9 build/pic32mz_ef_sk_meb2/debug/_ext/50030870/sys_ports_static.o
 .debug_line    0x00022bcf      0x364 build/pic32mz_ef_sk_meb2/debug/_ext/1465531745/bsp.o
 .debug_line    0x00022f33      0x7d4 build/pic32mz_ef_sk_meb2/debug/_ext/1951523377/system_init.o
 .debug_line    0x00023707      0x533 build/pic32mz_ef_sk_meb2/debug/_ext/1951523377/system_interrupt.o
 .debug_line    0x00023c3a      0x1fc build/pic32mz_ef_sk_meb2/debug/_ext/1951523377/system_exceptions.o
 .debug_line    0x00023e36      0x30d build/pic32mz_ef_sk_meb2/debug/_ext/1951523377/system_tasks.o
 .debug_line    0x00024143      0x235 build/pic32mz_ef_sk_meb2/debug/_ext/715821942/gfx_assets.o
 .debug_line    0x00024378       0x9c c:/program files (x86)/microchip/xc32/v1.42/bin/bin/../../lib/gcc/pic32mx/4.8.3\libgcc.a(floatunsisf.o)
 .debug_line    0x00024414       0xa9 c:/program files (x86)/microchip/xc32/v1.42/bin/bin/../../lib/gcc/pic32mx/4.8.3/../../../../pic32mx/lib\libpic32.a(default-bootstrap-exception-handler.o)
 .debug_line    0x000244bd       0x96 c:/program files (x86)/microchip/xc32/v1.42/bin/bin/../../lib/gcc/pic32mx/4.8.3/../../../../pic32mx/lib\libpic32.a(default-on-reset.o)
 .debug_line    0x00024553       0x9a c:/program files (x86)/microchip/xc32/v1.42/bin/bin/../../lib/gcc/pic32mx/4.8.3/../../../../pic32mx/lib\libpic32.a(default-on-bootstrap.o)
 .debug_line    0x000245ed       0xa8 c:/program files (x86)/microchip/xc32/v1.42/bin/bin/../../lib/gcc/pic32mx/4.8.3/../../../../pic32mx/lib\libpic32.a(defaultinterrupt.o)
 .debug_line    0x00024695       0xa9 c:/program files (x86)/microchip/xc32/v1.42/bin/bin/../../lib/gcc/pic32mx/4.8.3/../../../../pic32mx/lib\libpic32.a(default-cache-err-exception-handler.o)
 .debug_line    0x0002473e       0xb1 c:/program files (x86)/microchip/xc32/v1.42/bin/bin/../../lib/gcc/pic32mx/4.8.3/../../../../pic32mx/lib\libpic32.a(default-simple-tlb-refill-exception-handler.o)
 .debug_line    0x000247ef       0x82 c:/program files (x86)/microchip/xc32/v1.42/bin/bin/../../lib/gcc/pic32mx/4.8.3/../../../../pic32mx/lib\libc.a(fclose.o)
 .debug_line    0x00024871       0x82 c:/program files (x86)/microchip/xc32/v1.42/bin/bin/../../lib/gcc/pic32mx/4.8.3/../../../../pic32mx/lib\libc.a(fflush.o)
 .debug_line    0x000248f3       0x81 c:/program files (x86)/microchip/xc32/v1.42/bin/bin/../../lib/gcc/pic32mx/4.8.3/../../../../pic32mx/lib\libc.a(fopen.o)
 .debug_line    0x00024974       0x81 c:/program files (x86)/microchip/xc32/v1.42/bin/bin/../../lib/gcc/pic32mx/4.8.3/../../../../pic32mx/lib\libc.a(fread.o)
 .debug_line    0x000249f5       0x83 c:/program files (x86)/microchip/xc32/v1.42/bin/bin/../../lib/gcc/pic32mx/4.8.3/../../../../pic32mx/lib\libc.a(freopen.o)
 .debug_line    0x00024a78       0x81 c:/program files (x86)/microchip/xc32/v1.42/bin/bin/../../lib/gcc/pic32mx/4.8.3/../../../../pic32mx/lib\libc.a(fseek.o)
 .debug_line    0x00024af9       0x82 c:/program files (x86)/microchip/xc32/v1.42/bin/bin/../../lib/gcc/pic32mx/4.8.3/../../../../pic32mx/lib\libc.a(fwrite.o)
 .debug_line    0x00024b7b       0x7f c:/program files (x86)/microchip/xc32/v1.42/bin/bin/../../lib/gcc/pic32mx/4.8.3/../../../../pic32mx/lib\libc.a(buf.o)
 .debug_line    0x00024bfa       0x82 c:/program files (x86)/microchip/xc32/v1.42/bin/bin/../../lib/gcc/pic32mx/4.8.3/../../../../pic32mx/lib\libc.a(calloc.o)
 .debug_line    0x00024c7c        0x0 c:/program files (x86)/microchip/xc32/v1.42/bin/bin/../../lib/gcc/pic32mx/4.8.3/../../../../pic32mx/lib\libc.a(errno.o)
 .debug_line    0x00024c7c       0x82 c:/program files (x86)/microchip/xc32/v1.42/bin/bin/../../lib/gcc/pic32mx/4.8.3/../../../../pic32mx/lib\libc.a(malloc.o)
 .debug_line    0x00024cfe        0x0 c:/program files (x86)/microchip/xc32/v1.42/bin/bin/../../lib/gcc/pic32mx/4.8.3/../../../../pic32mx/lib\libc.a(tfiles.o)
 .debug_line    0x00024cfe        0x0 c:/program files (x86)/microchip/xc32/v1.42/bin/bin/../../lib/gcc/pic32mx/4.8.3/../../../../pic32mx/lib\libc.a(_iob.o)
 .debug_line    0x00024cfe       0x81 c:/program files (x86)/microchip/xc32/v1.42/bin/bin/../../lib/gcc/pic32mx/4.8.3/../../../../pic32mx/lib\libc.a(fgetc.o)
 .debug_line    0x00024d7f       0x81 c:/program files (x86)/microchip/xc32/v1.42/bin/bin/../../lib/gcc/pic32mx/4.8.3/../../../../pic32mx/lib\libc.a(_fputc_simple.o)
 .debug_line    0x00024e00       0x82 c:/program files (x86)/microchip/xc32/v1.42/bin/bin/../../lib/gcc/pic32mx/4.8.3/../../../../pic32mx/lib\libc.a(filbuf.o)
 .debug_line    0x00024e82       0x82 c:/program files (x86)/microchip/xc32/v1.42/bin/bin/../../lib/gcc/pic32mx/4.8.3/../../../../pic32mx/lib\libc.a(_flsbuf_simple.o)
 .debug_line    0x00024f04       0x8a c:/program files (x86)/microchip/xc32/v1.42/bin/bin/../../lib/gcc/pic32mx/4.8.3/../../../../pic32mx/lib\libpic32.a(sbrk.o)
 .debug_line    0x00024f8e       0x8a c:/program files (x86)/microchip/xc32/v1.42/bin/bin/../../lib/gcc/pic32mx/4.8.3/../../../../pic32mx/lib\libpic32.a(read.o)
 .debug_line    0x00025018       0x8b c:/program files (x86)/microchip/xc32/v1.42/bin/bin/../../lib/gcc/pic32mx/4.8.3/../../../../pic32mx/lib\libpic32.a(write.o)
 .debug_line    0x000250a3       0x8b c:/program files (x86)/microchip/xc32/v1.42/bin/bin/../../lib/gcc/pic32mx/4.8.3/../../../../pic32mx/lib\libpic32.a(lseek.o)
 .debug_line    0x0002512e       0x8c c:/program files (x86)/microchip/xc32/v1.42/bin/bin/../../lib/gcc/pic32mx/4.8.3/../../../../pic32mx/lib\libpic32.a(remove.o)
 .debug_line    0x000251ba       0x8b c:/program files (x86)/microchip/xc32/v1.42/bin/bin/../../lib/gcc/pic32mx/4.8.3/../../../../pic32mx/lib\libpic32.a(close.o)
 .debug_line    0x00025245       0x8a c:/program files (x86)/microchip/xc32/v1.42/bin/bin/../../lib/gcc/pic32mx/4.8.3/../../../../pic32mx/lib\libpic32.a(open.o)
 .debug_line    0x000252cf        0x0 c:/program files (x86)/microchip/xc32/v1.42/bin/bin/../../lib/gcc/pic32mx/4.8.3/../../../../pic32mx/lib\libpic32.a(xc32_uart.o)
 .debug_line    0x000252cf       0x8f c:/program files (x86)/microchip/xc32/v1.42/bin/bin/../../lib/gcc/pic32mx/4.8.3/../../../../pic32mx/lib\libpic32.a(_mon_putc.o)

.debug_frame    0x00000000     0x9ad4
 *(.debug_frame)
 .debug_frame   0x00000000       0x20 c:/program files (x86)/microchip/xc32/v1.42/bin/bin/../../lib/gcc/pic32mx/4.8.3/../../../../pic32mx/lib\software-debug-break.o
 .debug_frame   0x00000020       0x60 build/pic32mz_ef_sk_meb2/debug/_ext/1360937237/app.o
 .debug_frame   0x00000080       0x28 build/pic32mz_ef_sk_meb2/debug/_ext/1360937237/main.o
 .debug_frame   0x000000a8       0x70 build/pic32mz_ef_sk_meb2/debug/_ext/1360937237/ov2640.o
 .debug_frame   0x00000118       0x80 build/pic32mz_ef_sk_meb2/debug/_ext/1360937237/i2c_master_noint.o
 .debug_frame   0x00000198       0x2c build/pic32mz_ef_sk_meb2/debug/_ext/426253641/jidctint.o
 .debug_frame   0x000001c4       0x28 build/pic32mz_ef_sk_meb2/debug/_ext/1597685232/gfxu_image.o
 .debug_frame   0x000001ec       0x64 build/pic32mz_ef_sk_meb2/debug/_ext/1597685232/gfxu_image_png_external.o
 .debug_frame   0x00000250       0x34 build/pic32mz_ef_sk_meb2/debug/_ext/1597685232/gfxu_image_png_internal.o
 .debug_frame   0x00000284      0x138 build/pic32mz_ef_sk_meb2/debug/_ext/1597685232/gfxu_image_jpg_internal.o
 .debug_frame   0x000003bc      0xdec build/pic32mz_ef_sk_meb2/debug/_ext/493934858/lodepng.o
 .debug_frame   0x000011a8       0x74 build/pic32mz_ef_sk_meb2/debug/_ext/1597685232/gfxu_image_raw_external.o
 .debug_frame   0x0000121c       0x30 build/pic32mz_ef_sk_meb2/debug/_ext/1597685232/gfxu_image_raw_internal.o
 .debug_frame   0x0000124c       0x90 build/pic32mz_ef_sk_meb2/debug/_ext/1597685232/gfxu_image_rle_external.o
 .debug_frame   0x000012dc       0x3c build/pic32mz_ef_sk_meb2/debug/_ext/1597685232/gfxu_image_rle_internal.o
 .debug_frame   0x00001318      0x10c build/pic32mz_ef_sk_meb2/debug/_ext/1597685232/gfxu_image_utils.o
 .debug_frame   0x00001424       0x20 build/pic32mz_ef_sk_meb2/debug/_ext/1597685232/gfxu_palette.o
 .debug_frame   0x00001444       0x58 build/pic32mz_ef_sk_meb2/debug/_ext/1597685232/gfxu_string.o
 .debug_frame   0x0000149c       0x94 build/pic32mz_ef_sk_meb2/debug/_ext/1597685232/gfxu_string_external.o
 .debug_frame   0x00001530       0x64 build/pic32mz_ef_sk_meb2/debug/_ext/1597685232/gfxu_string_internal.o
 .debug_frame   0x00001594      0x188 build/pic32mz_ef_sk_meb2/debug/_ext/1597685232/gfxu_string_query.o
 .debug_frame   0x0000171c      0x1a8 build/pic32mz_ef_sk_meb2/debug/_ext/1597685232/gfxu_string_utils.o
 .debug_frame   0x000018c4       0x58 build/pic32mz_ef_sk_meb2/debug/_ext/1907747181/libaria.o
 .debug_frame   0x0000191c      0x260 build/pic32mz_ef_sk_meb2/debug/_ext/1907747181/libaria_context.o
 .debug_frame   0x00001b7c       0x48 build/pic32mz_ef_sk_meb2/debug/_ext/1907747181/libaria_context_paint.o
 .debug_frame   0x00001bc4       0x8c build/pic32mz_ef_sk_meb2/debug/_ext/1907747181/libaria_draw.o
 .debug_frame   0x00001c50      0x15c build/pic32mz_ef_sk_meb2/debug/_ext/1907747181/libaria_editwidget.o
 .debug_frame   0x00001dac       0x90 build/pic32mz_ef_sk_meb2/debug/_ext/1907747181/libaria_event.o
 .debug_frame   0x00001e3c      0x104 build/pic32mz_ef_sk_meb2/debug/_ext/1907747181/libaria_input.o
 .debug_frame   0x00001f40      0x17c build/pic32mz_ef_sk_meb2/debug/_ext/1907747181/libaria_layer.o
 .debug_frame   0x000020bc      0x150 build/pic32mz_ef_sk_meb2/debug/_ext/1907747181/libaria_list.o
 .debug_frame   0x0000220c       0x34 build/pic32mz_ef_sk_meb2/debug/_ext/1907747181/libaria_scheme.o
 .debug_frame   0x00002240      0x134 build/pic32mz_ef_sk_meb2/debug/_ext/1907747181/libaria_screen.o
 .debug_frame   0x00002374      0x328 build/pic32mz_ef_sk_meb2/debug/_ext/1907747181/libaria_string.o
 .debug_frame   0x0000269c      0x1c8 build/pic32mz_ef_sk_meb2/debug/_ext/1907747181/libaria_utils.o
 .debug_frame   0x00002864      0x614 build/pic32mz_ef_sk_meb2/debug/_ext/1907747181/libaria_widget.o
 .debug_frame   0x00002e78       0x58 build/pic32mz_ef_sk_meb2/debug/_ext/1907747181/libaria_widget_skin_classic.o
 .debug_frame   0x00002ed0      0x298 build/pic32mz_ef_sk_meb2/debug/_ext/1907747181/libaria_widget_button.o
 .debug_frame   0x00003168       0xc8 build/pic32mz_ef_sk_meb2/debug/_ext/1907747181/libaria_widget_button_skin_classic.o
 .debug_frame   0x00003230      0x240 build/pic32mz_ef_sk_meb2/debug/_ext/1907747181/libaria_widget_checkbox.o
 .debug_frame   0x00003470       0xe4 build/pic32mz_ef_sk_meb2/debug/_ext/1907747181/libaria_widget_checkbox_skin_classic.o
 .debug_frame   0x00003554       0xb4 build/pic32mz_ef_sk_meb2/debug/_ext/1907747181/libaria_widget_circle.o
 .debug_frame   0x00003608       0x70 build/pic32mz_ef_sk_meb2/debug/_ext/1907747181/libaria_widget_circle_skin_classic.o
 .debug_frame   0x00003678       0x88 build/pic32mz_ef_sk_meb2/debug/_ext/1907747181/libaria_widget_drawsurface.o
 .debug_frame   0x00003700       0x70 build/pic32mz_ef_sk_meb2/debug/_ext/1907747181/libaria_widget_drawsurface_skin_classic.o
 .debug_frame   0x00003770       0x8c build/pic32mz_ef_sk_meb2/debug/_ext/1907747181/libaria_widget_gradient.o
 .debug_frame   0x000037fc       0x5c build/pic32mz_ef_sk_meb2/debug/_ext/1907747181/libaria_widget_gradient_skin_classic.o
 .debug_frame   0x00003858       0xc0 build/pic32mz_ef_sk_meb2/debug/_ext/1907747181/libaria_widget_groupbox.o
 .debug_frame   0x00003918       0xb0 build/pic32mz_ef_sk_meb2/debug/_ext/1907747181/libaria_widget_groupbox_skin_classic.o
 .debug_frame   0x000039c8       0xdc build/pic32mz_ef_sk_meb2/debug/_ext/1907747181/libaria_widget_image.o
 .debug_frame   0x00003aa4       0x98 build/pic32mz_ef_sk_meb2/debug/_ext/1907747181/libaria_widget_image_skin_classic.o
 .debug_frame   0x00003b3c      0x228 build/pic32mz_ef_sk_meb2/debug/_ext/1907747181/libaria_widget_imagesequence.o
 .debug_frame   0x00003d64       0x94 build/pic32mz_ef_sk_meb2/debug/_ext/1907747181/libaria_widget_imagesequence_skin_classic.o
 .debug_frame   0x00003df8      0x328 build/pic32mz_ef_sk_meb2/debug/_ext/1907747181/libaria_widget_keypad.o
 .debug_frame   0x00004120       0x5c build/pic32mz_ef_sk_meb2/debug/_ext/1907747181/libaria_widget_keypad_skin_classic.o
 .debug_frame   0x0000417c       0xe8 build/pic32mz_ef_sk_meb2/debug/_ext/1907747181/libaria_widget_label.o
 .debug_frame   0x00004264       0x8c build/pic32mz_ef_sk_meb2/debug/_ext/1907747181/libaria_widget_label_skin_classic.o
 .debug_frame   0x000042f0       0xa8 build/pic32mz_ef_sk_meb2/debug/_ext/1907747181/libaria_widget_line.o
 .debug_frame   0x00004398       0x70 build/pic32mz_ef_sk_meb2/debug/_ext/1907747181/libaria_widget_line_skin_classic.o
 .debug_frame   0x00004408      0x4a0 build/pic32mz_ef_sk_meb2/debug/_ext/1907747181/libaria_widget_list.o
 .debug_frame   0x000048a8       0xdc build/pic32mz_ef_sk_meb2/debug/_ext/1907747181/libaria_widget_list_skin_classic.o
 .debug_frame   0x00004984      0x2a4 build/pic32mz_ef_sk_meb2/debug/_ext/1907747181/libaria_widget_listwheel.o
 .debug_frame   0x00004c28       0xe0 build/pic32mz_ef_sk_meb2/debug/_ext/1907747181/libaria_widget_listwheel_skin_classic.o
 .debug_frame   0x00004d08       0xd4 build/pic32mz_ef_sk_meb2/debug/_ext/1907747181/libaria_widget_progressbar.o
 .debug_frame   0x00004ddc       0x78 build/pic32mz_ef_sk_meb2/debug/_ext/1907747181/libaria_widget_progressbar_skin_classic.o
 .debug_frame   0x00004e54      0x294 build/pic32mz_ef_sk_meb2/debug/_ext/1907747181/libaria_widget_radiobutton.o
 .debug_frame   0x000050e8       0xec build/pic32mz_ef_sk_meb2/debug/_ext/1907747181/libaria_widget_radiobutton_skin_classic.o
 .debug_frame   0x000051d4       0x98 build/pic32mz_ef_sk_meb2/debug/_ext/1907747181/libaria_radiobutton_group.o
 .debug_frame   0x0000526c       0x8c build/pic32mz_ef_sk_meb2/debug/_ext/1907747181/libaria_widget_rectangle.o
 .debug_frame   0x000052f8       0x70 build/pic32mz_ef_sk_meb2/debug/_ext/1907747181/libaria_widget_rectangle_skin_classic.o
 .debug_frame   0x00005368      0x2b0 build/pic32mz_ef_sk_meb2/debug/_ext/1907747181/libaria_widget_scrollbar.o
 .debug_frame   0x00005618       0x98 build/pic32mz_ef_sk_meb2/debug/_ext/1907747181/libaria_widget_scrollbar_skin_classic.o
 .debug_frame   0x000056b0      0x258 build/pic32mz_ef_sk_meb2/debug/_ext/1907747181/libaria_widget_slider.o
 .debug_frame   0x00005908       0x70 build/pic32mz_ef_sk_meb2/debug/_ext/1907747181/libaria_widget_slider_skin_classic.o
 .debug_frame   0x00005978      0x290 build/pic32mz_ef_sk_meb2/debug/_ext/1907747181/libaria_widget_textfield.o
 .debug_frame   0x00005c08       0xa8 build/pic32mz_ef_sk_meb2/debug/_ext/1907747181/libaria_widget_textfield_skin_classic.o
 .debug_frame   0x00005cb0       0xfc build/pic32mz_ef_sk_meb2/debug/_ext/1907747181/libaria_widget_touchtest.o
 .debug_frame   0x00005dac       0x80 build/pic32mz_ef_sk_meb2/debug/_ext/1907747181/libaria_widget_touchtest_skin_classic.o
 .debug_frame   0x00005e2c       0xf4 build/pic32mz_ef_sk_meb2/debug/_ext/1907747181/libaria_widget_window.o
 .debug_frame   0x00005f20       0xe0 build/pic32mz_ef_sk_meb2/debug/_ext/1907747181/libaria_widget_window_skin_classic.o
 .debug_frame   0x00006000      0x1c4 build/pic32mz_ef_sk_meb2/debug/_ext/1847583374/gfx.o
 .debug_frame   0x000061c4       0x60 build/pic32mz_ef_sk_meb2/debug/_ext/1847583374/gfx_color.o
 .debug_frame   0x00006224       0x40 build/pic32mz_ef_sk_meb2/debug/_ext/1847583374/gfx_context.o
 .debug_frame   0x00006264      0x814 build/pic32mz_ef_sk_meb2/debug/_ext/1847583374/gfx_default_impl.o
 .debug_frame   0x00006a78       0x20 build/pic32mz_ef_sk_meb2/debug/_ext/1847583374/gfx_display.o
 .debug_frame   0x00006a98       0x48 build/pic32mz_ef_sk_meb2/debug/_ext/1847583374/gfx_driver_interface.o
 .debug_frame   0x00006ae0      0x3dc build/pic32mz_ef_sk_meb2/debug/_ext/1847583374/gfx_get.o
 .debug_frame   0x00006ebc       0x68 build/pic32mz_ef_sk_meb2/debug/_ext/1847583374/gfx_layer.o
 .debug_frame   0x00006f24      0x250 build/pic32mz_ef_sk_meb2/debug/_ext/1847583374/gfx_pixel_buffer.o
 .debug_frame   0x00007174       0x50 build/pic32mz_ef_sk_meb2/debug/_ext/1847583374/gfx_rect.o
 .debug_frame   0x000071c4       0xa8 build/pic32mz_ef_sk_meb2/debug/_ext/1847583374/gfx_util.o
 .debug_frame   0x0000726c      0x368 build/pic32mz_ef_sk_meb2/debug/_ext/1847583374/gfx_set.o
 .debug_frame   0x000075d4       0xe0 build/pic32mz_ef_sk_meb2/debug/_ext/1847583374/gfx_color_blend.o
 .debug_frame   0x000076b4      0x464 build/pic32mz_ef_sk_meb2/debug/_ext/1847583374/gfx_color_convert.o
 .debug_frame   0x00007b18      0x10c build/pic32mz_ef_sk_meb2/debug/_ext/1847583374/gfx_color_lerp.o
 .debug_frame   0x00007c24       0x2c build/pic32mz_ef_sk_meb2/debug/_ext/1847583374/gfx_color_value.o
 .debug_frame   0x00007c50       0x3c build/pic32mz_ef_sk_meb2/debug/_ext/1847583374/gfx_draw_blit.o
 .debug_frame   0x00007c8c       0x34 build/pic32mz_ef_sk_meb2/debug/_ext/1847583374/gfx_draw_circle.o
 .debug_frame   0x00007cc0       0xd0 build/pic32mz_ef_sk_meb2/debug/_ext/1847583374/gfx_draw_line.o
 .debug_frame   0x00007d90       0x4c build/pic32mz_ef_sk_meb2/debug/_ext/1847583374/gfx_draw_pixel.o
 .debug_frame   0x00007ddc       0xe0 build/pic32mz_ef_sk_meb2/debug/_ext/1847583374/gfx_draw_rect.o
 .debug_frame   0x00007ebc      0x108 build/pic32mz_ef_sk_meb2/debug/_ext/1847583374/gfx_math.o
 .debug_frame   0x00007fc4      0x1e4 build/pic32mz_ef_sk_meb2/debug/_ext/853959373/sys_dma.o
 .debug_frame   0x000081a8       0x90 build/pic32mz_ef_sk_meb2/debug/_ext/1042686532/sys_int_pic32.o
 .debug_frame   0x00008238      0x16c build/pic32mz_ef_sk_meb2/debug/_ext/1219754583/drv_i2c_static_buffer_model.o
 .debug_frame   0x000083a4      0x118 build/pic32mz_ef_sk_meb2/debug/_ext/1219754583/drv_i2c_mapping.o
 .debug_frame   0x000084bc      0x1b8 build/pic32mz_ef_sk_meb2/debug/_ext/199634090/drv_tmr_static.o
 .debug_frame   0x00008674      0x2dc build/pic32mz_ef_sk_meb2/debug/_ext/199634090/drv_tmr_mapping.o
 .debug_frame   0x00008950      0x138 build/pic32mz_ef_sk_meb2/debug/_ext/713288229/drv_gfx_lcc_generic.o
 .debug_frame   0x00008a88       0x40 build/pic32mz_ef_sk_meb2/debug/_ext/1740298103/libaria_harmony.o
 .debug_frame   0x00008ac8       0x44 build/pic32mz_ef_sk_meb2/debug/_ext/1740298103/libaria_init.o
 .debug_frame   0x00008b0c       0x20 build/pic32mz_ef_sk_meb2/debug/_ext/477038478/gfx_driver_def.o
 .debug_frame   0x00008b2c      0x148 build/pic32mz_ef_sk_meb2/debug/_ext/1847413222/sys_clk.o
 .debug_frame   0x00008c74      0x140 build/pic32mz_ef_sk_meb2/debug/_ext/1847413222/sys_clk_pic32mz.o
 .debug_frame   0x00008db4       0xe8 build/pic32mz_ef_sk_meb2/debug/_ext/924081491/sys_devcon.o
 .debug_frame   0x00008e9c      0x220 build/pic32mz_ef_sk_meb2/debug/_ext/924081491/sys_devcon_pic32mz.o
 .debug_frame   0x000090bc      0x1f8 build/pic32mz_ef_sk_meb2/debug/_ext/50030870/sys_ports_static.o
 .debug_frame   0x000092b4       0xb8 build/pic32mz_ef_sk_meb2/debug/_ext/1465531745/bsp.o
 .debug_frame   0x0000936c       0x28 build/pic32mz_ef_sk_meb2/debug/_ext/1951523377/system_init.o
 .debug_frame   0x00009394      0x17c build/pic32mz_ef_sk_meb2/debug/_ext/1951523377/system_interrupt.o
 .debug_frame   0x00009510       0x28 build/pic32mz_ef_sk_meb2/debug/_ext/1951523377/system_exceptions.o
 .debug_frame   0x00009538       0x28 build/pic32mz_ef_sk_meb2/debug/_ext/1951523377/system_tasks.o
 .debug_frame   0x00009560       0x28 c:/program files (x86)/microchip/xc32/v1.42/bin/bin/../../lib/gcc/pic32mx/4.8.3\libgcc.a(floatunsisf.o)
 .debug_frame   0x00009588       0x2c c:/program files (x86)/microchip/xc32/v1.42/bin/bin/../../lib/gcc/pic32mx/4.8.3/../../../../pic32mx/lib\libpic32.a(default-bootstrap-exception-handler.o)
 .debug_frame   0x000095b4       0x20 c:/program files (x86)/microchip/xc32/v1.42/bin/bin/../../lib/gcc/pic32mx/4.8.3/../../../../pic32mx/lib\libpic32.a(default-on-reset.o)
 .debug_frame   0x000095d4       0x20 c:/program files (x86)/microchip/xc32/v1.42/bin/bin/../../lib/gcc/pic32mx/4.8.3/../../../../pic32mx/lib\libpic32.a(default-on-bootstrap.o)
 .debug_frame   0x000095f4       0x20 c:/program files (x86)/microchip/xc32/v1.42/bin/bin/../../lib/gcc/pic32mx/4.8.3/../../../../pic32mx/lib\libpic32.a(defaultinterrupt.o)
 .debug_frame   0x00009614       0x2c c:/program files (x86)/microchip/xc32/v1.42/bin/bin/../../lib/gcc/pic32mx/4.8.3/../../../../pic32mx/lib\libpic32.a(default-cache-err-exception-handler.o)
 .debug_frame   0x00009640       0x2c c:/program files (x86)/microchip/xc32/v1.42/bin/bin/../../lib/gcc/pic32mx/4.8.3/../../../../pic32mx/lib\libpic32.a(default-simple-tlb-refill-exception-handler.o)
 .debug_frame   0x0000966c       0x2c c:/program files (x86)/microchip/xc32/v1.42/bin/bin/../../lib/gcc/pic32mx/4.8.3/../../../../pic32mx/lib\libc.a(fclose.o)
 .debug_frame   0x00009698       0x28 c:/program files (x86)/microchip/xc32/v1.42/bin/bin/../../lib/gcc/pic32mx/4.8.3/../../../../pic32mx/lib\libc.a(fflush.o)
 .debug_frame   0x000096c0       0x28 c:/program files (x86)/microchip/xc32/v1.42/bin/bin/../../lib/gcc/pic32mx/4.8.3/../../../../pic32mx/lib\libc.a(fopen.o)
 .debug_frame   0x000096e8       0x34 c:/program files (x86)/microchip/xc32/v1.42/bin/bin/../../lib/gcc/pic32mx/4.8.3/../../../../pic32mx/lib\libc.a(fread.o)
 .debug_frame   0x0000971c       0x30 c:/program files (x86)/microchip/xc32/v1.42/bin/bin/../../lib/gcc/pic32mx/4.8.3/../../../../pic32mx/lib\libc.a(freopen.o)
 .debug_frame   0x0000974c       0x48 c:/program files (x86)/microchip/xc32/v1.42/bin/bin/../../lib/gcc/pic32mx/4.8.3/../../../../pic32mx/lib\libc.a(fseek.o)
 .debug_frame   0x00009794       0x38 c:/program files (x86)/microchip/xc32/v1.42/bin/bin/../../lib/gcc/pic32mx/4.8.3/../../../../pic32mx/lib\libc.a(fwrite.o)
 .debug_frame   0x000097cc       0x38 c:/program files (x86)/microchip/xc32/v1.42/bin/bin/../../lib/gcc/pic32mx/4.8.3/../../../../pic32mx/lib\libc.a(buf.o)
 .debug_frame   0x00009804       0x28 c:/program files (x86)/microchip/xc32/v1.42/bin/bin/../../lib/gcc/pic32mx/4.8.3/../../../../pic32mx/lib\libc.a(calloc.o)
 .debug_frame   0x0000982c       0x68 c:/program files (x86)/microchip/xc32/v1.42/bin/bin/../../lib/gcc/pic32mx/4.8.3/../../../../pic32mx/lib\libc.a(malloc.o)
 .debug_frame   0x00009894       0x2c c:/program files (x86)/microchip/xc32/v1.42/bin/bin/../../lib/gcc/pic32mx/4.8.3/../../../../pic32mx/lib\libc.a(fgetc.o)
 .debug_frame   0x000098c0       0x2c c:/program files (x86)/microchip/xc32/v1.42/bin/bin/../../lib/gcc/pic32mx/4.8.3/../../../../pic32mx/lib\libc.a(_fputc_simple.o)
 .debug_frame   0x000098ec       0x30 c:/program files (x86)/microchip/xc32/v1.42/bin/bin/../../lib/gcc/pic32mx/4.8.3/../../../../pic32mx/lib\libc.a(filbuf.o)
 .debug_frame   0x0000991c       0x28 c:/program files (x86)/microchip/xc32/v1.42/bin/bin/../../lib/gcc/pic32mx/4.8.3/../../../../pic32mx/lib\libc.a(_flsbuf_simple.o)
 .debug_frame   0x00009944       0x84 c:/program files (x86)/microchip/xc32/v1.42/bin/bin/../../lib/gcc/pic32mx/4.8.3/../../../../pic32mx/lib\libpic32.a(sbrk.o)
 .debug_frame   0x000099c8       0x2c c:/program files (x86)/microchip/xc32/v1.42/bin/bin/../../lib/gcc/pic32mx/4.8.3/../../../../pic32mx/lib\libpic32.a(read.o)
 .debug_frame   0x000099f4       0x38 c:/program files (x86)/microchip/xc32/v1.42/bin/bin/../../lib/gcc/pic32mx/4.8.3/../../../../pic32mx/lib\libpic32.a(write.o)
 .debug_frame   0x00009a2c       0x20 c:/program files (x86)/microchip/xc32/v1.42/bin/bin/../../lib/gcc/pic32mx/4.8.3/../../../../pic32mx/lib\libpic32.a(lseek.o)
 .debug_frame   0x00009a4c       0x20 c:/program files (x86)/microchip/xc32/v1.42/bin/bin/../../lib/gcc/pic32mx/4.8.3/../../../../pic32mx/lib\libpic32.a(remove.o)
 .debug_frame   0x00009a6c       0x20 c:/program files (x86)/microchip/xc32/v1.42/bin/bin/../../lib/gcc/pic32mx/4.8.3/../../../../pic32mx/lib\libpic32.a(close.o)
 .debug_frame   0x00009a8c       0x20 c:/program files (x86)/microchip/xc32/v1.42/bin/bin/../../lib/gcc/pic32mx/4.8.3/../../../../pic32mx/lib\libpic32.a(open.o)
 .debug_frame   0x00009aac       0x28 c:/program files (x86)/microchip/xc32/v1.42/bin/bin/../../lib/gcc/pic32mx/4.8.3/../../../../pic32mx/lib\libpic32.a(_mon_putc.o)

.debug_str      0x00000000     0x2a30
 *(.debug_str)
 .debug_str     0x00000000        0x0 c:/program files (x86)/microchip/xc32/v1.42/bin/bin/../../lib/gcc/pic32mx/4.8.3/../../../../pic32mx/lib\software-debug-break.o
 .debug_str     0x00000000       0x15 build/pic32mz_ef_sk_meb2/debug/_ext/1360937237/app.o
 .debug_str     0x00000015        0x0 build/pic32mz_ef_sk_meb2/debug/_ext/1360937237/main.o
 .debug_str     0x00000015       0x1e build/pic32mz_ef_sk_meb2/debug/_ext/1360937237/ov2640.o
 .debug_str     0x00000033       0x15 build/pic32mz_ef_sk_meb2/debug/_ext/1360937237/i2c_master_noint.o
 .debug_str     0x00000048        0x0 build/pic32mz_ef_sk_meb2/debug/_ext/426253641/jidctint.o
 .debug_str     0x00000048        0x0 build/pic32mz_ef_sk_meb2/debug/_ext/1597685232/gfxu_image.o
 .debug_str     0x00000048       0x1b build/pic32mz_ef_sk_meb2/debug/_ext/1597685232/gfxu_image_png_external.o
 .debug_str     0x00000063       0x22 build/pic32mz_ef_sk_meb2/debug/_ext/1597685232/gfxu_image_png_internal.o
 .debug_str     0x00000085       0x93 build/pic32mz_ef_sk_meb2/debug/_ext/1597685232/gfxu_image_jpg_internal.o
 .debug_str     0x00000118      0x496 build/pic32mz_ef_sk_meb2/debug/_ext/493934858/lodepng.o
 .debug_str     0x000005ae       0x1b build/pic32mz_ef_sk_meb2/debug/_ext/1597685232/gfxu_image_raw_external.o
 .debug_str     0x000005c9       0x3e build/pic32mz_ef_sk_meb2/debug/_ext/1597685232/gfxu_image_raw_internal.o
 .debug_str     0x00000607       0x1b build/pic32mz_ef_sk_meb2/debug/_ext/1597685232/gfxu_image_rle_external.o
 .debug_str     0x00000622       0x5e build/pic32mz_ef_sk_meb2/debug/_ext/1597685232/gfxu_image_rle_internal.o
 .debug_str     0x00000680        0x6 build/pic32mz_ef_sk_meb2/debug/_ext/1597685232/gfxu_image_utils.o
 .debug_str     0x00000686        0x0 build/pic32mz_ef_sk_meb2/debug/_ext/1597685232/gfxu_palette.o
 .debug_str     0x00000686       0x22 build/pic32mz_ef_sk_meb2/debug/_ext/1597685232/gfxu_string.o
 .debug_str     0x000006a8       0x23 build/pic32mz_ef_sk_meb2/debug/_ext/1597685232/gfxu_string_external.o
 .debug_str     0x000006cb       0x12 build/pic32mz_ef_sk_meb2/debug/_ext/1597685232/gfxu_string_internal.o
 .debug_str     0x000006dd       0x52 build/pic32mz_ef_sk_meb2/debug/_ext/1597685232/gfxu_string_query.o
 .debug_str     0x0000072f       0x88 build/pic32mz_ef_sk_meb2/debug/_ext/1597685232/gfxu_string_utils.o
 .debug_str     0x000007b7       0x32 build/pic32mz_ef_sk_meb2/debug/_ext/1907747181/libaria.o
 .debug_str     0x000007e9       0x78 build/pic32mz_ef_sk_meb2/debug/_ext/1907747181/libaria_context.o
 .debug_str     0x00000861       0x52 build/pic32mz_ef_sk_meb2/debug/_ext/1907747181/libaria_context_paint.o
 .debug_str     0x000008b3       0x3e build/pic32mz_ef_sk_meb2/debug/_ext/1907747181/libaria_draw.o
 .debug_str     0x000008f1       0x33 build/pic32mz_ef_sk_meb2/debug/_ext/1907747181/libaria_editwidget.o
 .debug_str     0x00000924       0x3a build/pic32mz_ef_sk_meb2/debug/_ext/1907747181/libaria_event.o
 .debug_str     0x0000095e       0x3a build/pic32mz_ef_sk_meb2/debug/_ext/1907747181/libaria_input.o
 .debug_str     0x00000998       0x46 build/pic32mz_ef_sk_meb2/debug/_ext/1907747181/libaria_layer.o
 .debug_str     0x000009de       0x3d build/pic32mz_ef_sk_meb2/debug/_ext/1907747181/libaria_list.o
 .debug_str     0x00000a1b        0x0 build/pic32mz_ef_sk_meb2/debug/_ext/1907747181/libaria_scheme.o
 .debug_str     0x00000a1b       0x3d build/pic32mz_ef_sk_meb2/debug/_ext/1907747181/libaria_screen.o
 .debug_str     0x00000a58       0x4c build/pic32mz_ef_sk_meb2/debug/_ext/1907747181/libaria_string.o
 .debug_str     0x00000aa4       0xce build/pic32mz_ef_sk_meb2/debug/_ext/1907747181/libaria_utils.o
 .debug_str     0x00000b72       0x70 build/pic32mz_ef_sk_meb2/debug/_ext/1907747181/libaria_widget.o
 .debug_str     0x00000be2       0x41 build/pic32mz_ef_sk_meb2/debug/_ext/1907747181/libaria_widget_skin_classic.o
 .debug_str     0x00000c23       0x7d build/pic32mz_ef_sk_meb2/debug/_ext/1907747181/libaria_widget_button.o
 .debug_str     0x00000ca0       0x75 build/pic32mz_ef_sk_meb2/debug/_ext/1907747181/libaria_widget_button_skin_classic.o
 .debug_str     0x00000d15       0x62 build/pic32mz_ef_sk_meb2/debug/_ext/1907747181/libaria_widget_checkbox.o
 .debug_str     0x00000d77       0x86 build/pic32mz_ef_sk_meb2/debug/_ext/1907747181/libaria_widget_checkbox_skin_classic.o
 .debug_str     0x00000dfd       0x32 build/pic32mz_ef_sk_meb2/debug/_ext/1907747181/libaria_widget_circle.o
 .debug_str     0x00000e2f       0x41 build/pic32mz_ef_sk_meb2/debug/_ext/1907747181/libaria_widget_circle_skin_classic.o
 .debug_str     0x00000e70       0x32 build/pic32mz_ef_sk_meb2/debug/_ext/1907747181/libaria_widget_drawsurface.o
 .debug_str     0x00000ea2       0x41 build/pic32mz_ef_sk_meb2/debug/_ext/1907747181/libaria_widget_drawsurface_skin_classic.o
 .debug_str     0x00000ee3       0x32 build/pic32mz_ef_sk_meb2/debug/_ext/1907747181/libaria_widget_gradient.o
 .debug_str     0x00000f15       0x41 build/pic32mz_ef_sk_meb2/debug/_ext/1907747181/libaria_widget_gradient_skin_classic.o
 .debug_str     0x00000f56       0x32 build/pic32mz_ef_sk_meb2/debug/_ext/1907747181/libaria_widget_groupbox.o
 .debug_str     0x00000f88       0x5d build/pic32mz_ef_sk_meb2/debug/_ext/1907747181/libaria_widget_groupbox_skin_classic.o
 .debug_str     0x00000fe5       0x4a build/pic32mz_ef_sk_meb2/debug/_ext/1907747181/libaria_widget_image.o
 .debug_str     0x0000102f       0x6c build/pic32mz_ef_sk_meb2/debug/_ext/1907747181/libaria_widget_image_skin_classic.o
 .debug_str     0x0000109b       0x4a build/pic32mz_ef_sk_meb2/debug/_ext/1907747181/libaria_widget_imagesequence.o
 .debug_str     0x000010e5       0x6c build/pic32mz_ef_sk_meb2/debug/_ext/1907747181/libaria_widget_imagesequence_skin_classic.o
 .debug_str     0x00001151       0x73 build/pic32mz_ef_sk_meb2/debug/_ext/1907747181/libaria_widget_keypad.o
 .debug_str     0x000011c4       0x49 build/pic32mz_ef_sk_meb2/debug/_ext/1907747181/libaria_widget_keypad_skin_classic.o
 .debug_str     0x0000120d       0x32 build/pic32mz_ef_sk_meb2/debug/_ext/1907747181/libaria_widget_label.o
 .debug_str     0x0000123f       0x54 build/pic32mz_ef_sk_meb2/debug/_ext/1907747181/libaria_widget_label_skin_classic.o
 .debug_str     0x00001293       0x37 build/pic32mz_ef_sk_meb2/debug/_ext/1907747181/libaria_widget_line.o
 .debug_str     0x000012ca       0x41 build/pic32mz_ef_sk_meb2/debug/_ext/1907747181/libaria_widget_line_skin_classic.o
 .debug_str     0x0000130b       0x8d build/pic32mz_ef_sk_meb2/debug/_ext/1907747181/libaria_widget_list.o
 .debug_str     0x00001398       0x8e build/pic32mz_ef_sk_meb2/debug/_ext/1907747181/libaria_widget_list_skin_classic.o
 .debug_str     0x00001426       0x77 build/pic32mz_ef_sk_meb2/debug/_ext/1907747181/libaria_widget_listwheel.o
 .debug_str     0x0000149d       0x87 build/pic32mz_ef_sk_meb2/debug/_ext/1907747181/libaria_widget_listwheel_skin_classic.o
 .debug_str     0x00001524       0x32 build/pic32mz_ef_sk_meb2/debug/_ext/1907747181/libaria_widget_progressbar.o
 .debug_str     0x00001556       0x41 build/pic32mz_ef_sk_meb2/debug/_ext/1907747181/libaria_widget_progressbar_skin_classic.o
 .debug_str     0x00001597       0x6e build/pic32mz_ef_sk_meb2/debug/_ext/1907747181/libaria_widget_radiobutton.o
 .debug_str     0x00001605       0x96 build/pic32mz_ef_sk_meb2/debug/_ext/1907747181/libaria_widget_radiobutton_skin_classic.o
 .debug_str     0x0000169b       0x6e build/pic32mz_ef_sk_meb2/debug/_ext/1907747181/libaria_radiobutton_group.o
 .debug_str     0x00001709       0x37 build/pic32mz_ef_sk_meb2/debug/_ext/1907747181/libaria_widget_rectangle.o
 .debug_str     0x00001740       0x41 build/pic32mz_ef_sk_meb2/debug/_ext/1907747181/libaria_widget_rectangle_skin_classic.o
 .debug_str     0x00001781       0x49 build/pic32mz_ef_sk_meb2/debug/_ext/1907747181/libaria_widget_scrollbar.o
 .debug_str     0x000017ca       0x4d build/pic32mz_ef_sk_meb2/debug/_ext/1907747181/libaria_widget_scrollbar_skin_classic.o
 .debug_str     0x00001817       0x45 build/pic32mz_ef_sk_meb2/debug/_ext/1907747181/libaria_widget_slider.o
 .debug_str     0x0000185c       0x41 build/pic32mz_ef_sk_meb2/debug/_ext/1907747181/libaria_widget_slider_skin_classic.o
 .debug_str     0x0000189d       0x55 build/pic32mz_ef_sk_meb2/debug/_ext/1907747181/libaria_widget_textfield.o
 .debug_str     0x000018f2       0x66 build/pic32mz_ef_sk_meb2/debug/_ext/1907747181/libaria_widget_textfield_skin_classic.o
 .debug_str     0x00001958       0x32 build/pic32mz_ef_sk_meb2/debug/_ext/1907747181/libaria_widget_touchtest.o
 .debug_str     0x0000198a       0x41 build/pic32mz_ef_sk_meb2/debug/_ext/1907747181/libaria_widget_touchtest_skin_classic.o
 .debug_str     0x000019cb       0x4a build/pic32mz_ef_sk_meb2/debug/_ext/1907747181/libaria_widget_window.o
 .debug_str     0x00001a15       0x92 build/pic32mz_ef_sk_meb2/debug/_ext/1907747181/libaria_widget_window_skin_classic.o
 .debug_str     0x00001aa7       0x63 build/pic32mz_ef_sk_meb2/debug/_ext/1847583374/gfx.o
 .debug_str     0x00001b0a        0x0 build/pic32mz_ef_sk_meb2/debug/_ext/1847583374/gfx_color.o
 .debug_str     0x00001b0a       0x46 build/pic32mz_ef_sk_meb2/debug/_ext/1847583374/gfx_context.o
 .debug_str     0x00001b50       0xa7 build/pic32mz_ef_sk_meb2/debug/_ext/1847583374/gfx_default_impl.o
 .debug_str     0x00001bf7       0x23 build/pic32mz_ef_sk_meb2/debug/_ext/1847583374/gfx_display.o
 .debug_str     0x00001c1a       0x54 build/pic32mz_ef_sk_meb2/debug/_ext/1847583374/gfx_driver_interface.o
 .debug_str     0x00001c6e       0x89 build/pic32mz_ef_sk_meb2/debug/_ext/1847583374/gfx_get.o
 .debug_str     0x00001cf7        0x0 build/pic32mz_ef_sk_meb2/debug/_ext/1847583374/gfx_interface.o
 .debug_str     0x00001cf7       0x53 build/pic32mz_ef_sk_meb2/debug/_ext/1847583374/gfx_layer.o
 .debug_str     0x00001d4a       0x69 build/pic32mz_ef_sk_meb2/debug/_ext/1847583374/gfx_pixel_buffer.o
 .debug_str     0x00001db3        0xe build/pic32mz_ef_sk_meb2/debug/_ext/1847583374/gfx_rect.o
 .debug_str     0x00001dc1       0x30 build/pic32mz_ef_sk_meb2/debug/_ext/1847583374/gfx_util.o
 .debug_str     0x00001df1       0x7c build/pic32mz_ef_sk_meb2/debug/_ext/1847583374/gfx_set.o
 .debug_str     0x00001e6d        0x6 build/pic32mz_ef_sk_meb2/debug/_ext/1847583374/gfx_color_blend.o
 .debug_str     0x00001e73       0x5f build/pic32mz_ef_sk_meb2/debug/_ext/1847583374/gfx_color_convert.o
 .debug_str     0x00001ed2       0x19 build/pic32mz_ef_sk_meb2/debug/_ext/1847583374/gfx_color_lerp.o
 .debug_str     0x00001eeb        0x0 build/pic32mz_ef_sk_meb2/debug/_ext/1847583374/gfx_color_value.o
 .debug_str     0x00001eeb       0x6c build/pic32mz_ef_sk_meb2/debug/_ext/1847583374/gfx_draw_blit.o
 .debug_str     0x00001f57       0x46 build/pic32mz_ef_sk_meb2/debug/_ext/1847583374/gfx_draw_circle.o
 .debug_str     0x00001f9d       0x5e build/pic32mz_ef_sk_meb2/debug/_ext/1847583374/gfx_draw_line.o
 .debug_str     0x00001ffb       0x46 build/pic32mz_ef_sk_meb2/debug/_ext/1847583374/gfx_draw_pixel.o
 .debug_str     0x00002041       0x6b build/pic32mz_ef_sk_meb2/debug/_ext/1847583374/gfx_draw_rect.o
 .debug_str     0x000020ac        0x0 build/pic32mz_ef_sk_meb2/debug/_ext/1847583374/gfx_math.o
 .debug_str     0x000020ac      0x158 build/pic32mz_ef_sk_meb2/debug/_ext/853959373/sys_dma.o
 .debug_str     0x00002204       0x2d build/pic32mz_ef_sk_meb2/debug/_ext/1042686532/sys_int_pic32.o
 .debug_str     0x00002231       0x9f build/pic32mz_ef_sk_meb2/debug/_ext/1219754583/drv_i2c_static_buffer_model.o
 .debug_str     0x000022d0       0x3f build/pic32mz_ef_sk_meb2/debug/_ext/1219754583/drv_i2c_mapping.o
 .debug_str     0x0000230f       0x6f build/pic32mz_ef_sk_meb2/debug/_ext/199634090/drv_tmr_static.o
 .debug_str     0x0000237e        0xe build/pic32mz_ef_sk_meb2/debug/_ext/199634090/drv_tmr_mapping.o
 .debug_str     0x0000238c      0x23a build/pic32mz_ef_sk_meb2/debug/_ext/713288229/drv_gfx_lcc_generic.o
 .debug_str     0x000025c6       0x32 build/pic32mz_ef_sk_meb2/debug/_ext/1740298103/libaria_harmony.o
 .debug_str     0x000025f8       0x68 build/pic32mz_ef_sk_meb2/debug/_ext/1740298103/libaria_init.o
 .debug_str     0x00002660        0x0 build/pic32mz_ef_sk_meb2/debug/_ext/1740298103/libaria_events.o
 .debug_str     0x00002660        0x0 build/pic32mz_ef_sk_meb2/debug/_ext/1740298103/libaria_macros.o
 .debug_str     0x00002660       0x23 build/pic32mz_ef_sk_meb2/debug/_ext/477038478/gfx_display_def.o
 .debug_str     0x00002683       0x54 build/pic32mz_ef_sk_meb2/debug/_ext/477038478/gfx_driver_def.o
 .debug_str     0x000026d7       0xd0 build/pic32mz_ef_sk_meb2/debug/_ext/1847413222/sys_clk.o
 .debug_str     0x000027a7      0x14e build/pic32mz_ef_sk_meb2/debug/_ext/1847413222/sys_clk_pic32mz.o
 .debug_str     0x000028f5       0x16 build/pic32mz_ef_sk_meb2/debug/_ext/924081491/sys_devcon.o
 .debug_str     0x0000290b       0x1a build/pic32mz_ef_sk_meb2/debug/_ext/924081491/sys_devcon_pic32mz.o
 .debug_str     0x00002925       0xa1 build/pic32mz_ef_sk_meb2/debug/_ext/50030870/sys_ports_static.o
 .debug_str     0x000029c6       0x15 build/pic32mz_ef_sk_meb2/debug/_ext/1465531745/bsp.o
 .debug_str     0x000029db       0x2b build/pic32mz_ef_sk_meb2/debug/_ext/1951523377/system_init.o
 .debug_str     0x00002a06        0x0 build/pic32mz_ef_sk_meb2/debug/_ext/1951523377/system_interrupt.o
 .debug_str     0x00002a06        0x0 build/pic32mz_ef_sk_meb2/debug/_ext/1951523377/system_exceptions.o
 .debug_str     0x00002a06        0x0 build/pic32mz_ef_sk_meb2/debug/_ext/1951523377/system_tasks.o
 .debug_str     0x00002a06       0x2a build/pic32mz_ef_sk_meb2/debug/_ext/715821942/gfx_assets.o
 .debug_str     0x00002a30        0x0 c:/program files (x86)/microchip/xc32/v1.42/bin/bin/../../lib/gcc/pic32mx/4.8.3\libgcc.a(floatunsisf.o)
 .debug_str     0x00002a30        0x0 c:/program files (x86)/microchip/xc32/v1.42/bin/bin/../../lib/gcc/pic32mx/4.8.3/../../../../pic32mx/lib\libpic32.a(default-bootstrap-exception-handler.o)
 .debug_str     0x00002a30        0x0 c:/program files (x86)/microchip/xc32/v1.42/bin/bin/../../lib/gcc/pic32mx/4.8.3/../../../../pic32mx/lib\libpic32.a(default-on-reset.o)
 .debug_str     0x00002a30        0x0 c:/program files (x86)/microchip/xc32/v1.42/bin/bin/../../lib/gcc/pic32mx/4.8.3/../../../../pic32mx/lib\libpic32.a(default-on-bootstrap.o)
 .debug_str     0x00002a30        0x0 c:/program files (x86)/microchip/xc32/v1.42/bin/bin/../../lib/gcc/pic32mx/4.8.3/../../../../pic32mx/lib\libpic32.a(defaultinterrupt.o)
 .debug_str     0x00002a30        0x0 c:/program files (x86)/microchip/xc32/v1.42/bin/bin/../../lib/gcc/pic32mx/4.8.3/../../../../pic32mx/lib\libpic32.a(default-cache-err-exception-handler.o)
 .debug_str     0x00002a30        0x0 c:/program files (x86)/microchip/xc32/v1.42/bin/bin/../../lib/gcc/pic32mx/4.8.3/../../../../pic32mx/lib\libpic32.a(default-simple-tlb-refill-exception-handler.o)
 .debug_str     0x00002a30        0x0 c:/program files (x86)/microchip/xc32/v1.42/bin/bin/../../lib/gcc/pic32mx/4.8.3/../../../../pic32mx/lib\libc.a(fclose.o)
 .debug_str     0x00002a30        0x0 c:/program files (x86)/microchip/xc32/v1.42/bin/bin/../../lib/gcc/pic32mx/4.8.3/../../../../pic32mx/lib\libc.a(fflush.o)
 .debug_str     0x00002a30        0x0 c:/program files (x86)/microchip/xc32/v1.42/bin/bin/../../lib/gcc/pic32mx/4.8.3/../../../../pic32mx/lib\libc.a(fopen.o)
 .debug_str     0x00002a30        0x0 c:/program files (x86)/microchip/xc32/v1.42/bin/bin/../../lib/gcc/pic32mx/4.8.3/../../../../pic32mx/lib\libc.a(fread.o)
 .debug_str     0x00002a30        0x0 c:/program files (x86)/microchip/xc32/v1.42/bin/bin/../../lib/gcc/pic32mx/4.8.3/../../../../pic32mx/lib\libc.a(freopen.o)
 .debug_str     0x00002a30        0x0 c:/program files (x86)/microchip/xc32/v1.42/bin/bin/../../lib/gcc/pic32mx/4.8.3/../../../../pic32mx/lib\libc.a(fseek.o)
 .debug_str     0x00002a30        0x0 c:/program files (x86)/microchip/xc32/v1.42/bin/bin/../../lib/gcc/pic32mx/4.8.3/../../../../pic32mx/lib\libc.a(fwrite.o)
 .debug_str     0x00002a30        0x0 c:/program files (x86)/microchip/xc32/v1.42/bin/bin/../../lib/gcc/pic32mx/4.8.3/../../../../pic32mx/lib\libc.a(buf.o)
 .debug_str     0x00002a30        0x0 c:/program files (x86)/microchip/xc32/v1.42/bin/bin/../../lib/gcc/pic32mx/4.8.3/../../../../pic32mx/lib\libc.a(calloc.o)
 .debug_str     0x00002a30        0x0 c:/program files (x86)/microchip/xc32/v1.42/bin/bin/../../lib/gcc/pic32mx/4.8.3/../../../../pic32mx/lib\libc.a(errno.o)
 .debug_str     0x00002a30        0x0 c:/program files (x86)/microchip/xc32/v1.42/bin/bin/../../lib/gcc/pic32mx/4.8.3/../../../../pic32mx/lib\libc.a(malloc.o)
 .debug_str     0x00002a30        0x0 c:/program files (x86)/microchip/xc32/v1.42/bin/bin/../../lib/gcc/pic32mx/4.8.3/../../../../pic32mx/lib\libc.a(tfiles.o)
 .debug_str     0x00002a30        0x0 c:/program files (x86)/microchip/xc32/v1.42/bin/bin/../../lib/gcc/pic32mx/4.8.3/../../../../pic32mx/lib\libc.a(_iob.o)
 .debug_str     0x00002a30        0x0 c:/program files (x86)/microchip/xc32/v1.42/bin/bin/../../lib/gcc/pic32mx/4.8.3/../../../../pic32mx/lib\libc.a(fgetc.o)
 .debug_str     0x00002a30        0x0 c:/program files (x86)/microchip/xc32/v1.42/bin/bin/../../lib/gcc/pic32mx/4.8.3/../../../../pic32mx/lib\libc.a(_fputc_simple.o)
 .debug_str     0x00002a30        0x0 c:/program files (x86)/microchip/xc32/v1.42/bin/bin/../../lib/gcc/pic32mx/4.8.3/../../../../pic32mx/lib\libc.a(filbuf.o)
 .debug_str     0x00002a30        0x0 c:/program files (x86)/microchip/xc32/v1.42/bin/bin/../../lib/gcc/pic32mx/4.8.3/../../../../pic32mx/lib\libc.a(_flsbuf_simple.o)
 .debug_str     0x00002a30        0x0 c:/program files (x86)/microchip/xc32/v1.42/bin/bin/../../lib/gcc/pic32mx/4.8.3/../../../../pic32mx/lib\libpic32.a(sbrk.o)
 .debug_str     0x00002a30        0x0 c:/program files (x86)/microchip/xc32/v1.42/bin/bin/../../lib/gcc/pic32mx/4.8.3/../../../../pic32mx/lib\libpic32.a(read.o)
 .debug_str     0x00002a30        0x0 c:/program files (x86)/microchip/xc32/v1.42/bin/bin/../../lib/gcc/pic32mx/4.8.3/../../../../pic32mx/lib\libpic32.a(write.o)
 .debug_str     0x00002a30        0x0 c:/program files (x86)/microchip/xc32/v1.42/bin/bin/../../lib/gcc/pic32mx/4.8.3/../../../../pic32mx/lib\libpic32.a(lseek.o)
 .debug_str     0x00002a30        0x0 c:/program files (x86)/microchip/xc32/v1.42/bin/bin/../../lib/gcc/pic32mx/4.8.3/../../../../pic32mx/lib\libpic32.a(remove.o)
 .debug_str     0x00002a30        0x0 c:/program files (x86)/microchip/xc32/v1.42/bin/bin/../../lib/gcc/pic32mx/4.8.3/../../../../pic32mx/lib\libpic32.a(close.o)
 .debug_str     0x00002a30        0x0 c:/program files (x86)/microchip/xc32/v1.42/bin/bin/../../lib/gcc/pic32mx/4.8.3/../../../../pic32mx/lib\libpic32.a(open.o)
 .debug_str     0x00002a30        0x0 c:/program files (x86)/microchip/xc32/v1.42/bin/bin/../../lib/gcc/pic32mx/4.8.3/../../../../pic32mx/lib\libpic32.a(xc32_uart.o)
 .debug_str     0x00002a30        0x0 c:/program files (x86)/microchip/xc32/v1.42/bin/bin/../../lib/gcc/pic32mx/4.8.3/../../../../pic32mx/lib\libpic32.a(_mon_putc.o)

.debug_loc      0x00000000    0x3c1de
 *(.debug_loc)
 .debug_loc     0x00000000       0x40 build/pic32mz_ef_sk_meb2/debug/_ext/1360937237/app.o
 .debug_loc     0x00000040       0x20 build/pic32mz_ef_sk_meb2/debug/_ext/1360937237/main.o
 .debug_loc     0x00000060      0x156 build/pic32mz_ef_sk_meb2/debug/_ext/1360937237/ov2640.o
 .debug_loc     0x000001b6       0x21 build/pic32mz_ef_sk_meb2/debug/_ext/1360937237/i2c_master_noint.o
 .debug_loc     0x000001d7     0x148d build/pic32mz_ef_sk_meb2/debug/_ext/426253641/jidctint.o
 .debug_loc     0x00001664      0x1bd build/pic32mz_ef_sk_meb2/debug/_ext/1597685232/gfxu_image.o
 .debug_loc     0x00001821      0x2e0 build/pic32mz_ef_sk_meb2/debug/_ext/1597685232/gfxu_image_png_external.o
 .debug_loc     0x00001b01      0x216 build/pic32mz_ef_sk_meb2/debug/_ext/1597685232/gfxu_image_png_internal.o
 .debug_loc     0x00001d17      0xcf1 build/pic32mz_ef_sk_meb2/debug/_ext/1597685232/gfxu_image_jpg_internal.o
 .debug_loc     0x00002a08    0x1154c build/pic32mz_ef_sk_meb2/debug/_ext/493934858/lodepng.o
 .debug_loc     0x00013f54      0x40e build/pic32mz_ef_sk_meb2/debug/_ext/1597685232/gfxu_image_raw_external.o
 .debug_loc     0x00014362      0x2ba build/pic32mz_ef_sk_meb2/debug/_ext/1597685232/gfxu_image_raw_internal.o
 .debug_loc     0x0001461c      0x4e3 build/pic32mz_ef_sk_meb2/debug/_ext/1597685232/gfxu_image_rle_external.o
 .debug_loc     0x00014aff      0x5af build/pic32mz_ef_sk_meb2/debug/_ext/1597685232/gfxu_image_rle_internal.o
 .debug_loc     0x000150ae      0x2ec build/pic32mz_ef_sk_meb2/debug/_ext/1597685232/gfxu_image_utils.o
 .debug_loc     0x0001539a      0x34c build/pic32mz_ef_sk_meb2/debug/_ext/1597685232/gfxu_string.o
 .debug_loc     0x000156e6      0x51a build/pic32mz_ef_sk_meb2/debug/_ext/1597685232/gfxu_string_external.o
 .debug_loc     0x00015c00      0x278 build/pic32mz_ef_sk_meb2/debug/_ext/1597685232/gfxu_string_internal.o
 .debug_loc     0x00015e78      0xe76 build/pic32mz_ef_sk_meb2/debug/_ext/1597685232/gfxu_string_query.o
 .debug_loc     0x00016cee     0x15f9 build/pic32mz_ef_sk_meb2/debug/_ext/1597685232/gfxu_string_utils.o
 .debug_loc     0x000182e7       0x94 build/pic32mz_ef_sk_meb2/debug/_ext/1907747181/libaria.o
 .debug_loc     0x0001837b      0x72d build/pic32mz_ef_sk_meb2/debug/_ext/1907747181/libaria_context.o
 .debug_loc     0x00018aa8      0x129 build/pic32mz_ef_sk_meb2/debug/_ext/1907747181/libaria_context_paint.o
 .debug_loc     0x00018bd1      0x308 build/pic32mz_ef_sk_meb2/debug/_ext/1907747181/libaria_draw.o
 .debug_loc     0x00018ed9      0x1fe build/pic32mz_ef_sk_meb2/debug/_ext/1907747181/libaria_editwidget.o
 .debug_loc     0x000190d7      0x1bc build/pic32mz_ef_sk_meb2/debug/_ext/1907747181/libaria_event.o
 .debug_loc     0x00019293      0x57b build/pic32mz_ef_sk_meb2/debug/_ext/1907747181/libaria_input.o
 .debug_loc     0x0001980e      0x440 build/pic32mz_ef_sk_meb2/debug/_ext/1907747181/libaria_layer.o
 .debug_loc     0x00019c4e      0x7a6 build/pic32mz_ef_sk_meb2/debug/_ext/1907747181/libaria_list.o
 .debug_loc     0x0001a3f4       0x78 build/pic32mz_ef_sk_meb2/debug/_ext/1907747181/libaria_scheme.o
 .debug_loc     0x0001a46c      0x3e2 build/pic32mz_ef_sk_meb2/debug/_ext/1907747181/libaria_screen.o
 .debug_loc     0x0001a84e     0x10ad build/pic32mz_ef_sk_meb2/debug/_ext/1907747181/libaria_string.o
 .debug_loc     0x0001b8fb      0xf20 build/pic32mz_ef_sk_meb2/debug/_ext/1907747181/libaria_utils.o
 .debug_loc     0x0001c81b     0x15de build/pic32mz_ef_sk_meb2/debug/_ext/1907747181/libaria_widget.o
 .debug_loc     0x0001ddf9       0xd9 build/pic32mz_ef_sk_meb2/debug/_ext/1907747181/libaria_widget_skin_classic.o
 .debug_loc     0x0001ded2      0x727 build/pic32mz_ef_sk_meb2/debug/_ext/1907747181/libaria_widget_button.o
 .debug_loc     0x0001e5f9      0x241 build/pic32mz_ef_sk_meb2/debug/_ext/1907747181/libaria_widget_button_skin_classic.o
 .debug_loc     0x0001e83a      0x54c build/pic32mz_ef_sk_meb2/debug/_ext/1907747181/libaria_widget_checkbox.o
 .debug_loc     0x0001ed86      0x313 build/pic32mz_ef_sk_meb2/debug/_ext/1907747181/libaria_widget_checkbox_skin_classic.o
 .debug_loc     0x0001f099      0x25d build/pic32mz_ef_sk_meb2/debug/_ext/1907747181/libaria_widget_circle.o
 .debug_loc     0x0001f2f6      0x125 build/pic32mz_ef_sk_meb2/debug/_ext/1907747181/libaria_widget_circle_skin_classic.o
 .debug_loc     0x0001f41b      0x183 build/pic32mz_ef_sk_meb2/debug/_ext/1907747181/libaria_widget_drawsurface.o
 .debug_loc     0x0001f59e      0x125 build/pic32mz_ef_sk_meb2/debug/_ext/1907747181/libaria_widget_drawsurface_skin_classic.o
 .debug_loc     0x0001f6c3      0x18f build/pic32mz_ef_sk_meb2/debug/_ext/1907747181/libaria_widget_gradient.o
 .debug_loc     0x0001f852      0x128 build/pic32mz_ef_sk_meb2/debug/_ext/1907747181/libaria_widget_gradient_skin_classic.o
 .debug_loc     0x0001f97a      0x25e build/pic32mz_ef_sk_meb2/debug/_ext/1907747181/libaria_widget_groupbox.o
 .debug_loc     0x0001fbd8      0x238 build/pic32mz_ef_sk_meb2/debug/_ext/1907747181/libaria_widget_groupbox_skin_classic.o
 .debug_loc     0x0001fe10      0x22c build/pic32mz_ef_sk_meb2/debug/_ext/1907747181/libaria_widget_image.o
 .debug_loc     0x0002003c      0x1ea build/pic32mz_ef_sk_meb2/debug/_ext/1907747181/libaria_widget_image_skin_classic.o
 .debug_loc     0x00020226      0x757 build/pic32mz_ef_sk_meb2/debug/_ext/1907747181/libaria_widget_imagesequence.o
 .debug_loc     0x0002097d      0x172 build/pic32mz_ef_sk_meb2/debug/_ext/1907747181/libaria_widget_imagesequence_skin_classic.o
 .debug_loc     0x00020aef     0x1316 build/pic32mz_ef_sk_meb2/debug/_ext/1907747181/libaria_widget_keypad.o
 .debug_loc     0x00021e05      0x116 build/pic32mz_ef_sk_meb2/debug/_ext/1907747181/libaria_widget_keypad_skin_classic.o
 .debug_loc     0x00021f1b      0x28e build/pic32mz_ef_sk_meb2/debug/_ext/1907747181/libaria_widget_label.o
 .debug_loc     0x000221a9      0x172 build/pic32mz_ef_sk_meb2/debug/_ext/1907747181/libaria_widget_label_skin_classic.o
 .debug_loc     0x0002231b      0x273 build/pic32mz_ef_sk_meb2/debug/_ext/1907747181/libaria_widget_line.o
 .debug_loc     0x0002258e      0x125 build/pic32mz_ef_sk_meb2/debug/_ext/1907747181/libaria_widget_line_skin_classic.o
 .debug_loc     0x000226b3     0x163f build/pic32mz_ef_sk_meb2/debug/_ext/1907747181/libaria_widget_list.o
 .debug_loc     0x00023cf2      0x21e build/pic32mz_ef_sk_meb2/debug/_ext/1907747181/libaria_widget_list_skin_classic.o
 .debug_loc     0x00023f10      0xa2d build/pic32mz_ef_sk_meb2/debug/_ext/1907747181/libaria_widget_listwheel.o
 .debug_loc     0x0002493d      0x348 build/pic32mz_ef_sk_meb2/debug/_ext/1907747181/libaria_widget_listwheel_skin_classic.o
 .debug_loc     0x00024c85      0x23e build/pic32mz_ef_sk_meb2/debug/_ext/1907747181/libaria_widget_progressbar.o
 .debug_loc     0x00024ec3      0x35f build/pic32mz_ef_sk_meb2/debug/_ext/1907747181/libaria_widget_progressbar_skin_classic.o
 .debug_loc     0x00025222      0x677 build/pic32mz_ef_sk_meb2/debug/_ext/1907747181/libaria_widget_radiobutton.o
 .debug_loc     0x00025899      0x38f build/pic32mz_ef_sk_meb2/debug/_ext/1907747181/libaria_widget_radiobutton_skin_classic.o
 .debug_loc     0x00025c28      0x2ad build/pic32mz_ef_sk_meb2/debug/_ext/1907747181/libaria_radiobutton_group.o
 .debug_loc     0x00025ed5      0x18f build/pic32mz_ef_sk_meb2/debug/_ext/1907747181/libaria_widget_rectangle.o
 .debug_loc     0x00026064      0x125 build/pic32mz_ef_sk_meb2/debug/_ext/1907747181/libaria_widget_rectangle_skin_classic.o
 .debug_loc     0x00026189      0xad5 build/pic32mz_ef_sk_meb2/debug/_ext/1907747181/libaria_widget_scrollbar.o
 .debug_loc     0x00026c5e      0x2a1 build/pic32mz_ef_sk_meb2/debug/_ext/1907747181/libaria_widget_scrollbar_skin_classic.o
 .debug_loc     0x00026eff      0xab4 build/pic32mz_ef_sk_meb2/debug/_ext/1907747181/libaria_widget_slider.o
 .debug_loc     0x000279b3      0x125 build/pic32mz_ef_sk_meb2/debug/_ext/1907747181/libaria_widget_slider_skin_classic.o
 .debug_loc     0x00027ad8      0x6bb build/pic32mz_ef_sk_meb2/debug/_ext/1907747181/libaria_widget_textfield.o
 .debug_loc     0x00028193      0x230 build/pic32mz_ef_sk_meb2/debug/_ext/1907747181/libaria_widget_textfield_skin_classic.o
 .debug_loc     0x000283c3      0x321 build/pic32mz_ef_sk_meb2/debug/_ext/1907747181/libaria_widget_touchtest.o
 .debug_loc     0x000286e4      0x1fe build/pic32mz_ef_sk_meb2/debug/_ext/1907747181/libaria_widget_touchtest_skin_classic.o
 .debug_loc     0x000288e2      0x316 build/pic32mz_ef_sk_meb2/debug/_ext/1907747181/libaria_widget_window.o
 .debug_loc     0x00028bf8      0x2b9 build/pic32mz_ef_sk_meb2/debug/_ext/1907747181/libaria_widget_window_skin_classic.o
 .debug_loc     0x00028eb1      0xbdd build/pic32mz_ef_sk_meb2/debug/_ext/1847583374/gfx.o
 .debug_loc     0x00029a8e       0xa5 build/pic32mz_ef_sk_meb2/debug/_ext/1847583374/gfx_color.o
 .debug_loc     0x00029b33     0x1933 build/pic32mz_ef_sk_meb2/debug/_ext/1847583374/gfx_default_impl.o
 .debug_loc     0x0002b466       0x20 build/pic32mz_ef_sk_meb2/debug/_ext/1847583374/gfx_driver_interface.o
 .debug_loc     0x0002b486     0x12dd build/pic32mz_ef_sk_meb2/debug/_ext/1847583374/gfx_get.o
 .debug_loc     0x0002c763       0x6c build/pic32mz_ef_sk_meb2/debug/_ext/1847583374/gfx_layer.o
 .debug_loc     0x0002c7cf     0x12a7 build/pic32mz_ef_sk_meb2/debug/_ext/1847583374/gfx_pixel_buffer.o
 .debug_loc     0x0002da76      0x1a9 build/pic32mz_ef_sk_meb2/debug/_ext/1847583374/gfx_rect.o
 .debug_loc     0x0002dc1f      0x416 build/pic32mz_ef_sk_meb2/debug/_ext/1847583374/gfx_util.o
 .debug_loc     0x0002e035     0x1252 build/pic32mz_ef_sk_meb2/debug/_ext/1847583374/gfx_set.o
 .debug_loc     0x0002f287     0x143c build/pic32mz_ef_sk_meb2/debug/_ext/1847583374/gfx_color_blend.o
 .debug_loc     0x000306c3     0x17e9 build/pic32mz_ef_sk_meb2/debug/_ext/1847583374/gfx_color_convert.o
 .debug_loc     0x00031eac      0xebe build/pic32mz_ef_sk_meb2/debug/_ext/1847583374/gfx_color_lerp.o
 .debug_loc     0x00032d6a       0x79 build/pic32mz_ef_sk_meb2/debug/_ext/1847583374/gfx_color_value.o
 .debug_loc     0x00032de3      0x3ce build/pic32mz_ef_sk_meb2/debug/_ext/1847583374/gfx_draw_blit.o
 .debug_loc     0x000331b1      0x138 build/pic32mz_ef_sk_meb2/debug/_ext/1847583374/gfx_draw_circle.o
 .debug_loc     0x000332e9      0x5e0 build/pic32mz_ef_sk_meb2/debug/_ext/1847583374/gfx_draw_line.o
 .debug_loc     0x000338c9      0x1a4 build/pic32mz_ef_sk_meb2/debug/_ext/1847583374/gfx_draw_pixel.o
 .debug_loc     0x00033a6d      0x376 build/pic32mz_ef_sk_meb2/debug/_ext/1847583374/gfx_draw_rect.o
 .debug_loc     0x00033de3      0x556 build/pic32mz_ef_sk_meb2/debug/_ext/1847583374/gfx_math.o
 .debug_loc     0x00034339     0x1b22 build/pic32mz_ef_sk_meb2/debug/_ext/853959373/sys_dma.o
 .debug_loc     0x00035e5b       0xe9 build/pic32mz_ef_sk_meb2/debug/_ext/1042686532/sys_int_pic32.o
 .debug_loc     0x00035f44      0xd65 build/pic32mz_ef_sk_meb2/debug/_ext/1219754583/drv_i2c_static_buffer_model.o
 .debug_loc     0x00036ca9      0x7bf build/pic32mz_ef_sk_meb2/debug/_ext/1219754583/drv_i2c_mapping.o
 .debug_loc     0x00037468      0x59d build/pic32mz_ef_sk_meb2/debug/_ext/199634090/drv_tmr_static.o
 .debug_loc     0x00037a05      0xa3f build/pic32mz_ef_sk_meb2/debug/_ext/199634090/drv_tmr_mapping.o
 .debug_loc     0x00038444      0x989 build/pic32mz_ef_sk_meb2/debug/_ext/713288229/drv_gfx_lcc_generic.o
 .debug_loc     0x00038dcd       0x40 build/pic32mz_ef_sk_meb2/debug/_ext/1740298103/libaria_harmony.o
 .debug_loc     0x00038e0d       0x9e build/pic32mz_ef_sk_meb2/debug/_ext/1740298103/libaria_init.o
 .debug_loc     0x00038eab      0x3fa build/pic32mz_ef_sk_meb2/debug/_ext/1847413222/sys_clk.o
 .debug_loc     0x000392a5     0x1779 build/pic32mz_ef_sk_meb2/debug/_ext/1847413222/sys_clk_pic32mz.o
 .debug_loc     0x0003aa1e      0x150 build/pic32mz_ef_sk_meb2/debug/_ext/924081491/sys_devcon.o
 .debug_loc     0x0003ab6e      0x6bd build/pic32mz_ef_sk_meb2/debug/_ext/924081491/sys_devcon_pic32mz.o
 .debug_loc     0x0003b22b      0x9ea build/pic32mz_ef_sk_meb2/debug/_ext/50030870/sys_ports_static.o
 .debug_loc     0x0003bc15      0x451 build/pic32mz_ef_sk_meb2/debug/_ext/1465531745/bsp.o
 .debug_loc     0x0003c066       0x41 build/pic32mz_ef_sk_meb2/debug/_ext/1951523377/system_init.o
 .debug_loc     0x0003c0a7       0x83 build/pic32mz_ef_sk_meb2/debug/_ext/1951523377/system_interrupt.o
 .debug_loc     0x0003c12a       0x20 build/pic32mz_ef_sk_meb2/debug/_ext/1951523377/system_exceptions.o
 .debug_loc     0x0003c14a       0x20 build/pic32mz_ef_sk_meb2/debug/_ext/1951523377/system_tasks.o
 .debug_loc     0x0003c16a       0x74 c:/program files (x86)/microchip/xc32/v1.42/bin/bin/../../lib/gcc/pic32mx/4.8.3\libgcc.a(floatunsisf.o)

.debug_macinfo
 *(.debug_macinfo)

.debug_weaknames
 *(.debug_weaknames)

.debug_funcnames
 *(.debug_funcnames)

.debug_typenames
 *(.debug_typenames)

.debug_varnames
 *(.debug_varnames)

.debug_pubtypes
 *(.debug_pubtypes)

.debug_ranges   0x00000000     0x5208
 *(.debug_ranges)
 .debug_ranges  0x00000000       0x10 c:/program files (x86)/microchip/xc32/v1.42/bin/bin/../../lib/gcc/pic32mx/4.8.3/../../../../pic32mx/lib\software-debug-break.o
 .debug_ranges  0x00000010       0x28 build/pic32mz_ef_sk_meb2/debug/_ext/1360937237/app.o
 .debug_ranges  0x00000038       0x10 build/pic32mz_ef_sk_meb2/debug/_ext/1360937237/main.o
 .debug_ranges  0x00000048       0x28 build/pic32mz_ef_sk_meb2/debug/_ext/1360937237/ov2640.o
 .debug_ranges  0x00000070       0x40 build/pic32mz_ef_sk_meb2/debug/_ext/1360937237/i2c_master_noint.o
 .debug_ranges  0x000000b0       0x10 build/pic32mz_ef_sk_meb2/debug/_ext/426253641/jidctint.o
 .debug_ranges  0x000000c0       0x10 build/pic32mz_ef_sk_meb2/debug/_ext/1597685232/gfxu_image.o
 .debug_ranges  0x000000d0       0x20 build/pic32mz_ef_sk_meb2/debug/_ext/1597685232/gfxu_image_png_external.o
 .debug_ranges  0x000000f0       0x10 build/pic32mz_ef_sk_meb2/debug/_ext/1597685232/gfxu_image_png_internal.o
 .debug_ranges  0x00000100      0x1f8 build/pic32mz_ef_sk_meb2/debug/_ext/1597685232/gfxu_image_jpg_internal.o
 .debug_ranges  0x000002f8     0x1bb0 build/pic32mz_ef_sk_meb2/debug/_ext/493934858/lodepng.o
 .debug_ranges  0x00001ea8       0x40 build/pic32mz_ef_sk_meb2/debug/_ext/1597685232/gfxu_image_raw_external.o
 .debug_ranges  0x00001ee8       0x28 build/pic32mz_ef_sk_meb2/debug/_ext/1597685232/gfxu_image_raw_internal.o
 .debug_ranges  0x00001f10       0x90 build/pic32mz_ef_sk_meb2/debug/_ext/1597685232/gfxu_image_rle_external.o
 .debug_ranges  0x00001fa0       0x10 build/pic32mz_ef_sk_meb2/debug/_ext/1597685232/gfxu_image_rle_internal.o
 .debug_ranges  0x00001fb0       0x70 build/pic32mz_ef_sk_meb2/debug/_ext/1597685232/gfxu_image_utils.o
 .debug_ranges  0x00002020       0x10 build/pic32mz_ef_sk_meb2/debug/_ext/1597685232/gfxu_palette.o
 .debug_ranges  0x00002030       0x18 build/pic32mz_ef_sk_meb2/debug/_ext/1597685232/gfxu_string.o
 .debug_ranges  0x00002048       0xa8 build/pic32mz_ef_sk_meb2/debug/_ext/1597685232/gfxu_string_external.o
 .debug_ranges  0x000020f0       0x18 build/pic32mz_ef_sk_meb2/debug/_ext/1597685232/gfxu_string_internal.o
 .debug_ranges  0x00002108       0x58 build/pic32mz_ef_sk_meb2/debug/_ext/1597685232/gfxu_string_query.o
 .debug_ranges  0x00002160       0x88 build/pic32mz_ef_sk_meb2/debug/_ext/1597685232/gfxu_string_utils.o
 .debug_ranges  0x000021e8       0x20 build/pic32mz_ef_sk_meb2/debug/_ext/1907747181/libaria.o
 .debug_ranges  0x00002208       0xe8 build/pic32mz_ef_sk_meb2/debug/_ext/1907747181/libaria_context.o
 .debug_ranges  0x000022f0       0x18 build/pic32mz_ef_sk_meb2/debug/_ext/1907747181/libaria_context_paint.o
 .debug_ranges  0x00002308       0x28 build/pic32mz_ef_sk_meb2/debug/_ext/1907747181/libaria_draw.o
 .debug_ranges  0x00002330       0x88 build/pic32mz_ef_sk_meb2/debug/_ext/1907747181/libaria_editwidget.o
 .debug_ranges  0x000023b8       0x50 build/pic32mz_ef_sk_meb2/debug/_ext/1907747181/libaria_event.o
 .debug_ranges  0x00002408       0x50 build/pic32mz_ef_sk_meb2/debug/_ext/1907747181/libaria_input.o
 .debug_ranges  0x00002458       0x90 build/pic32mz_ef_sk_meb2/debug/_ext/1907747181/libaria_layer.o
 .debug_ranges  0x000024e8       0x70 build/pic32mz_ef_sk_meb2/debug/_ext/1907747181/libaria_list.o
 .debug_ranges  0x00002558       0x10 build/pic32mz_ef_sk_meb2/debug/_ext/1907747181/libaria_scheme.o
 .debug_ranges  0x00002568       0x70 build/pic32mz_ef_sk_meb2/debug/_ext/1907747181/libaria_screen.o
 .debug_ranges  0x000025d8      0x148 build/pic32mz_ef_sk_meb2/debug/_ext/1907747181/libaria_string.o
 .debug_ranges  0x00002720       0x98 build/pic32mz_ef_sk_meb2/debug/_ext/1907747181/libaria_utils.o
 .debug_ranges  0x000027b8      0x218 build/pic32mz_ef_sk_meb2/debug/_ext/1907747181/libaria_widget.o
 .debug_ranges  0x000029d0       0x20 build/pic32mz_ef_sk_meb2/debug/_ext/1907747181/libaria_widget_skin_classic.o
 .debug_ranges  0x000029f0       0xf8 build/pic32mz_ef_sk_meb2/debug/_ext/1907747181/libaria_widget_button.o
 .debug_ranges  0x00002ae8       0x40 build/pic32mz_ef_sk_meb2/debug/_ext/1907747181/libaria_widget_button_skin_classic.o
 .debug_ranges  0x00002b28       0xd8 build/pic32mz_ef_sk_meb2/debug/_ext/1907747181/libaria_widget_checkbox.o
 .debug_ranges  0x00002c00       0x48 build/pic32mz_ef_sk_meb2/debug/_ext/1907747181/libaria_widget_checkbox_skin_classic.o
 .debug_ranges  0x00002c48       0x40 build/pic32mz_ef_sk_meb2/debug/_ext/1907747181/libaria_widget_circle.o
 .debug_ranges  0x00002c88       0x28 build/pic32mz_ef_sk_meb2/debug/_ext/1907747181/libaria_widget_circle_skin_classic.o
 .debug_ranges  0x00002cb0       0x30 build/pic32mz_ef_sk_meb2/debug/_ext/1907747181/libaria_widget_drawsurface.o
 .debug_ranges  0x00002ce0       0x28 build/pic32mz_ef_sk_meb2/debug/_ext/1907747181/libaria_widget_drawsurface_skin_classic.o
 .debug_ranges  0x00002d08       0x30 build/pic32mz_ef_sk_meb2/debug/_ext/1907747181/libaria_widget_gradient.o
 .debug_ranges  0x00002d38       0x20 build/pic32mz_ef_sk_meb2/debug/_ext/1907747181/libaria_widget_gradient_skin_classic.o
 .debug_ranges  0x00002d58       0x40 build/pic32mz_ef_sk_meb2/debug/_ext/1907747181/libaria_widget_groupbox.o
 .debug_ranges  0x00002d98       0x38 build/pic32mz_ef_sk_meb2/debug/_ext/1907747181/libaria_widget_groupbox_skin_classic.o
 .debug_ranges  0x00002dd0       0x50 build/pic32mz_ef_sk_meb2/debug/_ext/1907747181/libaria_widget_image.o
 .debug_ranges  0x00002e20       0x30 build/pic32mz_ef_sk_meb2/debug/_ext/1907747181/libaria_widget_image_skin_classic.o
 .debug_ranges  0x00002e50       0xd0 build/pic32mz_ef_sk_meb2/debug/_ext/1907747181/libaria_widget_imagesequence.o
 .debug_ranges  0x00002f20       0x30 build/pic32mz_ef_sk_meb2/debug/_ext/1907747181/libaria_widget_imagesequence_skin_classic.o
 .debug_ranges  0x00002f50       0xe0 build/pic32mz_ef_sk_meb2/debug/_ext/1907747181/libaria_widget_keypad.o
 .debug_ranges  0x00003030       0x20 build/pic32mz_ef_sk_meb2/debug/_ext/1907747181/libaria_widget_keypad_skin_classic.o
 .debug_ranges  0x00003050       0x50 build/pic32mz_ef_sk_meb2/debug/_ext/1907747181/libaria_widget_label.o
 .debug_ranges  0x000030a0       0x30 build/pic32mz_ef_sk_meb2/debug/_ext/1907747181/libaria_widget_label_skin_classic.o
 .debug_ranges  0x000030d0       0x40 build/pic32mz_ef_sk_meb2/debug/_ext/1907747181/libaria_widget_line.o
 .debug_ranges  0x00003110       0x28 build/pic32mz_ef_sk_meb2/debug/_ext/1907747181/libaria_widget_line_skin_classic.o
 .debug_ranges  0x00003138      0x160 build/pic32mz_ef_sk_meb2/debug/_ext/1907747181/libaria_widget_list.o
 .debug_ranges  0x00003298       0x48 build/pic32mz_ef_sk_meb2/debug/_ext/1907747181/libaria_widget_list_skin_classic.o
 .debug_ranges  0x000032e0       0xe0 build/pic32mz_ef_sk_meb2/debug/_ext/1907747181/libaria_widget_listwheel.o
 .debug_ranges  0x000033c0       0x48 build/pic32mz_ef_sk_meb2/debug/_ext/1907747181/libaria_widget_listwheel_skin_classic.o
 .debug_ranges  0x00003408       0x50 build/pic32mz_ef_sk_meb2/debug/_ext/1907747181/libaria_widget_progressbar.o
 .debug_ranges  0x00003458       0x28 build/pic32mz_ef_sk_meb2/debug/_ext/1907747181/libaria_widget_progressbar_skin_classic.o
 .debug_ranges  0x00003480       0xf0 build/pic32mz_ef_sk_meb2/debug/_ext/1907747181/libaria_widget_radiobutton.o
 .debug_ranges  0x00003570       0x48 build/pic32mz_ef_sk_meb2/debug/_ext/1907747181/libaria_widget_radiobutton_skin_classic.o
 .debug_ranges  0x000035b8       0x30 build/pic32mz_ef_sk_meb2/debug/_ext/1907747181/libaria_radiobutton_group.o
 .debug_ranges  0x000035e8       0x30 build/pic32mz_ef_sk_meb2/debug/_ext/1907747181/libaria_widget_rectangle.o
 .debug_ranges  0x00003618       0x28 build/pic32mz_ef_sk_meb2/debug/_ext/1907747181/libaria_widget_rectangle_skin_classic.o
 .debug_ranges  0x00003640       0xf8 build/pic32mz_ef_sk_meb2/debug/_ext/1907747181/libaria_widget_scrollbar.o
 .debug_ranges  0x00003738       0x30 build/pic32mz_ef_sk_meb2/debug/_ext/1907747181/libaria_widget_scrollbar_skin_classic.o
 .debug_ranges  0x00003768       0xd8 build/pic32mz_ef_sk_meb2/debug/_ext/1907747181/libaria_widget_slider.o
 .debug_ranges  0x00003840       0x28 build/pic32mz_ef_sk_meb2/debug/_ext/1907747181/libaria_widget_slider_skin_classic.o
 .debug_ranges  0x00003868       0xe8 build/pic32mz_ef_sk_meb2/debug/_ext/1907747181/libaria_widget_textfield.o
 .debug_ranges  0x00003950       0x38 build/pic32mz_ef_sk_meb2/debug/_ext/1907747181/libaria_widget_textfield_skin_classic.o
 .debug_ranges  0x00003988       0x58 build/pic32mz_ef_sk_meb2/debug/_ext/1907747181/libaria_widget_touchtest.o
 .debug_ranges  0x000039e0       0x28 build/pic32mz_ef_sk_meb2/debug/_ext/1907747181/libaria_widget_touchtest_skin_classic.o
 .debug_ranges  0x00003a08       0x50 build/pic32mz_ef_sk_meb2/debug/_ext/1907747181/libaria_widget_window.o
 .debug_ranges  0x00003a58       0x48 build/pic32mz_ef_sk_meb2/debug/_ext/1907747181/libaria_widget_window_skin_classic.o
 .debug_ranges  0x00003aa0       0x78 build/pic32mz_ef_sk_meb2/debug/_ext/1847583374/gfx.o
 .debug_ranges  0x00003b18       0x30 build/pic32mz_ef_sk_meb2/debug/_ext/1847583374/gfx_color.o
 .debug_ranges  0x00003b48       0x20 build/pic32mz_ef_sk_meb2/debug/_ext/1847583374/gfx_context.o
 .debug_ranges  0x00003b68      0x2a8 build/pic32mz_ef_sk_meb2/debug/_ext/1847583374/gfx_default_impl.o
 .debug_ranges  0x00003e10       0x10 build/pic32mz_ef_sk_meb2/debug/_ext/1847583374/gfx_display.o
 .debug_ranges  0x00003e20       0x20 build/pic32mz_ef_sk_meb2/debug/_ext/1847583374/gfx_driver_interface.o
 .debug_ranges  0x00003e40      0x150 build/pic32mz_ef_sk_meb2/debug/_ext/1847583374/gfx_get.o
 .debug_ranges  0x00003f90       0x30 build/pic32mz_ef_sk_meb2/debug/_ext/1847583374/gfx_layer.o
 .debug_ranges  0x00003fc0       0xb0 build/pic32mz_ef_sk_meb2/debug/_ext/1847583374/gfx_pixel_buffer.o
 .debug_ranges  0x00004070       0x28 build/pic32mz_ef_sk_meb2/debug/_ext/1847583374/gfx_rect.o
 .debug_ranges  0x00004098       0x50 build/pic32mz_ef_sk_meb2/debug/_ext/1847583374/gfx_util.o
 .debug_ranges  0x000040e8      0x128 build/pic32mz_ef_sk_meb2/debug/_ext/1847583374/gfx_set.o
 .debug_ranges  0x00004210       0x90 build/pic32mz_ef_sk_meb2/debug/_ext/1847583374/gfx_color_blend.o
 .debug_ranges  0x000042a0      0x1f8 build/pic32mz_ef_sk_meb2/debug/_ext/1847583374/gfx_color_convert.o
 .debug_ranges  0x00004498       0x48 build/pic32mz_ef_sk_meb2/debug/_ext/1847583374/gfx_color_lerp.o
 .debug_ranges  0x000044e0       0x10 build/pic32mz_ef_sk_meb2/debug/_ext/1847583374/gfx_color_value.o
 .debug_ranges  0x000044f0       0x30 build/pic32mz_ef_sk_meb2/debug/_ext/1847583374/gfx_draw_blit.o
 .debug_ranges  0x00004520       0x10 build/pic32mz_ef_sk_meb2/debug/_ext/1847583374/gfx_draw_circle.o
 .debug_ranges  0x00004530       0x40 build/pic32mz_ef_sk_meb2/debug/_ext/1847583374/gfx_draw_line.o
 .debug_ranges  0x00004570       0x18 build/pic32mz_ef_sk_meb2/debug/_ext/1847583374/gfx_draw_pixel.o
 .debug_ranges  0x00004588       0x50 build/pic32mz_ef_sk_meb2/debug/_ext/1847583374/gfx_draw_rect.o
 .debug_ranges  0x000045d8       0x68 build/pic32mz_ef_sk_meb2/debug/_ext/1847583374/gfx_math.o
 .debug_ranges  0x00004640      0x1c8 build/pic32mz_ef_sk_meb2/debug/_ext/853959373/sys_dma.o
 .debug_ranges  0x00004808       0x50 build/pic32mz_ef_sk_meb2/debug/_ext/1042686532/sys_int_pic32.o
 .debug_ranges  0x00004858       0x88 build/pic32mz_ef_sk_meb2/debug/_ext/1219754583/drv_i2c_static_buffer_model.o
 .debug_ranges  0x000048e0       0x50 build/pic32mz_ef_sk_meb2/debug/_ext/1219754583/drv_i2c_mapping.o
 .debug_ranges  0x00004930       0xd8 build/pic32mz_ef_sk_meb2/debug/_ext/199634090/drv_tmr_static.o
 .debug_ranges  0x00004a08       0xd8 build/pic32mz_ef_sk_meb2/debug/_ext/199634090/drv_tmr_mapping.o
 .debug_ranges  0x00004ae0       0x80 build/pic32mz_ef_sk_meb2/debug/_ext/713288229/drv_gfx_lcc_generic.o
 .debug_ranges  0x00004b60       0x18 build/pic32mz_ef_sk_meb2/debug/_ext/1740298103/libaria_harmony.o
 .debug_ranges  0x00004b78       0x18 build/pic32mz_ef_sk_meb2/debug/_ext/1740298103/libaria_init.o
 .debug_ranges  0x00004b90       0x10 build/pic32mz_ef_sk_meb2/debug/_ext/477038478/gfx_driver_def.o
 .debug_ranges  0x00004ba0       0x78 build/pic32mz_ef_sk_meb2/debug/_ext/1847413222/sys_clk.o
 .debug_ranges  0x00004c18      0x108 build/pic32mz_ef_sk_meb2/debug/_ext/1847413222/sys_clk_pic32mz.o
 .debug_ranges  0x00004d20       0x68 build/pic32mz_ef_sk_meb2/debug/_ext/924081491/sys_devcon.o
 .debug_ranges  0x00004d88       0xd8 build/pic32mz_ef_sk_meb2/debug/_ext/924081491/sys_devcon_pic32mz.o
 .debug_ranges  0x00004e60       0xf8 build/pic32mz_ef_sk_meb2/debug/_ext/50030870/sys_ports_static.o
 .debug_ranges  0x00004f58       0x58 build/pic32mz_ef_sk_meb2/debug/_ext/1465531745/bsp.o
 .debug_ranges  0x00004fb0       0x10 build/pic32mz_ef_sk_meb2/debug/_ext/1951523377/system_init.o
 .debug_ranges  0x00004fc0       0x28 build/pic32mz_ef_sk_meb2/debug/_ext/1951523377/system_interrupt.o
 .debug_ranges  0x00004fe8       0x10 build/pic32mz_ef_sk_meb2/debug/_ext/1951523377/system_exceptions.o
 .debug_ranges  0x00004ff8       0x10 build/pic32mz_ef_sk_meb2/debug/_ext/1951523377/system_tasks.o
 .debug_ranges  0x00005008       0x10 c:/program files (x86)/microchip/xc32/v1.42/bin/bin/../../lib/gcc/pic32mx/4.8.3/../../../../pic32mx/lib\libpic32.a(default-bootstrap-exception-handler.o)
 .debug_ranges  0x00005018       0x10 c:/program files (x86)/microchip/xc32/v1.42/bin/bin/../../lib/gcc/pic32mx/4.8.3/../../../../pic32mx/lib\libpic32.a(default-on-reset.o)
 .debug_ranges  0x00005028       0x10 c:/program files (x86)/microchip/xc32/v1.42/bin/bin/../../lib/gcc/pic32mx/4.8.3/../../../../pic32mx/lib\libpic32.a(default-on-bootstrap.o)
 .debug_ranges  0x00005038       0x10 c:/program files (x86)/microchip/xc32/v1.42/bin/bin/../../lib/gcc/pic32mx/4.8.3/../../../../pic32mx/lib\libpic32.a(defaultinterrupt.o)
 .debug_ranges  0x00005048       0x10 c:/program files (x86)/microchip/xc32/v1.42/bin/bin/../../lib/gcc/pic32mx/4.8.3/../../../../pic32mx/lib\libpic32.a(default-cache-err-exception-handler.o)
 .debug_ranges  0x00005058       0x10 c:/program files (x86)/microchip/xc32/v1.42/bin/bin/../../lib/gcc/pic32mx/4.8.3/../../../../pic32mx/lib\libpic32.a(default-simple-tlb-refill-exception-handler.o)
 .debug_ranges  0x00005068       0x10 c:/program files (x86)/microchip/xc32/v1.42/bin/bin/../../lib/gcc/pic32mx/4.8.3/../../../../pic32mx/lib\libc.a(fclose.o)
 .debug_ranges  0x00005078       0x10 c:/program files (x86)/microchip/xc32/v1.42/bin/bin/../../lib/gcc/pic32mx/4.8.3/../../../../pic32mx/lib\libc.a(fflush.o)
 .debug_ranges  0x00005088       0x10 c:/program files (x86)/microchip/xc32/v1.42/bin/bin/../../lib/gcc/pic32mx/4.8.3/../../../../pic32mx/lib\libc.a(fopen.o)
 .debug_ranges  0x00005098       0x10 c:/program files (x86)/microchip/xc32/v1.42/bin/bin/../../lib/gcc/pic32mx/4.8.3/../../../../pic32mx/lib\libc.a(fread.o)
 .debug_ranges  0x000050a8       0x10 c:/program files (x86)/microchip/xc32/v1.42/bin/bin/../../lib/gcc/pic32mx/4.8.3/../../../../pic32mx/lib\libc.a(freopen.o)
 .debug_ranges  0x000050b8       0x18 c:/program files (x86)/microchip/xc32/v1.42/bin/bin/../../lib/gcc/pic32mx/4.8.3/../../../../pic32mx/lib\libc.a(fseek.o)
 .debug_ranges  0x000050d0       0x10 c:/program files (x86)/microchip/xc32/v1.42/bin/bin/../../lib/gcc/pic32mx/4.8.3/../../../../pic32mx/lib\libc.a(fwrite.o)
 .debug_ranges  0x000050e0       0x18 c:/program files (x86)/microchip/xc32/v1.42/bin/bin/../../lib/gcc/pic32mx/4.8.3/../../../../pic32mx/lib\libc.a(buf.o)
 .debug_ranges  0x000050f8       0x10 c:/program files (x86)/microchip/xc32/v1.42/bin/bin/../../lib/gcc/pic32mx/4.8.3/../../../../pic32mx/lib\libc.a(calloc.o)
 .debug_ranges  0x00005108       0x20 c:/program files (x86)/microchip/xc32/v1.42/bin/bin/../../lib/gcc/pic32mx/4.8.3/../../../../pic32mx/lib\libc.a(malloc.o)
 .debug_ranges  0x00005128       0x10 c:/program files (x86)/microchip/xc32/v1.42/bin/bin/../../lib/gcc/pic32mx/4.8.3/../../../../pic32mx/lib\libc.a(fgetc.o)
 .debug_ranges  0x00005138       0x10 c:/program files (x86)/microchip/xc32/v1.42/bin/bin/../../lib/gcc/pic32mx/4.8.3/../../../../pic32mx/lib\libc.a(_fputc_simple.o)
 .debug_ranges  0x00005148       0x10 c:/program files (x86)/microchip/xc32/v1.42/bin/bin/../../lib/gcc/pic32mx/4.8.3/../../../../pic32mx/lib\libc.a(filbuf.o)
 .debug_ranges  0x00005158       0x10 c:/program files (x86)/microchip/xc32/v1.42/bin/bin/../../lib/gcc/pic32mx/4.8.3/../../../../pic32mx/lib\libc.a(_flsbuf_simple.o)
 .debug_ranges  0x00005168       0x30 c:/program files (x86)/microchip/xc32/v1.42/bin/bin/../../lib/gcc/pic32mx/4.8.3/../../../../pic32mx/lib\libpic32.a(sbrk.o)
 .debug_ranges  0x00005198       0x10 c:/program files (x86)/microchip/xc32/v1.42/bin/bin/../../lib/gcc/pic32mx/4.8.3/../../../../pic32mx/lib\libpic32.a(read.o)
 .debug_ranges  0x000051a8       0x10 c:/program files (x86)/microchip/xc32/v1.42/bin/bin/../../lib/gcc/pic32mx/4.8.3/../../../../pic32mx/lib\libpic32.a(write.o)
 .debug_ranges  0x000051b8       0x10 c:/program files (x86)/microchip/xc32/v1.42/bin/bin/../../lib/gcc/pic32mx/4.8.3/../../../../pic32mx/lib\libpic32.a(lseek.o)
 .debug_ranges  0x000051c8       0x10 c:/program files (x86)/microchip/xc32/v1.42/bin/bin/../../lib/gcc/pic32mx/4.8.3/../../../../pic32mx/lib\libpic32.a(remove.o)
 .debug_ranges  0x000051d8       0x10 c:/program files (x86)/microchip/xc32/v1.42/bin/bin/../../lib/gcc/pic32mx/4.8.3/../../../../pic32mx/lib\libpic32.a(close.o)
 .debug_ranges  0x000051e8       0x10 c:/program files (x86)/microchip/xc32/v1.42/bin/bin/../../lib/gcc/pic32mx/4.8.3/../../../../pic32mx/lib\libpic32.a(open.o)
 .debug_ranges  0x000051f8       0x10 c:/program files (x86)/microchip/xc32/v1.42/bin/bin/../../lib/gcc/pic32mx/4.8.3/../../../../pic32mx/lib\libpic32.a(_mon_putc.o)

.gnu.attributes
                0x00000000       0x10
 *(.gnu.attributes)
 .gnu.attributes
                0x00000000       0x10 c:/program files (x86)/microchip/xc32/v1.42/bin/bin/../../lib/gcc/pic32mx/4.8.3/../../../../pic32mx/lib\software-debug-break.o
 .gnu.attributes
                0x00000010       0x10 build/pic32mz_ef_sk_meb2/debug/_ext/1360937237/app.o
 .gnu.attributes
                0x00000020       0x10 build/pic32mz_ef_sk_meb2/debug/_ext/1360937237/main.o
 .gnu.attributes
                0x00000030       0x10 build/pic32mz_ef_sk_meb2/debug/_ext/1360937237/ov2640.o
 .gnu.attributes
                0x00000040       0x10 build/pic32mz_ef_sk_meb2/debug/_ext/1360937237/i2c_master_noint.o
 .gnu.attributes
                0x00000050       0x10 build/pic32mz_ef_sk_meb2/debug/_ext/426253641/jidctint.o
 .gnu.attributes
                0x00000060       0x10 build/pic32mz_ef_sk_meb2/debug/_ext/1597685232/gfxu_image.o
 .gnu.attributes
                0x00000070       0x10 build/pic32mz_ef_sk_meb2/debug/_ext/1597685232/gfxu_image_png_external.o
 .gnu.attributes
                0x00000080       0x10 build/pic32mz_ef_sk_meb2/debug/_ext/1597685232/gfxu_image_png_internal.o
 .gnu.attributes
                0x00000090       0x10 build/pic32mz_ef_sk_meb2/debug/_ext/1597685232/gfxu_image_jpg_internal.o
 .gnu.attributes
                0x000000a0       0x10 build/pic32mz_ef_sk_meb2/debug/_ext/493934858/lodepng.o
 .gnu.attributes
                0x000000b0       0x10 build/pic32mz_ef_sk_meb2/debug/_ext/1597685232/gfxu_image_raw_external.o
 .gnu.attributes
                0x000000c0       0x10 build/pic32mz_ef_sk_meb2/debug/_ext/1597685232/gfxu_image_raw_internal.o
 .gnu.attributes
                0x000000d0       0x10 build/pic32mz_ef_sk_meb2/debug/_ext/1597685232/gfxu_image_rle_external.o
 .gnu.attributes
                0x000000e0       0x10 build/pic32mz_ef_sk_meb2/debug/_ext/1597685232/gfxu_image_rle_internal.o
 .gnu.attributes
                0x000000f0       0x10 build/pic32mz_ef_sk_meb2/debug/_ext/1597685232/gfxu_image_utils.o
 .gnu.attributes
                0x00000100       0x10 build/pic32mz_ef_sk_meb2/debug/_ext/1597685232/gfxu_palette.o
 .gnu.attributes
                0x00000110       0x10 build/pic32mz_ef_sk_meb2/debug/_ext/1597685232/gfxu_string.o
 .gnu.attributes
                0x00000120       0x10 build/pic32mz_ef_sk_meb2/debug/_ext/1597685232/gfxu_string_external.o
 .gnu.attributes
                0x00000130       0x10 build/pic32mz_ef_sk_meb2/debug/_ext/1597685232/gfxu_string_internal.o
 .gnu.attributes
                0x00000140       0x10 build/pic32mz_ef_sk_meb2/debug/_ext/1597685232/gfxu_string_query.o
 .gnu.attributes
                0x00000150       0x10 build/pic32mz_ef_sk_meb2/debug/_ext/1597685232/gfxu_string_utils.o
 .gnu.attributes
                0x00000160       0x10 build/pic32mz_ef_sk_meb2/debug/_ext/1907747181/libaria.o
 .gnu.attributes
                0x00000170       0x10 build/pic32mz_ef_sk_meb2/debug/_ext/1907747181/libaria_context.o
 .gnu.attributes
                0x00000180       0x10 build/pic32mz_ef_sk_meb2/debug/_ext/1907747181/libaria_context_paint.o
 .gnu.attributes
                0x00000190       0x10 build/pic32mz_ef_sk_meb2/debug/_ext/1907747181/libaria_draw.o
 .gnu.attributes
                0x000001a0       0x10 build/pic32mz_ef_sk_meb2/debug/_ext/1907747181/libaria_editwidget.o
 .gnu.attributes
                0x000001b0       0x10 build/pic32mz_ef_sk_meb2/debug/_ext/1907747181/libaria_event.o
 .gnu.attributes
                0x000001c0       0x10 build/pic32mz_ef_sk_meb2/debug/_ext/1907747181/libaria_input.o
 .gnu.attributes
                0x000001d0       0x10 build/pic32mz_ef_sk_meb2/debug/_ext/1907747181/libaria_layer.o
 .gnu.attributes
                0x000001e0       0x10 build/pic32mz_ef_sk_meb2/debug/_ext/1907747181/libaria_list.o
 .gnu.attributes
                0x000001f0       0x10 build/pic32mz_ef_sk_meb2/debug/_ext/1907747181/libaria_scheme.o
 .gnu.attributes
                0x00000200       0x10 build/pic32mz_ef_sk_meb2/debug/_ext/1907747181/libaria_screen.o
 .gnu.attributes
                0x00000210       0x10 build/pic32mz_ef_sk_meb2/debug/_ext/1907747181/libaria_string.o
 .gnu.attributes
                0x00000220       0x10 build/pic32mz_ef_sk_meb2/debug/_ext/1907747181/libaria_utils.o
 .gnu.attributes
                0x00000230       0x10 build/pic32mz_ef_sk_meb2/debug/_ext/1907747181/libaria_widget.o
 .gnu.attributes
                0x00000240       0x10 build/pic32mz_ef_sk_meb2/debug/_ext/1907747181/libaria_widget_skin_classic.o
 .gnu.attributes
                0x00000250       0x10 build/pic32mz_ef_sk_meb2/debug/_ext/1907747181/libaria_widget_button.o
 .gnu.attributes
                0x00000260       0x10 build/pic32mz_ef_sk_meb2/debug/_ext/1907747181/libaria_widget_button_skin_classic.o
 .gnu.attributes
                0x00000270       0x10 build/pic32mz_ef_sk_meb2/debug/_ext/1907747181/libaria_widget_checkbox.o
 .gnu.attributes
                0x00000280       0x10 build/pic32mz_ef_sk_meb2/debug/_ext/1907747181/libaria_widget_checkbox_skin_classic.o
 .gnu.attributes
                0x00000290       0x10 build/pic32mz_ef_sk_meb2/debug/_ext/1907747181/libaria_widget_circle.o
 .gnu.attributes
                0x000002a0       0x10 build/pic32mz_ef_sk_meb2/debug/_ext/1907747181/libaria_widget_circle_skin_classic.o
 .gnu.attributes
                0x000002b0       0x10 build/pic32mz_ef_sk_meb2/debug/_ext/1907747181/libaria_widget_drawsurface.o
 .gnu.attributes
                0x000002c0       0x10 build/pic32mz_ef_sk_meb2/debug/_ext/1907747181/libaria_widget_drawsurface_skin_classic.o
 .gnu.attributes
                0x000002d0       0x10 build/pic32mz_ef_sk_meb2/debug/_ext/1907747181/libaria_widget_gradient.o
 .gnu.attributes
                0x000002e0       0x10 build/pic32mz_ef_sk_meb2/debug/_ext/1907747181/libaria_widget_gradient_skin_classic.o
 .gnu.attributes
                0x000002f0       0x10 build/pic32mz_ef_sk_meb2/debug/_ext/1907747181/libaria_widget_groupbox.o
 .gnu.attributes
                0x00000300       0x10 build/pic32mz_ef_sk_meb2/debug/_ext/1907747181/libaria_widget_groupbox_skin_classic.o
 .gnu.attributes
                0x00000310       0x10 build/pic32mz_ef_sk_meb2/debug/_ext/1907747181/libaria_widget_image.o
 .gnu.attributes
                0x00000320       0x10 build/pic32mz_ef_sk_meb2/debug/_ext/1907747181/libaria_widget_image_skin_classic.o
 .gnu.attributes
                0x00000330       0x10 build/pic32mz_ef_sk_meb2/debug/_ext/1907747181/libaria_widget_imagesequence.o
 .gnu.attributes
                0x00000340       0x10 build/pic32mz_ef_sk_meb2/debug/_ext/1907747181/libaria_widget_imagesequence_skin_classic.o
 .gnu.attributes
                0x00000350       0x10 build/pic32mz_ef_sk_meb2/debug/_ext/1907747181/libaria_widget_keypad.o
 .gnu.attributes
                0x00000360       0x10 build/pic32mz_ef_sk_meb2/debug/_ext/1907747181/libaria_widget_keypad_skin_classic.o
 .gnu.attributes
                0x00000370       0x10 build/pic32mz_ef_sk_meb2/debug/_ext/1907747181/libaria_widget_label.o
 .gnu.attributes
                0x00000380       0x10 build/pic32mz_ef_sk_meb2/debug/_ext/1907747181/libaria_widget_label_skin_classic.o
 .gnu.attributes
                0x00000390       0x10 build/pic32mz_ef_sk_meb2/debug/_ext/1907747181/libaria_widget_line.o
 .gnu.attributes
                0x000003a0       0x10 build/pic32mz_ef_sk_meb2/debug/_ext/1907747181/libaria_widget_line_skin_classic.o
 .gnu.attributes
                0x000003b0       0x10 build/pic32mz_ef_sk_meb2/debug/_ext/1907747181/libaria_widget_list.o
 .gnu.attributes
                0x000003c0       0x10 build/pic32mz_ef_sk_meb2/debug/_ext/1907747181/libaria_widget_list_skin_classic.o
 .gnu.attributes
                0x000003d0       0x10 build/pic32mz_ef_sk_meb2/debug/_ext/1907747181/libaria_widget_listwheel.o
 .gnu.attributes
                0x000003e0       0x10 build/pic32mz_ef_sk_meb2/debug/_ext/1907747181/libaria_widget_listwheel_skin_classic.o
 .gnu.attributes
                0x000003f0       0x10 build/pic32mz_ef_sk_meb2/debug/_ext/1907747181/libaria_widget_progressbar.o
 .gnu.attributes
                0x00000400       0x10 build/pic32mz_ef_sk_meb2/debug/_ext/1907747181/libaria_widget_progressbar_skin_classic.o
 .gnu.attributes
                0x00000410       0x10 build/pic32mz_ef_sk_meb2/debug/_ext/1907747181/libaria_widget_radiobutton.o
 .gnu.attributes
                0x00000420       0x10 build/pic32mz_ef_sk_meb2/debug/_ext/1907747181/libaria_widget_radiobutton_skin_classic.o
 .gnu.attributes
                0x00000430       0x10 build/pic32mz_ef_sk_meb2/debug/_ext/1907747181/libaria_radiobutton_group.o
 .gnu.attributes
                0x00000440       0x10 build/pic32mz_ef_sk_meb2/debug/_ext/1907747181/libaria_widget_rectangle.o
 .gnu.attributes
                0x00000450       0x10 build/pic32mz_ef_sk_meb2/debug/_ext/1907747181/libaria_widget_rectangle_skin_classic.o
 .gnu.attributes
                0x00000460       0x10 build/pic32mz_ef_sk_meb2/debug/_ext/1907747181/libaria_widget_scrollbar.o
 .gnu.attributes
                0x00000470       0x10 build/pic32mz_ef_sk_meb2/debug/_ext/1907747181/libaria_widget_scrollbar_skin_classic.o
 .gnu.attributes
                0x00000480       0x10 build/pic32mz_ef_sk_meb2/debug/_ext/1907747181/libaria_widget_slider.o
 .gnu.attributes
                0x00000490       0x10 build/pic32mz_ef_sk_meb2/debug/_ext/1907747181/libaria_widget_slider_skin_classic.o
 .gnu.attributes
                0x000004a0       0x10 build/pic32mz_ef_sk_meb2/debug/_ext/1907747181/libaria_widget_textfield.o
 .gnu.attributes
                0x000004b0       0x10 build/pic32mz_ef_sk_meb2/debug/_ext/1907747181/libaria_widget_textfield_skin_classic.o
 .gnu.attributes
                0x000004c0       0x10 build/pic32mz_ef_sk_meb2/debug/_ext/1907747181/libaria_widget_touchtest.o
 .gnu.attributes
                0x000004d0       0x10 build/pic32mz_ef_sk_meb2/debug/_ext/1907747181/libaria_widget_touchtest_skin_classic.o
 .gnu.attributes
                0x000004e0       0x10 build/pic32mz_ef_sk_meb2/debug/_ext/1907747181/libaria_widget_window.o
 .gnu.attributes
                0x000004f0       0x10 build/pic32mz_ef_sk_meb2/debug/_ext/1907747181/libaria_widget_window_skin_classic.o
 .gnu.attributes
                0x00000500       0x10 build/pic32mz_ef_sk_meb2/debug/_ext/1847583374/gfx.o
 .gnu.attributes
                0x00000510       0x10 build/pic32mz_ef_sk_meb2/debug/_ext/1847583374/gfx_color.o
 .gnu.attributes
                0x00000520       0x10 build/pic32mz_ef_sk_meb2/debug/_ext/1847583374/gfx_context.o
 .gnu.attributes
                0x00000530       0x10 build/pic32mz_ef_sk_meb2/debug/_ext/1847583374/gfx_default_impl.o
 .gnu.attributes
                0x00000540       0x10 build/pic32mz_ef_sk_meb2/debug/_ext/1847583374/gfx_display.o
 .gnu.attributes
                0x00000550       0x10 build/pic32mz_ef_sk_meb2/debug/_ext/1847583374/gfx_driver_interface.o
 .gnu.attributes
                0x00000560       0x10 build/pic32mz_ef_sk_meb2/debug/_ext/1847583374/gfx_get.o
 .gnu.attributes
                0x00000570       0x10 build/pic32mz_ef_sk_meb2/debug/_ext/1847583374/gfx_interface.o
 .gnu.attributes
                0x00000580       0x10 build/pic32mz_ef_sk_meb2/debug/_ext/1847583374/gfx_layer.o
 .gnu.attributes
                0x00000590       0x10 build/pic32mz_ef_sk_meb2/debug/_ext/1847583374/gfx_pixel_buffer.o
 .gnu.attributes
                0x000005a0       0x10 build/pic32mz_ef_sk_meb2/debug/_ext/1847583374/gfx_rect.o
 .gnu.attributes
                0x000005b0       0x10 build/pic32mz_ef_sk_meb2/debug/_ext/1847583374/gfx_util.o
 .gnu.attributes
                0x000005c0       0x10 build/pic32mz_ef_sk_meb2/debug/_ext/1847583374/gfx_set.o
 .gnu.attributes
                0x000005d0       0x10 build/pic32mz_ef_sk_meb2/debug/_ext/1847583374/gfx_color_blend.o
 .gnu.attributes
                0x000005e0       0x10 build/pic32mz_ef_sk_meb2/debug/_ext/1847583374/gfx_color_convert.o
 .gnu.attributes
                0x000005f0       0x10 build/pic32mz_ef_sk_meb2/debug/_ext/1847583374/gfx_color_lerp.o
 .gnu.attributes
                0x00000600       0x10 build/pic32mz_ef_sk_meb2/debug/_ext/1847583374/gfx_color_value.o
 .gnu.attributes
                0x00000610       0x10 build/pic32mz_ef_sk_meb2/debug/_ext/1847583374/gfx_draw_blit.o
 .gnu.attributes
                0x00000620       0x10 build/pic32mz_ef_sk_meb2/debug/_ext/1847583374/gfx_draw_circle.o
 .gnu.attributes
                0x00000630       0x10 build/pic32mz_ef_sk_meb2/debug/_ext/1847583374/gfx_draw_line.o
 .gnu.attributes
                0x00000640       0x10 build/pic32mz_ef_sk_meb2/debug/_ext/1847583374/gfx_draw_pixel.o
 .gnu.attributes
                0x00000650       0x10 build/pic32mz_ef_sk_meb2/debug/_ext/1847583374/gfx_draw_rect.o
 .gnu.attributes
                0x00000660       0x10 build/pic32mz_ef_sk_meb2/debug/_ext/1847583374/gfx_math.o
 .gnu.attributes
                0x00000670       0x10 build/pic32mz_ef_sk_meb2/debug/_ext/853959373/sys_dma.o
 .gnu.attributes
                0x00000680       0x10 build/pic32mz_ef_sk_meb2/debug/_ext/1042686532/sys_int_pic32.o
 .gnu.attributes
                0x00000690       0x10 build/pic32mz_ef_sk_meb2/debug/_ext/1219754583/drv_i2c_static_buffer_model.o
 .gnu.attributes
                0x000006a0       0x10 build/pic32mz_ef_sk_meb2/debug/_ext/1219754583/drv_i2c_mapping.o
 .gnu.attributes
                0x000006b0       0x10 build/pic32mz_ef_sk_meb2/debug/_ext/199634090/drv_tmr_static.o
 .gnu.attributes
                0x000006c0       0x10 build/pic32mz_ef_sk_meb2/debug/_ext/199634090/drv_tmr_mapping.o
 .gnu.attributes
                0x000006d0       0x10 build/pic32mz_ef_sk_meb2/debug/_ext/713288229/drv_gfx_lcc_generic.o
 .gnu.attributes
                0x000006e0       0x10 build/pic32mz_ef_sk_meb2/debug/_ext/1740298103/libaria_harmony.o
 .gnu.attributes
                0x000006f0       0x10 build/pic32mz_ef_sk_meb2/debug/_ext/1740298103/libaria_init.o
 .gnu.attributes
                0x00000700       0x10 build/pic32mz_ef_sk_meb2/debug/_ext/1740298103/libaria_events.o
 .gnu.attributes
                0x00000710       0x10 build/pic32mz_ef_sk_meb2/debug/_ext/1740298103/libaria_macros.o
 .gnu.attributes
                0x00000720       0x10 build/pic32mz_ef_sk_meb2/debug/_ext/477038478/gfx_display_def.o
 .gnu.attributes
                0x00000730       0x10 build/pic32mz_ef_sk_meb2/debug/_ext/477038478/gfx_driver_def.o
 .gnu.attributes
                0x00000740       0x10 build/pic32mz_ef_sk_meb2/debug/_ext/1847413222/sys_clk.o
 .gnu.attributes
                0x00000750       0x10 build/pic32mz_ef_sk_meb2/debug/_ext/1847413222/sys_clk_pic32mz.o
 .gnu.attributes
                0x00000760       0x10 build/pic32mz_ef_sk_meb2/debug/_ext/924081491/sys_devcon.o
 .gnu.attributes
                0x00000770       0x10 build/pic32mz_ef_sk_meb2/debug/_ext/924081491/sys_devcon_pic32mz.o
 .gnu.attributes
                0x00000780       0x10 build/pic32mz_ef_sk_meb2/debug/_ext/50030870/sys_ports_static.o
 .gnu.attributes
                0x00000790       0x10 build/pic32mz_ef_sk_meb2/debug/_ext/1465531745/bsp.o
 .gnu.attributes
                0x000007a0       0x10 build/pic32mz_ef_sk_meb2/debug/_ext/1951523377/system_init.o
 .gnu.attributes
                0x000007b0       0x10 build/pic32mz_ef_sk_meb2/debug/_ext/1951523377/system_interrupt.o
 .gnu.attributes
                0x000007c0       0x10 build/pic32mz_ef_sk_meb2/debug/_ext/1951523377/system_exceptions.o
 .gnu.attributes
                0x000007d0       0x10 build/pic32mz_ef_sk_meb2/debug/_ext/1951523377/system_tasks.o
 .gnu.attributes
                0x000007e0       0x10 build/pic32mz_ef_sk_meb2/debug/_ext/715821942/gfx_assets.o
 .gnu.attributes
                0x000007f0       0x10 c:/program files (x86)/microchip/xc32/v1.42/bin/bin/../../lib/gcc/pic32mx/4.8.3\libgcc.a(floatunsisf.o)
 .gnu.attributes
                0x00000800       0x10 c:/program files (x86)/microchip/xc32/v1.42/bin/bin/../../lib/gcc/pic32mx/4.8.3/../../../../pic32mx/lib\libpic32.a(default-bootstrap-exception-handler.o)
 .gnu.attributes
                0x00000810       0x10 c:/program files (x86)/microchip/xc32/v1.42/bin/bin/../../lib/gcc/pic32mx/4.8.3/../../../../pic32mx/lib\libpic32.a(default-on-reset.o)
 .gnu.attributes
                0x00000820       0x10 c:/program files (x86)/microchip/xc32/v1.42/bin/bin/../../lib/gcc/pic32mx/4.8.3/../../../../pic32mx/lib\libpic32.a(default-on-bootstrap.o)
 .gnu.attributes
                0x00000830       0x10 c:/program files (x86)/microchip/xc32/v1.42/bin/bin/../../lib/gcc/pic32mx/4.8.3/../../../../pic32mx/lib\libpic32.a(defaultinterrupt.o)
 .gnu.attributes
                0x00000840       0x10 c:/program files (x86)/microchip/xc32/v1.42/bin/bin/../../lib/gcc/pic32mx/4.8.3/../../../../pic32mx/lib\libpic32.a(default-cache-err-exception-handler.o)
 .gnu.attributes
                0x00000850       0x10 c:/program files (x86)/microchip/xc32/v1.42/bin/bin/../../lib/gcc/pic32mx/4.8.3/../../../../pic32mx/lib\libpic32.a(default-simple-tlb-refill-exception-handler.o)
 .gnu.attributes
                0x00000860       0x10 c:/program files (x86)/microchip/xc32/v1.42/bin/bin/../../lib/gcc/pic32mx/4.8.3/../../../../pic32mx/lib\libc.a(fclose.o)
 .gnu.attributes
                0x00000870       0x10 c:/program files (x86)/microchip/xc32/v1.42/bin/bin/../../lib/gcc/pic32mx/4.8.3/../../../../pic32mx/lib\libc.a(fflush.o)
 .gnu.attributes
                0x00000880       0x10 c:/program files (x86)/microchip/xc32/v1.42/bin/bin/../../lib/gcc/pic32mx/4.8.3/../../../../pic32mx/lib\libc.a(fopen.o)
 .gnu.attributes
                0x00000890       0x10 c:/program files (x86)/microchip/xc32/v1.42/bin/bin/../../lib/gcc/pic32mx/4.8.3/../../../../pic32mx/lib\libc.a(fread.o)
 .gnu.attributes
                0x000008a0       0x10 c:/program files (x86)/microchip/xc32/v1.42/bin/bin/../../lib/gcc/pic32mx/4.8.3/../../../../pic32mx/lib\libc.a(freopen.o)
 .gnu.attributes
                0x000008b0       0x10 c:/program files (x86)/microchip/xc32/v1.42/bin/bin/../../lib/gcc/pic32mx/4.8.3/../../../../pic32mx/lib\libc.a(fseek.o)
 .gnu.attributes
                0x000008c0       0x10 c:/program files (x86)/microchip/xc32/v1.42/bin/bin/../../lib/gcc/pic32mx/4.8.3/../../../../pic32mx/lib\libc.a(fwrite.o)
 .gnu.attributes
                0x000008d0       0x10 c:/program files (x86)/microchip/xc32/v1.42/bin/bin/../../lib/gcc/pic32mx/4.8.3/../../../../pic32mx/lib\libc.a(buf.o)
 .gnu.attributes
                0x000008e0       0x10 c:/program files (x86)/microchip/xc32/v1.42/bin/bin/../../lib/gcc/pic32mx/4.8.3/../../../../pic32mx/lib\libc.a(calloc.o)
 .gnu.attributes
                0x000008f0       0x10 c:/program files (x86)/microchip/xc32/v1.42/bin/bin/../../lib/gcc/pic32mx/4.8.3/../../../../pic32mx/lib\libc.a(errno.o)
 .gnu.attributes
                0x00000900       0x10 c:/program files (x86)/microchip/xc32/v1.42/bin/bin/../../lib/gcc/pic32mx/4.8.3/../../../../pic32mx/lib\libc.a(malloc.o)
 .gnu.attributes
                0x00000910       0x10 c:/program files (x86)/microchip/xc32/v1.42/bin/bin/../../lib/gcc/pic32mx/4.8.3/../../../../pic32mx/lib\libc.a(tfiles.o)
 .gnu.attributes
                0x00000920       0x10 c:/program files (x86)/microchip/xc32/v1.42/bin/bin/../../lib/gcc/pic32mx/4.8.3/../../../../pic32mx/lib\libc.a(_iob.o)
 .gnu.attributes
                0x00000930       0x10 c:/program files (x86)/microchip/xc32/v1.42/bin/bin/../../lib/gcc/pic32mx/4.8.3/../../../../pic32mx/lib\libc.a(fgetc.o)
 .gnu.attributes
                0x00000940       0x10 c:/program files (x86)/microchip/xc32/v1.42/bin/bin/../../lib/gcc/pic32mx/4.8.3/../../../../pic32mx/lib\libc.a(_fputc_simple.o)
 .gnu.attributes
                0x00000950       0x10 c:/program files (x86)/microchip/xc32/v1.42/bin/bin/../../lib/gcc/pic32mx/4.8.3/../../../../pic32mx/lib\libc.a(filbuf.o)
 .gnu.attributes
                0x00000960       0x10 c:/program files (x86)/microchip/xc32/v1.42/bin/bin/../../lib/gcc/pic32mx/4.8.3/../../../../pic32mx/lib\libc.a(_flsbuf_simple.o)
 .gnu.attributes
                0x00000970       0x10 c:/program files (x86)/microchip/xc32/v1.42/bin/bin/../../lib/gcc/pic32mx/4.8.3/../../../../pic32mx/lib\libpic32.a(sbrk.o)
 .gnu.attributes
                0x00000980       0x10 c:/program files (x86)/microchip/xc32/v1.42/bin/bin/../../lib/gcc/pic32mx/4.8.3/../../../../pic32mx/lib\libpic32.a(read.o)
 .gnu.attributes
                0x00000990       0x10 c:/program files (x86)/microchip/xc32/v1.42/bin/bin/../../lib/gcc/pic32mx/4.8.3/../../../../pic32mx/lib\libpic32.a(write.o)
 .gnu.attributes
                0x000009a0       0x10 c:/program files (x86)/microchip/xc32/v1.42/bin/bin/../../lib/gcc/pic32mx/4.8.3/../../../../pic32mx/lib\libpic32.a(lseek.o)
 .gnu.attributes
                0x000009b0       0x10 c:/program files (x86)/microchip/xc32/v1.42/bin/bin/../../lib/gcc/pic32mx/4.8.3/../../../../pic32mx/lib\libpic32.a(remove.o)
 .gnu.attributes
                0x000009c0       0x10 c:/program files (x86)/microchip/xc32/v1.42/bin/bin/../../lib/gcc/pic32mx/4.8.3/../../../../pic32mx/lib\libpic32.a(close.o)
 .gnu.attributes
                0x000009d0       0x10 c:/program files (x86)/microchip/xc32/v1.42/bin/bin/../../lib/gcc/pic32mx/4.8.3/../../../../pic32mx/lib\libpic32.a(open.o)
 .gnu.attributes
                0x000009e0       0x10 c:/program files (x86)/microchip/xc32/v1.42/bin/bin/../../lib/gcc/pic32mx/4.8.3/../../../../pic32mx/lib\libpic32.a(xc32_uart.o)
 .gnu.attributes
                0x000009f0       0x10 c:/program files (x86)/microchip/xc32/v1.42/bin/bin/../../lib/gcc/pic32mx/4.8.3/../../../../pic32mx/lib\libpic32.a(_mon_putc.o)
                0x9d000000                PROVIDE (__pic32_init_cache_program_base_addr, 0x9d000000)
                0x80000000                PROVIDE (__pic32_init_cache_data_base_addr, 0x80000000)
                0xd0000000                PROVIDE (__pic32_init_sqi_kseg2_virtual_base_addr, 0xd0000000)
                0x30000000                PROVIDE (__pic32_init_sqi_kseg2_physical_base_addr, 0x30000000)
                0x0000001f                PROVIDE (__pic32_init_sqi_kseg2_entrylo0_bitset, 0x1f)
                0xd0000000                __pic32_tlb_0_entryhi = __pic32_init_sqi_kseg2_virtual_base_addr
                0x00c0001f                __pic32_tlb_0_entrylo0 = ((__pic32_init_sqi_kseg2_physical_base_addr >> 0x6) | __pic32_init_sqi_kseg2_entrylo0_bitset)
                0x00c4001f                __pic32_tlb_0_entrylo1 = (__pic32_tlb_0_entrylo0 | ((__pic32_init_sqi_kseg2_physical_base_addr + 0x1000000) >> 0x6))
                0xd2000000                __pic32_tlb_1_entryhi = (__pic32_init_sqi_kseg2_virtual_base_addr + 0x2000000)
                0x00c8001f                __pic32_tlb_1_entrylo0 = (((__pic32_init_sqi_kseg2_physical_base_addr + 0x2000000) >> 0x6) | __pic32_init_sqi_kseg2_entrylo0_bitset)
                0x00cc001f                __pic32_tlb_1_entrylo1 = (__pic32_tlb_1_entrylo0 | 0x40000)
                0xf0000000                PROVIDE (__pic32_init_sqi_kseg3_virtual_base_addr, 0xf0000000)
                0x30000000                PROVIDE (__pic32_init_sqi_kseg3_physical_base_addr, 0x30000000)
                0x00000017                PROVIDE (__pic32_init_sqi_kseg3_entrylo0_bitset, 0x17)
                0xf0000000                __pic32_tlb_2_entryhi = __pic32_init_sqi_kseg3_virtual_base_addr
                0x00c00017                __pic32_tlb_2_entrylo0 = ((__pic32_init_sqi_kseg3_physical_base_addr >> 0x6) | __pic32_init_sqi_kseg3_entrylo0_bitset)
                0x00c40017                __pic32_tlb_2_entrylo1 = (__pic32_tlb_2_entrylo0 | ((__pic32_init_sqi_kseg3_physical_base_addr + 0x1000000) >> 0x6))
                0xf2000000                __pic32_tlb_3_entryhi = (__pic32_init_sqi_kseg3_virtual_base_addr + 0x2000000)
                0x00c80017                __pic32_tlb_3_entrylo0 = (((__pic32_init_sqi_kseg3_physical_base_addr + 0x2000000) >> 0x6) | __pic32_init_sqi_kseg3_entrylo0_bitset)
                0x00cc0017                __pic32_tlb_3_entrylo1 = (__pic32_tlb_3_entrylo0 | 0x40000)
                0xc0000000                PROVIDE (__pic32_init_ebi_kseg2_virtual_base_addr, 0xc0000000)
                0x20000000                PROVIDE (__pic32_init_ebi_kseg2_physical_base_addr, 0x20000000)
                0x0000001f                PROVIDE (__pic32_init_ebi_kseg2_entrylo0_bitset, 0x1f)
                0xc0000000                __pic32_tlb_4_entryhi = __pic32_init_ebi_kseg2_virtual_base_addr
                0x0080001f                __pic32_tlb_4_entrylo0 = ((__pic32_init_ebi_kseg2_physical_base_addr >> 0x6) | __pic32_init_ebi_kseg2_entrylo0_bitset)
                0x0084001f                __pic32_tlb_4_entrylo1 = (__pic32_tlb_4_entrylo0 | ((__pic32_init_ebi_kseg2_physical_base_addr + 0x1000000) >> 0x6))
                0xc2000000                __pic32_tlb_5_entryhi = (__pic32_init_ebi_kseg2_virtual_base_addr + 0x2000000)
                0x0088001f                __pic32_tlb_5_entrylo0 = (((__pic32_init_ebi_kseg2_physical_base_addr + 0x2000000) >> 0x6) | __pic32_init_ebi_kseg2_entrylo0_bitset)
                0x008c001f                __pic32_tlb_5_entrylo1 = (__pic32_tlb_5_entrylo0 | 0x40000)
                0xe0000000                PROVIDE (__pic32_init_ebi_kseg3_virtual_base_addr, 0xe0000000)
                0x20000000                PROVIDE (__pic32_init_ebi_kseg3_physical_base_addr, 0x20000000)
                0x00000017                PROVIDE (__pic32_init_ebi_kseg3_entrylo0_bitset, 0x17)
                0xe0000000                __pic32_tlb_6_entryhi = __pic32_init_ebi_kseg3_virtual_base_addr
                0x00800017                __pic32_tlb_6_entrylo0 = ((__pic32_init_ebi_kseg3_physical_base_addr >> 0x6) | __pic32_init_ebi_kseg3_entrylo0_bitset)
                0x00840017                __pic32_tlb_6_entrylo1 = (__pic32_tlb_6_entrylo0 | ((__pic32_init_ebi_kseg3_physical_base_addr + 0x1000000) >> 0x6))
                0xe2000000                __pic32_tlb_7_entryhi = (__pic32_init_ebi_kseg3_virtual_base_addr + 0x2000000)
                0x00880017                __pic32_tlb_7_entrylo0 = (((__pic32_init_ebi_kseg3_physical_base_addr + 0x2000000) >> 0x6) | __pic32_init_ebi_kseg3_entrylo0_bitset)
                0x008c0017                __pic32_tlb_7_entrylo1 = (__pic32_tlb_7_entrylo0 | 0x40000)

.tlb_init_values
                0xbfc0064c       0x60
                0xbfc0064c                . = ALIGN (0x4)
                0xbfc0064c                __pic32_tlb_init_values_begin = ABSOLUTE (.)
                0xbfc0064c        0x4 LONG 0xd0000000 __pic32_tlb_0_entryhi
                0xbfc00650        0x4 LONG 0xc0001f __pic32_tlb_0_entrylo0
                0xbfc00654        0x4 LONG 0xc4001f __pic32_tlb_0_entrylo1
                0xbfc00658        0x4 LONG 0xd2000000 __pic32_tlb_1_entryhi
                0xbfc0065c        0x4 LONG 0xc8001f __pic32_tlb_1_entrylo0
                0xbfc00660        0x4 LONG 0xcc001f __pic32_tlb_1_entrylo1
                0xbfc00664        0x4 LONG 0xf0000000 __pic32_tlb_2_entryhi
                0xbfc00668        0x4 LONG 0xc00017 __pic32_tlb_2_entrylo0
                0xbfc0066c        0x4 LONG 0xc40017 __pic32_tlb_2_entrylo1
                0xbfc00670        0x4 LONG 0xf2000000 __pic32_tlb_3_entryhi
                0xbfc00674        0x4 LONG 0xc80017 __pic32_tlb_3_entrylo0
                0xbfc00678        0x4 LONG 0xcc0017 __pic32_tlb_3_entrylo1
                0xbfc0067c        0x4 LONG 0xc0000000 __pic32_tlb_4_entryhi
                0xbfc00680        0x4 LONG 0x80001f __pic32_tlb_4_entrylo0
                0xbfc00684        0x4 LONG 0x84001f __pic32_tlb_4_entrylo1
                0xbfc00688        0x4 LONG 0xc2000000 __pic32_tlb_5_entryhi
                0xbfc0068c        0x4 LONG 0x88001f __pic32_tlb_5_entrylo0
                0xbfc00690        0x4 LONG 0x8c001f __pic32_tlb_5_entrylo1
                0xbfc00694        0x4 LONG 0xe0000000 __pic32_tlb_6_entryhi
                0xbfc00698        0x4 LONG 0x800017 __pic32_tlb_6_entrylo0
                0xbfc0069c        0x4 LONG 0x840017 __pic32_tlb_6_entrylo1
                0xbfc006a0        0x4 LONG 0xe2000000 __pic32_tlb_7_entryhi
                0xbfc006a4        0x4 LONG 0x880017 __pic32_tlb_7_entrylo0
                0xbfc006a8        0x4 LONG 0x8c0017 __pic32_tlb_7_entrylo1
                0xbfc006ac                __pic32_tlb_init_values_end = ABSOLUTE (.)
                0x00000008                __pic32_tlb_init_values_count = 0x8
LOAD c:/program files (x86)/microchip/xc32/v1.42/bin/bin/../../lib/gcc/pic32mx/4.8.3\libgcc.a
START GROUP
LOAD c:/program files (x86)/microchip/xc32/v1.42/bin/bin/../../lib/gcc/pic32mx/4.8.3/../../../../pic32mx/lib\libpic32.a
LOAD c:/program files (x86)/microchip/xc32/v1.42/bin/bin/../../lib/gcc/pic32mx/4.8.3/../../../../pic32mx/lib\libdebug.a
LOAD c:/program files (x86)/microchip/xc32/v1.42/bin/bin/../../lib/gcc/pic32mx/4.8.3/../../../../pic32mx/lib\libpic32.a
LOAD c:/program files (x86)/microchip/xc32/v1.42/bin/bin/../../lib/gcc/pic32mx/4.8.3/../../../../pic32mx/lib\libm.a
LOAD c:/program files (x86)/microchip/xc32/v1.42/bin/bin/../../lib/gcc/pic32mx/4.8.3/../../../../pic32mx/lib\libe.a
LOAD c:/program files (x86)/microchip/xc32/v1.42/bin/bin/../../lib/gcc/pic32mx/4.8.3/../../../../pic32mx/lib\libdspr2.a
LOAD c:/program files (x86)/microchip/xc32/v1.42/bin/bin/../../lib/gcc/pic32mx/4.8.3/../../../../pic32mx/lib\libdsp.a
LOAD c:/program files (x86)/microchip/xc32/v1.42/bin/bin/../../lib/gcc/pic32mx/4.8.3\libgcc.a
LOAD c:/program files (x86)/microchip/xc32/v1.42/bin/bin/../../lib/gcc/pic32mx/4.8.3/../../../../pic32mx/lib\libc.a
LOAD c:/program files (x86)/microchip/xc32/v1.42/bin/bin/../../lib/gcc/pic32mx/4.8.3/../../../../pic32mx/lib\libc.a
LOAD c:/program files (x86)/microchip/xc32/v1.42/bin/bin/../../lib/gcc/pic32mx/4.8.3/../../../../pic32mx/lib\libpic32.a
END GROUP
LOAD c:/program files (x86)/microchip/xc32/v1.42/bin/bin/../../lib/gcc/pic32mx/4.8.3\libgcc.a
OUTPUT(dist/pic32mz_ef_sk_meb2/debug/aria_quickstart.X.debug.elf elf32-tradlittlemips)
LOAD stack
LOAD data_init

.reginfo        0x00000000       0x18
 .reginfo       0x00000000       0x18 c:/program files (x86)/microchip/xc32/v1.42/bin/bin/../../lib/gcc/pic32mx/4.8.3/../../../../pic32mx/lib/./proc/32MZ2048ECM144/crt0_mips32r2.o

.stack          0x8005c580      0x400
 .stack         0x8005c580      0x400 stack

.__vector_offset_BF8106F4_data
                0xbf8106f4      0x148
 .__vector_offset_BF8106F4_data
                0xbf8106f4      0x148 c:/program files (x86)/microchip/xc32/v1.42/bin/bin/../../lib/gcc/pic32mx/4.8.3/../../../../pic32mx/lib/./proc/32MZ2048ECM144\vector_offset_init.o

.__vector_offset_BF81062C_data
                0xbf81062c       0xc4
 .__vector_offset_BF81062C_data
                0xbf81062c       0xc4 c:/program files (x86)/microchip/xc32/v1.42/bin/bin/../../lib/gcc/pic32mx/4.8.3/../../../../pic32mx/lib/./proc/32MZ2048ECM144\vector_offset_init.o

.__vector_offset_BF810540_data
                0xbf810540       0xb4
 .__vector_offset_BF810540_data
                0xbf810540       0xb4 c:/program files (x86)/microchip/xc32/v1.42/bin/bin/../../lib/gcc/pic32mx/4.8.3/../../../../pic32mx/lib/./proc/32MZ2048ECM144\vector_offset_init.o

.__vector_offset_BF8105F8_data
                0xbf8105f8       0x30
 .__vector_offset_BF8105F8_data
                0xbf8105f8       0x30 c:/program files (x86)/microchip/xc32/v1.42/bin/bin/../../lib/gcc/pic32mx/4.8.3/../../../../pic32mx/lib/./proc/32MZ2048ECM144\vector_offset_init.o

.bss.frameBuffer.frameBuffer
                0xa0000750    0x3fc00
 .bss.frameBuffer.frameBuffer
                0xa0000750    0x3fc00 build/pic32mz_ef_sk_meb2/debug/_ext/713288229/drv_gfx_lcc_generic.o
                0xa0000750                frameBuffer

.data           0x80040350     0x2100
 .data          0x80040350     0x2100 build/pic32mz_ef_sk_meb2/debug/_ext/715821942/gfx_assets.o
                0x80040350                stringTable
                0x800403ac                TimesNewRoman12
                0x800404d0                TimesNewRoman12_lookup_72_75
                0x800404dc                TimesNewRoman18
                0x800406d4                TimesNewRoman18_lookup_72_75
                0x800406e4                NewHarmonyLogo

.bss            0x80042450      0x9f8
 .bss           0x80042450      0x9f8 build/pic32mz_ef_sk_meb2/debug/_ext/1597685232/gfxu_image_jpg_internal.o

.data           0x80042e48      0x460
 .data          0x80042e48      0x1e4 build/pic32mz_ef_sk_meb2/debug/_ext/1847583374/gfx_color_convert.o
                0x80042e48                color_convert_table
 .data          0x8004302c      0x148 build/pic32mz_ef_sk_meb2/debug/_ext/1847583374/gfx_interface.o
                0x8004302c                GFX_InterfaceTable
 .data          0x80043174      0x134 build/pic32mz_ef_sk_meb2/debug/_ext/1847583374/gfx_color.o
                0x80043174                GFX_ColorInfo

.bss            0x800432a8      0x134
 .bss           0x800432a8      0x134 build/pic32mz_ef_sk_meb2/debug/_ext/1219754583/drv_i2c_static_buffer_model.o

.data           0x800433dc       0xf4
 .data          0x800433dc       0x58 build/pic32mz_ef_sk_meb2/debug/_ext/1847583374/gfx_color_blend.o
                0x800433dc                alpha_set_table
                0x80043408                color_blend_table
 .data          0x80043434       0x44 build/pic32mz_ef_sk_meb2/debug/_ext/1597685232/gfxu_image_utils.o
                0x80043434                calcOffset
                0x8004344c                getDiscreteValue
 .data          0x80043478       0x2c build/pic32mz_ef_sk_meb2/debug/_ext/1847583374/gfx_color_lerp.o
                0x80043478                color_lerp_table
 .data          0x800434a4       0x2c build/pic32mz_ef_sk_meb2/debug/_ext/477038478/gfx_display_def.o
                0x800434a4                GFX_DisplayInfoList

.bss            0x800434d0       0x44
 .bss           0x800434d0       0x24 c:/program files (x86)/microchip/xc32/v1.42/bin/bin/../../lib/gcc/pic32mx/4.8.3/../../../../pic32mx/lib\libpic32.a(sbrk.o)
                0x800434ec                _maxbrk
                0x800434f0                _minbrk
 .bss           0x800434f4       0x20 c:/program files (x86)/microchip/xc32/v1.42/bin/bin/../../lib/gcc/pic32mx/4.8.3/../../../../pic32mx/lib\libc.a(malloc.o)
                0x800434f4                __allocx
                0x800434fc                __alloct
                0x80043500                __allocp
                0x80043504                __allocs

.data           0x80043514       0x18
 .data          0x80043514       0x18 build/pic32mz_ef_sk_meb2/debug/_ext/1847583374/gfx_pixel_buffer.o
                0x80043514                indexGet_FnTable

.bss            0x8004352c       0x14
 .bss           0x8004352c       0x14 build/pic32mz_ef_sk_meb2/debug/_ext/199634090/drv_tmr_static.o

.data           0x80043540       0x1c
 .data          0x80043540       0x10 build/pic32mz_ef_sk_meb2/debug/_ext/1847583374/gfx_util.o
                0x80043540                orient_ptrs
 .data          0x80043550        0xc build/pic32mz_ef_sk_meb2/debug/_ext/1597685232/gfxu_string_utils.o
                0x80043550                decodeGlyph

.bss.errno      0x8004355c        0x4
 .bss.errno     0x8004355c        0x4 c:/program files (x86)/microchip/xc32/v1.42/bin/bin/../../lib/gcc/pic32mx/4.8.3/../../../../pic32mx/lib\libc.a(errno.o)
                0x8004355c                errno

.dinit          0x9d000270     0x2da0
 .dinit         0x9d000270     0x2da0 data_init

.rodata         0x9d003010     0x16ac
 .rodata        0x9d003010     0x16ac build/pic32mz_ef_sk_meb2/debug/_ext/493934858/lodepng.o
                0x9d004434                lodepng_default_decompress_settings
                0x9d004444                lodepng_default_compress_settings

.text.lodepng_decode
                0x9d0046bc     0x15cc
 .text.lodepng_decode
                0x9d0046bc     0x15cc build/pic32mz_ef_sk_meb2/debug/_ext/493934858/lodepng.o
                0x9d0046bc                lodepng_decode

.text.GFXU_DrawImageJpgInternal
                0x9d005c88      0xfe4
 .text.GFXU_DrawImageJpgInternal
                0x9d005c88      0xfe4 build/pic32mz_ef_sk_meb2/debug/_ext/1597685232/gfxu_image_jpg_internal.o
                0x9d005c88                GFXU_DrawImageJpgInternal

.text.lodepng_inflate
                0x9d006c6c      0x978
 .text.lodepng_inflate
                0x9d006c6c      0x978 build/pic32mz_ef_sk_meb2/debug/_ext/493934858/lodepng.o
                0x9d006c6c                lodepng_inflate

.text.JPEG_bReadHeader
                0x9d0075e4      0x880
 .text.JPEG_bReadHeader
                0x9d0075e4      0x880 build/pic32mz_ef_sk_meb2/debug/_ext/1597685232/gfxu_image_jpg_internal.o

.rodata         0x9d007e64      0x878
 .rodata        0x9d007e64      0x878 build/pic32mz_ef_sk_meb2/debug/_ext/1360937237/ov2640.o
                0x9d007e64                OV2640_352x288_JPEG
                0x9d007eb4                OV2640_320x240_JPEG
                0x9d007f04                OV2640_176x144_JPEG
                0x9d007f54                OV2640_160x120_JPEG
                0x9d007fa4                OV2640_JPEG
                0x9d007fb4                OV2640_YUV422
                0x9d007fc8                OV2640_JPEG_INIT
                0x9d008144                OV2640_QVGA
                0x9d0082fc                OV2640_QQVGA
                0x9d00858c                change_reg

.text.DRV_I2C0_Tasks
                0x9d0086dc      0x834
 .text.DRV_I2C0_Tasks
                0x9d0086dc      0x834 build/pic32mz_ef_sk_meb2/debug/_ext/1219754583/drv_i2c_static_buffer_model.o
                0x9d0086dc                DRV_I2C0_Tasks

.text.jpeg_idct_islow
                0x9d008f10      0x6b8
 .text.jpeg_idct_islow
                0x9d008f10      0x6b8 build/pic32mz_ef_sk_meb2/debug/_ext/426253641/jidctint.o
                0x9d008f10                jpeg_idct_islow

.text.getPixelColorsRGBA8
                0x9d0095c8      0x540
 .text.getPixelColorsRGBA8
                0x9d0095c8      0x540 build/pic32mz_ef_sk_meb2/debug/_ext/493934858/lodepng.o

.text.lodepng_convert
                0x9d009b08      0x538
 .text.lodepng_convert
                0x9d009b08      0x538 build/pic32mz_ef_sk_meb2/debug/_ext/493934858/lodepng.o
                0x9d009b08                lodepng_convert

.text.run       0x9d00a040      0xa28
 .text.run      0x9d00a040      0x538 build/pic32mz_ef_sk_meb2/debug/_ext/1597685232/gfxu_string_external.o
 .text.run      0x9d00a578      0x4f0 build/pic32mz_ef_sk_meb2/debug/_ext/1597685232/gfxu_image_rle_external.o

.text.contextDefInitialization
                0x9d00aa68      0x45c
 .text.contextDefInitialization
                0x9d00aa68      0x45c build/pic32mz_ef_sk_meb2/debug/_ext/1847583374/gfx_default_impl.o
                0x9d00aa68                contextDefInitialization

.text.run       0x9d00aec4      0x434
 .text.run      0x9d00aec4      0x434 build/pic32mz_ef_sk_meb2/debug/_ext/1597685232/gfxu_image_raw_external.o

.text.getPixelColorRGBA8
                0x9d00b2f8      0x400
 .text.getPixelColorRGBA8
                0x9d00b2f8      0x400 build/pic32mz_ef_sk_meb2/debug/_ext/493934858/lodepng.o

.text.unfilter  0x9d00b6f8      0x390
 .text.unfilter
                0x9d00b6f8      0x390 build/pic32mz_ef_sk_meb2/debug/_ext/493934858/lodepng.o

.text.HuffmanTree_makeFromLengths2
                0x9d00ba88      0x350
 .text.HuffmanTree_makeFromLengths2
                0x9d00ba88      0x350 build/pic32mz_ef_sk_meb2/debug/_ext/493934858/lodepng.o

.text.cpuDrawBlit
                0x9d00bdd8      0x350
 .text.cpuDrawBlit
                0x9d00bdd8      0x350 build/pic32mz_ef_sk_meb2/debug/_ext/1847583374/gfx_draw_blit.o
                0x9d00bdd8                cpuDrawBlit

.text.GFXU_DrawImageRLEInternal
                0x9d00c128      0x318
 .text.GFXU_DrawImageRLEInternal
                0x9d00c128      0x318 build/pic32mz_ef_sk_meb2/debug/_ext/1597685232/gfxu_image_rle_internal.o
                0x9d00c128                GFXU_DrawImageRLEInternal

.text.GFX_Open  0x9d00c440      0x30c
 .text.GFX_Open
                0x9d00c440      0x30c build/pic32mz_ef_sk_meb2/debug/_ext/1847583374/gfx.o
                0x9d00c440                GFX_Open

.text.malloc    0x9d00c74c      0x288
 .text.malloc   0x9d00c74c      0x288 c:/program files (x86)/microchip/xc32/v1.42/bin/bin/../../lib/gcc/pic32mx/4.8.3/../../../../pic32mx/lib\libc.a(malloc.o)
                0x9d00c74c                malloc

.text.fpsubadd  0x9d00c9d4      0x278
 .text.fpsubadd
                0x9d00c9d4      0x278 c:/program files (x86)/microchip/xc32/v1.42/bin/bin/../../lib/gcc/pic32mx/4.8.3/../../../../pic32mx/lib\libm.a(fp32subadd.o)
                0x9d00c9d4                fpsub
                0x9d00c9d4                __subsf3
                0x9d00c9dc                __addsf3
                0x9d00c9dc                fpadd

.text.drawImage
                0x9d00cc4c      0x264
 .text.drawImage
                0x9d00cc4c      0x264 build/pic32mz_ef_sk_meb2/debug/_ext/1907747181/libaria_widget_button_skin_classic.o

.text.laUtils_ArrangeRectangleRelative
                0x9d00ceb0      0x260
 .text.laUtils_ArrangeRectangleRelative
                0x9d00ceb0      0x260 build/pic32mz_ef_sk_meb2/debug/_ext/1907747181/libaria_utils.o
                0x9d00ceb0                laUtils_ArrangeRectangleRelative

.text.GFXU_DrawImage
                0x9d00d110      0x250
 .text.GFXU_DrawImage
                0x9d00d110      0x250 build/pic32mz_ef_sk_meb2/debug/_ext/1597685232/gfxu_image.o
                0x9d00d110                GFXU_DrawImage

.text.ScreenCreate_default
                0x9d00d360      0x250
 .text.ScreenCreate_default
                0x9d00d360      0x250 build/pic32mz_ef_sk_meb2/debug/_ext/1740298103/libaria_init.o

.text.lodepng_inspect
                0x9d00d5b0      0x24c
 .text.lodepng_inspect
                0x9d00d5b0      0x24c build/pic32mz_ef_sk_meb2/debug/_ext/493934858/lodepng.o
                0x9d00d5b0                lodepng_inspect

.text._laContext_PaintWidget
                0x9d00d7fc      0x240
 .text._laContext_PaintWidget
                0x9d00d7fc      0x240 build/pic32mz_ef_sk_meb2/debug/_ext/1907747181/libaria_context_paint.o
                0x9d00d7fc                _laContext_PaintWidget

.text.fp32div   0x9d00da3c      0x230
 .text.fp32div  0x9d00da3c      0x230 c:/program files (x86)/microchip/xc32/v1.42/bin/bin/../../lib/gcc/pic32mx/4.8.3/../../../../pic32mx/lib\libm.a(fp32div.o)
                0x9d00da3c                fpdiv
                0x9d00da3c                __divsf3

.text.getPixelColorRGBA16
                0x9d00dc6c      0x224
 .text.getPixelColorRGBA16
                0x9d00dc6c      0x224 build/pic32mz_ef_sk_meb2/debug/_ext/493934858/lodepng.o

.text.SYS_PORTS_Initialize
                0x9d00de90      0x210
 .text.SYS_PORTS_Initialize
                0x9d00de90      0x210 build/pic32mz_ef_sk_meb2/debug/_ext/50030870/sys_ports_static.o
                0x9d00de90                SYS_PORTS_Initialize

.text.drawImage
                0x9d00e0a0      0x204
 .text.drawImage
                0x9d00e0a0      0x204 build/pic32mz_ef_sk_meb2/debug/_ext/1907747181/libaria_widget_image_skin_classic.o

.text.lccInitialize
                0x9d00e2a4      0x200
 .text.lccInitialize
                0x9d00e2a4      0x200 build/pic32mz_ef_sk_meb2/debug/_ext/713288229/drv_gfx_lcc_generic.o

.text.laUtils_ArrangeRectangle
                0x9d00e4a4      0x1fc
 .text.laUtils_ArrangeRectangle
                0x9d00e4a4      0x1fc build/pic32mz_ef_sk_meb2/debug/_ext/1907747181/libaria_utils.o
                0x9d00e4a4                laUtils_ArrangeRectangle

.text.GFXU_DecodeUTF8
                0x9d00e6a0      0x1f8
 .text.GFXU_DecodeUTF8
                0x9d00e6a0      0x1f8 build/pic32mz_ef_sk_meb2/debug/_ext/1597685232/gfxu_string_utils.o
                0x9d00e6a0                GFXU_DecodeUTF8

.text.DRV_GFX_LCC_DisplayRefresh
                0x9d00e898      0x1f8
 .text.DRV_GFX_LCC_DisplayRefresh
                0x9d00e898      0x1f8 build/pic32mz_ef_sk_meb2/debug/_ext/713288229/drv_gfx_lcc_generic.o
                0x9d00e898                DRV_GFX_LCC_DisplayRefresh

.text.lodepng_add_itext
                0x9d00ea90      0x1f0
 .text.lodepng_add_itext
                0x9d00ea90      0x1f0 build/pic32mz_ef_sk_meb2/debug/_ext/493934858/lodepng.o
                0x9d00ea90                lodepng_add_itext

.text.drawString
                0x9d00ec80      0x1f0
 .text.drawString
                0x9d00ec80      0x1f0 build/pic32mz_ef_sk_meb2/debug/_ext/1907747181/libaria_widget_button_skin_classic.o

.text.lodepng_zlib_decompress
                0x9d00ee70      0x1dc
 .text.lodepng_zlib_decompress
                0x9d00ee70      0x1dc build/pic32mz_ef_sk_meb2/debug/_ext/493934858/lodepng.o
                0x9d00ee70                lodepng_zlib_decompress

.text.GFXU_DrawImagePngInternal
                0x9d00f04c      0x1d0
 .text.GFXU_DrawImagePngInternal
                0x9d00f04c      0x1d0 build/pic32mz_ef_sk_meb2/debug/_ext/1597685232/gfxu_image_png_internal.o
                0x9d00f04c                GFXU_DrawImagePngInternal

.text.fp32mul   0x9d00f21c      0x1bc
 .text.fp32mul  0x9d00f21c      0x1bc c:/program files (x86)/microchip/xc32/v1.42/bin/bin/../../lib/gcc/pic32mx/4.8.3/../../../../pic32mx/lib\libm.a(fp32mul.o)
                0x9d00f21c                __mulsf3
                0x9d00f21c                fpmul

.text.GFXU_DrawImageRawInternal
                0x9d00f3d8      0x1b8
 .text.GFXU_DrawImageRawInternal
                0x9d00f3d8      0x1b8 build/pic32mz_ef_sk_meb2/debug/_ext/1597685232/gfxu_image_raw_internal.o
                0x9d00f3d8                GFXU_DrawImageRawInternal

.text.SYS_CLK_Initialize
                0x9d00f590      0x1b8
 .text.SYS_CLK_Initialize
                0x9d00f590      0x1b8 build/pic32mz_ef_sk_meb2/debug/_ext/1847413222/sys_clk.o
                0x9d00f590                SYS_CLK_Initialize

.text.IntHandlerDrvTmrInstance0
                0x9d00f748      0x1b0
 .text.IntHandlerDrvTmrInstance0
                0x9d00f748      0x1b0 build/pic32mz_ef_sk_meb2/debug/_ext/1951523377/system_interrupt.o
                0x9d00f748                IntHandlerDrvTmrInstance0

.text.laDraw_2x2BevelBorder
                0x9d00f8f8      0x1ac
 .text.laDraw_2x2BevelBorder
                0x9d00f8f8      0x1ac build/pic32mz_ef_sk_meb2/debug/_ext/1907747181/libaria_draw.o
                0x9d00f8f8                laDraw_2x2BevelBorder

.text.laScheme_Initialize
                0x9d00faa4      0x1a4
 .text.laScheme_Initialize
                0x9d00faa4      0x1a4 build/pic32mz_ef_sk_meb2/debug/_ext/1907747181/libaria_scheme.o
                0x9d00faa4                laScheme_Initialize

.text._IntHandlerSysDmaCh0
                0x9d00fc48      0x1a4
 .text._IntHandlerSysDmaCh0
                0x9d00fc48      0x1a4 build/pic32mz_ef_sk_meb2/debug/_ext/1951523377/system_interrupt.o
                0x9d00fc48                _IntHandlerSysDmaCh0

.text._IntHandlerDrvI2CMasterInstance0
                0x9d00fdec      0x1a0
 .text._IntHandlerDrvI2CMasterInstance0
                0x9d00fdec      0x1a0 build/pic32mz_ef_sk_meb2/debug/_ext/1951523377/system_interrupt.o
                0x9d00fdec                _IntHandlerDrvI2CMasterInstance0

.text           0x9d00ff8c      0x1a0
 .text          0x9d00ff8c      0x1a0 c:/program files (x86)/microchip/xc32/v1.42/bin/bin/../../lib/gcc/pic32mx/4.8.3/../../../../pic32mx/lib\libpic32.a(strcpy.o)
                0x9d00ff8c                strcpy

.text.Adam7_getpassvalues
                0x9d01012c      0x19c
 .text.Adam7_getpassvalues
                0x9d01012c      0x19c build/pic32mz_ef_sk_meb2/debug/_ext/493934858/lodepng.o

.text._LCCRefreshISR
                0x9d0102c8      0x19c
 .text._LCCRefreshISR
                0x9d0102c8      0x19c build/pic32mz_ef_sk_meb2/debug/_ext/713288229/drv_gfx_lcc_generic.o
                0x9d0102c8                _LCCRefreshISR

.text.cpuDrawLine
                0x9d010464      0x198
 .text.cpuDrawLine
                0x9d010464      0x198 build/pic32mz_ef_sk_meb2/debug/_ext/1847583374/gfx_draw_line.o
                0x9d010464                cpuDrawLine

.text._sbrk_init
                0x9d0105fc      0x194
 .text._sbrk_init
                0x9d0105fc      0x194 c:/program files (x86)/microchip/xc32/v1.42/bin/bin/../../lib/gcc/pic32mx/4.8.3/../../../../pic32mx/lib\libpic32.a(sbrk.o)
                0x9d0105fc                _sbrk_init

.text.GFXU_DecodeAndDrawString
                0x9d010790      0x188
 .text.GFXU_DecodeAndDrawString
                0x9d010790      0x188 build/pic32mz_ef_sk_meb2/debug/_ext/1597685232/gfxu_string_utils.o
                0x9d010790                GFXU_DecodeAndDrawString

.text.drawBackground
                0x9d010918      0x180
 .text.drawBackground
                0x9d010918      0x180 build/pic32mz_ef_sk_meb2/debug/_ext/1907747181/libaria_widget_button_skin_classic.o

.text.drawString
                0x9d010a98      0x17c
 .text.drawString
                0x9d010a98      0x17c build/pic32mz_ef_sk_meb2/debug/_ext/1907747181/libaria_widget_label_skin_classic.o

.text.laContext_Create
                0x9d010c14      0x174
 .text.laContext_Create
                0x9d010c14      0x174 build/pic32mz_ef_sk_meb2/debug/_ext/1907747181/libaria_context.o
                0x9d010c14                laContext_Create

.text.SYS_DMA_ChannelSetup
                0x9d010d88      0x16c
 .text.SYS_DMA_ChannelSetup
                0x9d010d88      0x16c build/pic32mz_ef_sk_meb2/debug/_ext/853959373/sys_dma.o
                0x9d010d88                SYS_DMA_ChannelSetup

.text.GFXU_CompareString
                0x9d010ef4      0x168
 .text.GFXU_CompareString
                0x9d010ef4      0x168 build/pic32mz_ef_sk_meb2/debug/_ext/1597685232/gfxu_string_utils.o
                0x9d010ef4                GFXU_CompareString

.text.defColorModeSet
                0x9d01105c      0x168
 .text.defColorModeSet
                0x9d01105c      0x168 build/pic32mz_ef_sk_meb2/debug/_ext/1847583374/gfx_default_impl.o
                0x9d01105c                defColorModeSet

.text.DRV_I2C0_Initialize
                0x9d0111c4      0x168
 .text.DRV_I2C0_Initialize
                0x9d0111c4      0x168 build/pic32mz_ef_sk_meb2/debug/_ext/1219754583/drv_i2c_static_buffer_model.o
                0x9d0111c4                DRV_I2C0_Initialize

.text           0x9d01132c      0x2d0
 .text          0x9d01132c      0x168 c:/program files (x86)/microchip/xc32/v1.42/bin/bin/../../lib/gcc/pic32mx/4.8.3/../../../../pic32mx/lib\libpic32.a(memcpy.o)
                0x9d01132c                memcpy
 .text          0x9d011494      0x168 c:/program files (x86)/microchip/xc32/v1.42/bin/bin/../../lib/gcc/pic32mx/4.8.3/../../../../pic32mx/lib\libpic32.a(strlen.o)
                0x9d011494                strlen

.text.GFXU_DrawStringBufferInternal
                0x9d0115fc      0x15c
 .text.GFXU_DrawStringBufferInternal
                0x9d0115fc      0x15c build/pic32mz_ef_sk_meb2/debug/_ext/1597685232/gfxu_string_internal.o
                0x9d0115fc                GFXU_DrawStringBufferInternal

.text.blend_rgb565
                0x9d011758      0x15c
 .text.blend_rgb565
                0x9d011758      0x15c build/pic32mz_ef_sk_meb2/debug/_ext/1847583374/gfx_color_blend.o

.text.SYS_DMA_ChannelTransferAdd
                0x9d0118b4      0x15c
 .text.SYS_DMA_ChannelTransferAdd
                0x9d0118b4      0x15c build/pic32mz_ef_sk_meb2/debug/_ext/853959373/sys_dma.o
                0x9d0118b4                SYS_DMA_ChannelTransferAdd

.text._DRV_I2C0_MasterStop
                0x9d011a10      0x15c
 .text._DRV_I2C0_MasterStop
                0x9d011a10      0x15c build/pic32mz_ef_sk_meb2/debug/_ext/1219754583/drv_i2c_static_buffer_model.o
                0x9d011a10                _DRV_I2C0_MasterStop

.text.laDraw_1x2BevelBorder
                0x9d011b6c      0x158
 .text.laDraw_1x2BevelBorder
                0x9d011b6c      0x158 build/pic32mz_ef_sk_meb2/debug/_ext/1907747181/libaria_draw.o
                0x9d011b6c                laDraw_1x2BevelBorder

.text.blend_rgba8888
                0x9d011cc4      0x154
 .text.blend_rgba8888
                0x9d011cc4      0x154 build/pic32mz_ef_sk_meb2/debug/_ext/1847583374/gfx_color_blend.o

.text.GFX_LayerOriginFromOrientedSpace
                0x9d011e18      0x14c
 .text.GFX_LayerOriginFromOrientedSpace
                0x9d011e18      0x14c build/pic32mz_ef_sk_meb2/debug/_ext/1847583374/gfx_util.o
                0x9d011e18                GFX_LayerOriginFromOrientedSpace

.text.realloc   0x9d011f64      0x14c
 .text.realloc  0x9d011f64      0x14c c:/program files (x86)/microchip/xc32/v1.42/bin/bin/../../lib/gcc/pic32mx/4.8.3/../../../../pic32mx/lib\libc.a(malloc.o)
                0x9d011f64                realloc

.text.cpuDrawCircle_Line
                0x9d0120b0      0x148
 .text.cpuDrawCircle_Line
                0x9d0120b0      0x148 build/pic32mz_ef_sk_meb2/debug/_ext/1847583374/gfx_draw_circle.o
                0x9d0120b0                cpuDrawCircle_Line

.text.cpuDrawRect_Fill
                0x9d0121f8      0x144
 .text.cpuDrawRect_Fill
                0x9d0121f8      0x144 build/pic32mz_ef_sk_meb2/debug/_ext/1847583374/gfx_draw_rect.o
                0x9d0121f8                cpuDrawRect_Fill

.text.JPEG_bGet1Bit
                0x9d01233c      0x140
 .text.JPEG_bGet1Bit
                0x9d01233c      0x140 build/pic32mz_ef_sk_meb2/debug/_ext/1597685232/gfxu_image_jpg_internal.o

.text.rleReadRequestCompleted
                0x9d01247c      0x140
 .text.rleReadRequestCompleted
                0x9d01247c      0x140 build/pic32mz_ef_sk_meb2/debug/_ext/1597685232/gfxu_image_rle_external.o

.text.cpuDrawRect_Gradient_LeftRight
                0x9d0125bc      0x140
 .text.cpuDrawRect_Gradient_LeftRight
                0x9d0125bc      0x140 build/pic32mz_ef_sk_meb2/debug/_ext/1847583374/gfx_draw_rect.o
                0x9d0125bc                cpuDrawRect_Gradient_LeftRight

.text.cpuDrawRect_Gradient_TopBottom
                0x9d0126fc      0x140
 .text.cpuDrawRect_Gradient_TopBottom
                0x9d0126fc      0x140 build/pic32mz_ef_sk_meb2/debug/_ext/1847583374/gfx_draw_rect.o
                0x9d0126fc                cpuDrawRect_Gradient_TopBottom

.text.cpuDrawLine_Thick
                0x9d01283c      0x13c
 .text.cpuDrawLine_Thick
                0x9d01283c      0x13c build/pic32mz_ef_sk_meb2/debug/_ext/1847583374/gfx_draw_line.o
                0x9d01283c                cpuDrawLine_Thick

.text.lccUpdate
                0x9d012978      0x138
 .text.lccUpdate
                0x9d012978      0x138 build/pic32mz_ef_sk_meb2/debug/_ext/713288229/drv_gfx_lcc_generic.o

.text.GFX_Close
                0x9d012ab0      0x134
 .text.GFX_Close
                0x9d012ab0      0x134 build/pic32mz_ef_sk_meb2/debug/_ext/1847583374/gfx.o
                0x9d012ab0                GFX_Close

.text.defOrientationSet
                0x9d012be4      0x134
 .text.defOrientationSet
                0x9d012be4      0x134 build/pic32mz_ef_sk_meb2/debug/_ext/1847583374/gfx_default_impl.o
                0x9d012be4                defOrientationSet

.text.setLayerAttributes
                0x9d012d18      0x12c
 .text.setLayerAttributes
                0x9d012d18      0x12c build/pic32mz_ef_sk_meb2/debug/_ext/1907747181/libaria_screen.o

.text.drawEdge  0x9d012e44      0x12c
 .text.drawEdge
                0x9d012e44      0x12c build/pic32mz_ef_sk_meb2/debug/_ext/1907747181/libaria_widget_rectangle_skin_classic.o

.text.checkColorValidity
                0x9d012f70      0x128
 .text.checkColorValidity
                0x9d012f70      0x128 build/pic32mz_ef_sk_meb2/debug/_ext/493934858/lodepng.o

.rodata         0x9d013098      0x128
 .rodata        0x9d013098      0x128 build/pic32mz_ef_sk_meb2/debug/_ext/1951523377/system_exceptions.o

.text._laWidget_InvalidateRight
                0x9d0131c0      0x124
 .text._laWidget_InvalidateRight
                0x9d0131c0      0x124 build/pic32mz_ef_sk_meb2/debug/_ext/1907747181/libaria_widget.o
                0x9d0131c0                _laWidget_InvalidateRight

.text.drawBackground
                0x9d0132e4      0x124
 .text.drawBackground
                0x9d0132e4      0x124 build/pic32mz_ef_sk_meb2/debug/_ext/1907747181/libaria_widget_label_skin_classic.o

.text.GFX_LayerOriginToOrientedSpace
                0x9d013408      0x124
 .text.GFX_LayerOriginToOrientedSpace
                0x9d013408      0x124 build/pic32mz_ef_sk_meb2/debug/_ext/1847583374/gfx_util.o
                0x9d013408                GFX_LayerOriginToOrientedSpace

.text.stringDataRequestCompleted
                0x9d01352c      0x11c
 .text.stringDataRequestCompleted
                0x9d01352c      0x11c build/pic32mz_ef_sk_meb2/debug/_ext/1597685232/gfxu_string_external.o

.text.GFXU_CalculateStringWidth
                0x9d013648      0x118
 .text.GFXU_CalculateStringWidth
                0x9d013648      0x118 build/pic32mz_ef_sk_meb2/debug/_ext/1597685232/gfxu_string_query.o
                0x9d013648                GFXU_CalculateStringWidth

.text._laContext_Paint
                0x9d013760      0x118
 .text._laContext_Paint
                0x9d013760      0x118 build/pic32mz_ef_sk_meb2/debug/_ext/1907747181/libaria_context_paint.o
                0x9d013760                _laContext_Paint

.text.laWidget_Invalidate
                0x9d013878      0x118
 .text.laWidget_Invalidate
                0x9d013878      0x118 build/pic32mz_ef_sk_meb2/debug/_ext/1907747181/libaria_widget.o
                0x9d013878                laWidget_Invalidate

.text.cpuDrawPixel_Unsafe
                0x9d013990      0x118
 .text.cpuDrawPixel_Unsafe
                0x9d013990      0x118 build/pic32mz_ef_sk_meb2/debug/_ext/1847583374/gfx_draw_pixel.o
                0x9d013990                cpuDrawPixel_Unsafe

.text.DRV_I2C0_Transmit
                0x9d013aa8      0x118
 .text.DRV_I2C0_Transmit
                0x9d013aa8      0x118 build/pic32mz_ef_sk_meb2/debug/_ext/1219754583/drv_i2c_static_buffer_model.o
                0x9d013aa8                DRV_I2C0_Transmit

.text.lodepng_add_text
                0x9d013bc0      0x114
 .text.lodepng_add_text
                0x9d013bc0      0x114 build/pic32mz_ef_sk_meb2/debug/_ext/493934858/lodepng.o
                0x9d013bc0                lodepng_add_text

.text._laWidget_Constructor
                0x9d013cd4      0x114
 .text._laWidget_Constructor
                0x9d013cd4      0x114 build/pic32mz_ef_sk_meb2/debug/_ext/1907747181/libaria_widget.o
                0x9d013cd4                _laWidget_Constructor

.text.defDestroy
                0x9d013de8      0x110
 .text.defDestroy
                0x9d013de8      0x110 build/pic32mz_ef_sk_meb2/debug/_ext/1847583374/gfx_default_impl.o
                0x9d013de8                defDestroy

.text._occlusionCullTestAscending
                0x9d013ef8      0x10c
 .text._occlusionCullTestAscending
                0x9d013ef8      0x10c build/pic32mz_ef_sk_meb2/debug/_ext/1907747181/libaria_utils.o
                0x9d013ef8                _occlusionCullTestAscending

.text.touchUp   0x9d014004      0x108
 .text.touchUp  0x9d014004      0x108 build/pic32mz_ef_sk_meb2/debug/_ext/1907747181/libaria_widget_button.o

.text.layerBufferAllocate
                0x9d01410c      0x108
 .text.layerBufferAllocate
                0x9d01410c      0x108 build/pic32mz_ef_sk_meb2/debug/_ext/1847583374/gfx_default_impl.o

.text.SYS_DEVCON_PerformanceConfig
                0x9d014214      0x104
 .text.SYS_DEVCON_PerformanceConfig
                0x9d014214      0x104 build/pic32mz_ef_sk_meb2/debug/_ext/924081491/sys_devcon_pic32mz.o
                0x9d014214                SYS_DEVCON_PerformanceConfig

.text.color_tree_add
                0x9d014318      0x100
 .text.color_tree_add
                0x9d014318      0x100 build/pic32mz_ef_sk_meb2/debug/_ext/493934858/lodepng.o

.text.laString_Compare
                0x9d014418       0xfc
 .text.laString_Compare
                0x9d014418       0xfc build/pic32mz_ef_sk_meb2/debug/_ext/1907747181/libaria_string.o
                0x9d014418                laString_Compare

.text.drawBackground
                0x9d014514      0x1f8
 .text.drawBackground
                0x9d014514       0xfc build/pic32mz_ef_sk_meb2/debug/_ext/1907747181/libaria_widget_image_skin_classic.o
 .text.drawBackground
                0x9d014610       0xfc build/pic32mz_ef_sk_meb2/debug/_ext/1907747181/libaria_widget_rectangle_skin_classic.o

.text.cpuDrawRect_Line
                0x9d01470c       0xf8
 .text.cpuDrawRect_Line
                0x9d01470c       0xf8 build/pic32mz_ef_sk_meb2/debug/_ext/1847583374/gfx_draw_rect.o
                0x9d01470c                cpuDrawRect_Line

.text.SYS_DMA_TasksISR
                0x9d014804       0xf8
 .text.SYS_DMA_TasksISR
                0x9d014804       0xf8 build/pic32mz_ef_sk_meb2/debug/_ext/853959373/sys_dma.o
                0x9d014804                SYS_DMA_TasksISR

.text.laList_Remove
                0x9d0148fc       0xf4
 .text.laList_Remove
                0x9d0148fc       0xf4 build/pic32mz_ef_sk_meb2/debug/_ext/1907747181/libaria_list.o
                0x9d0148fc                laList_Remove

.text.GFXU_DrawString
                0x9d000010       0xf0
 .text.GFXU_DrawString
                0x9d000010       0xf0 build/pic32mz_ef_sk_meb2/debug/_ext/1597685232/gfxu_string.o
                0x9d000010                GFXU_DrawString

.text.defMirroringSet
                0x9d0149f0       0xf0
 .text.defMirroringSet
                0x9d0149f0       0xf0 build/pic32mz_ef_sk_meb2/debug/_ext/1847583374/gfx_default_impl.o
                0x9d0149f0                defMirroringSet

.text.defLayerBufferCountSet
                0x9d014ae0       0xf0
 .text.defLayerBufferCountSet
                0x9d014ae0       0xf0 build/pic32mz_ef_sk_meb2/debug/_ext/1847583374/gfx_default_impl.o
                0x9d014ae0                defLayerBufferCountSet

.text.SYS_Initialize
                0x9d014bd0       0xf0
 .text.SYS_Initialize
                0x9d014bd0       0xf0 build/pic32mz_ef_sk_meb2/debug/_ext/1951523377/system_init.o
                0x9d014bd0                SYS_Initialize

.text.laScreen_Hide
                0x9d014cc0       0xec
 .text.laScreen_Hide
                0x9d014cc0       0xec build/pic32mz_ef_sk_meb2/debug/_ext/1907747181/libaria_screen.o
                0x9d014cc0                laScreen_Hide

.text.laString_Copy
                0x9d014dac       0xec
 .text.laString_Copy
                0x9d014dac       0xec build/pic32mz_ef_sk_meb2/debug/_ext/1907747181/libaria_string.o
                0x9d014dac                laString_Copy

.text.laUtils_OcclusionCullTest
                0x9d014e98       0xec
 .text.laUtils_OcclusionCullTest
                0x9d014e98       0xec build/pic32mz_ef_sk_meb2/debug/_ext/1907747181/libaria_utils.o
                0x9d014e98                laUtils_OcclusionCullTest

.text.touchMoved
                0x9d014f84       0xec
 .text.touchMoved
                0x9d014f84       0xec build/pic32mz_ef_sk_meb2/debug/_ext/1907747181/libaria_widget_button.o

.text.getRLEDataAtIndex
                0x9d015070       0xe8
 .text.getRLEDataAtIndex
                0x9d015070       0xe8 build/pic32mz_ef_sk_meb2/debug/_ext/1597685232/gfxu_image_utils.o
                0x9d015070                getRLEDataAtIndex

.text.laUtils_Pick
                0x9d015158       0xe8
 .text.laUtils_Pick
                0x9d015158       0xe8 build/pic32mz_ef_sk_meb2/debug/_ext/1907747181/libaria_utils.o
                0x9d015158                laUtils_Pick

.text.GFX_PixelBufferCreate
                0x9d015240       0xe8
 .text.GFX_PixelBufferCreate
                0x9d015240       0xe8 build/pic32mz_ef_sk_meb2/debug/_ext/1847583374/gfx_pixel_buffer.o
                0x9d015240                GFX_PixelBufferCreate

.text.lodepng_color_mode_copy
                0x9d015328       0xe4
 .text.lodepng_color_mode_copy
                0x9d015328       0xe4 build/pic32mz_ef_sk_meb2/debug/_ext/493934858/lodepng.o
                0x9d015328                lodepng_color_mode_copy

.text.laString_Draw
                0x9d01540c       0xe4
 .text.laString_Draw
                0x9d01540c       0xe4 build/pic32mz_ef_sk_meb2/debug/_ext/1907747181/libaria_string.o
                0x9d01540c                laString_Draw

.text.drawBackground
                0x9d0154f0       0xe4
 .text.drawBackground
                0x9d0154f0       0xe4 build/pic32mz_ef_sk_meb2/debug/_ext/1907747181/libaria_widget_skin_classic.o

.text.GFXU_DrawImageRawExternal
                0x9d0155d4       0xe0
 .text.GFXU_DrawImageRawExternal
                0x9d0155d4       0xe0 build/pic32mz_ef_sk_meb2/debug/_ext/1597685232/gfxu_image_raw_external.o
                0x9d0155d4                GFXU_DrawImageRawExternal

.text.GFXU_DrawImageRLEExternal
                0x9d0156b4       0xe0
 .text.GFXU_DrawImageRLEExternal
                0x9d0156b4       0xe0 build/pic32mz_ef_sk_meb2/debug/_ext/1597685232/gfxu_image_rle_external.o
                0x9d0156b4                GFXU_DrawImageRLEExternal

.text.GFX_DrawLine
                0x9d015794       0xe0
 .text.GFX_DrawLine
                0x9d015794       0xe0 build/pic32mz_ef_sk_meb2/debug/_ext/1847583374/gfx.o
                0x9d015794                GFX_DrawLine

.text.lodepng_color_mode_equal
                0x9d015874       0xdc
 .text.lodepng_color_mode_equal
                0x9d015874       0xdc build/pic32mz_ef_sk_meb2/debug/_ext/493934858/lodepng.o

.text.waitImage
                0x9d015950       0xdc
 .text.waitImage
                0x9d015950       0xdc build/pic32mz_ef_sk_meb2/debug/_ext/1907747181/libaria_widget_button_skin_classic.o

.text.GFX_DrawRect
                0x9d015a2c       0xdc
 .text.GFX_DrawRect
                0x9d015a2c       0xdc build/pic32mz_ef_sk_meb2/debug/_ext/1847583374/gfx.o
                0x9d015a2c                GFX_DrawRect

.text.GFX_DrawBlit
                0x9d015b08       0xdc
 .text.GFX_DrawBlit
                0x9d015b08       0xdc build/pic32mz_ef_sk_meb2/debug/_ext/1847583374/gfx.o
                0x9d015b08                GFX_DrawBlit

.text.general_exception
                0x9d015be4       0xdc
 .text.general_exception
                0x9d015be4       0xdc c:/program files (x86)/microchip/xc32/v1.42/bin/bin/../../lib/gcc/pic32mx/4.8.3/../../../../pic32mx/lib\libpic32.a(general-exception.o)
                0x9d015be4                _general_exception_context

.text.drawBorder
                0x9d015cc0       0xd8
 .text.drawBorder
                0x9d015cc0       0xd8 build/pic32mz_ef_sk_meb2/debug/_ext/1907747181/libaria_widget_button_skin_classic.o

.text.defInitialize
                0x9d015d98       0xd8
 .text.defInitialize
                0x9d015d98       0xd8 build/pic32mz_ef_sk_meb2/debug/_ext/1847583374/gfx_default_impl.o
                0x9d015d98                defInitialize

.text._cache_err_exception_context
                0x9d015e70       0xd8
 .text._cache_err_exception_context
                0x9d015e70       0xd8 c:/program files (x86)/microchip/xc32/v1.42/bin/bin/../../lib/gcc/pic32mx/4.8.3/../../../../pic32mx/lib\libpic32.a(cache-err-exception.o)
                0x9d015e70                _cache_err_exception_context

.text.simple_tlb_refill_context
                0x9d015f48       0xd8
 .text.simple_tlb_refill_context
                0x9d015f48       0xd8 c:/program files (x86)/microchip/xc32/v1.42/bin/bin/../../lib/gcc/pic32mx/4.8.3/../../../../pic32mx/lib\libpic32.a(simple-tlb-refill-exception.o)
                0x9d015f48                _simple_tlb_refill_exception_context

.text.generateFixedLitLenTree
                0x9d016020       0xd4
 .text.generateFixedLitLenTree
                0x9d016020       0xd4 build/pic32mz_ef_sk_meb2/debug/_ext/493934858/lodepng.o

.text.GFXU_DrawStringExternal
                0x9d0160f4       0xd0
 .text.GFXU_DrawStringExternal
                0x9d0160f4       0xd0 build/pic32mz_ef_sk_meb2/debug/_ext/1597685232/gfxu_string_external.o
                0x9d0160f4                GFXU_DrawStringExternal

.text.laEvent_ProcessEvents
                0x9d0161c4       0xd0
 .text.laEvent_ProcessEvents
                0x9d0161c4       0xd0 build/pic32mz_ef_sk_meb2/debug/_ext/1907747181/libaria_event.o
                0x9d0161c4                laEvent_ProcessEvents

.text.drawBorder
                0x9d016294      0x340
 .text.drawBorder
                0x9d016294       0xd0 build/pic32mz_ef_sk_meb2/debug/_ext/1907747181/libaria_widget_skin_classic.o
 .text.drawBorder
                0x9d016364       0xd0 build/pic32mz_ef_sk_meb2/debug/_ext/1907747181/libaria_widget_image_skin_classic.o
 .text.drawBorder
                0x9d016434       0xd0 build/pic32mz_ef_sk_meb2/debug/_ext/1907747181/libaria_widget_label_skin_classic.o
 .text.drawBorder
                0x9d016504       0xd0 build/pic32mz_ef_sk_meb2/debug/_ext/1907747181/libaria_widget_rectangle_skin_classic.o

.text.color_tree_get
                0x9d0165d4       0xcc
 .text.color_tree_get
                0x9d0165d4       0xcc build/pic32mz_ef_sk_meb2/debug/_ext/493934858/lodepng.o

.text.LodePNGIText_cleanup
                0x9d0166a0       0xc8
 .text.LodePNGIText_cleanup
                0x9d0166a0       0xc8 build/pic32mz_ef_sk_meb2/debug/_ext/493934858/lodepng.o

.text.lodepng_chunk_append
                0x9d016768       0xc8
 .text.lodepng_chunk_append
                0x9d016768       0xc8 build/pic32mz_ef_sk_meb2/debug/_ext/493934858/lodepng.o
                0x9d016768                lodepng_chunk_append

.text.GFXU_CalculateCharStringWidth
                0x9d016830       0xc8
 .text.GFXU_CalculateCharStringWidth
                0x9d016830       0xc8 build/pic32mz_ef_sk_meb2/debug/_ext/1597685232/gfxu_string_query.o
                0x9d016830                GFXU_CalculateCharStringWidth

.text.laScreen_Show
                0x9d0168f8       0xc8
 .text.laScreen_Show
                0x9d0168f8       0xc8 build/pic32mz_ef_sk_meb2/debug/_ext/1907747181/libaria_screen.o
                0x9d0168f8                laScreen_Show

.text._sbrk     0x9d0169c0       0xc8
 .text._sbrk    0x9d0169c0       0xc8 c:/program files (x86)/microchip/xc32/v1.42/bin/bin/../../lib/gcc/pic32mx/4.8.3/../../../../pic32mx/lib\libpic32.a(sbrk.o)
                0x9d0169c0                _sbrk

.text.ov2640Initialisation
                0x9d016a88       0xc4
 .text.ov2640Initialisation
                0x9d016a88       0xc4 build/pic32mz_ef_sk_meb2/debug/_ext/1360937237/ov2640.o
                0x9d016a88                ov2640Initialisation

.text.drawGlyphRow8bpp
                0x9d016b4c       0xc4
 .text.drawGlyphRow8bpp
                0x9d016b4c       0xc4 build/pic32mz_ef_sk_meb2/debug/_ext/1597685232/gfxu_string_utils.o
                0x9d016b4c                drawGlyphRow8bpp

.text.touchDown
                0x9d016c10       0xc4
 .text.touchDown
                0x9d016c10       0xc4 build/pic32mz_ef_sk_meb2/debug/_ext/1907747181/libaria_widget_button.o

.text.libaria_initialize
                0x9d016cd4       0xc4
 .text.libaria_initialize
                0x9d016cd4       0xc4 build/pic32mz_ef_sk_meb2/debug/_ext/1740298103/libaria_init.o
                0x9d016cd4                libaria_initialize

.text.removePaddingBits
                0x9d016d98       0xc0
 .text.removePaddingBits
                0x9d016d98       0xc0 build/pic32mz_ef_sk_meb2/debug/_ext/493934858/lodepng.o

.text.la_strcmp
                0x9d016e58       0xc0
 .text.la_strcmp
                0x9d016e58       0xc0 build/pic32mz_ef_sk_meb2/debug/_ext/1907747181/libaria_string.o

.text.pickChild
                0x9d016f18       0xc0
 .text.pickChild
                0x9d016f18       0xc0 build/pic32mz_ef_sk_meb2/debug/_ext/1907747181/libaria_utils.o

.text.JPEG_bGetNextHuffByte
                0x9d016fd8       0xbc
 .text.JPEG_bGetNextHuffByte
                0x9d016fd8       0xbc build/pic32mz_ef_sk_meb2/debug/_ext/1597685232/gfxu_image_jpg_internal.o

.text.defLayerBufferAddressSet
                0x9d017094       0xbc
 .text.defLayerBufferAddressSet
                0x9d017094       0xbc build/pic32mz_ef_sk_meb2/debug/_ext/1847583374/gfx_default_impl.o
                0x9d017094                defLayerBufferAddressSet

.tlb.__pic32_tlb_init_ebi_sqi
                0x9d017150       0xbc
 .tlb.__pic32_tlb_init_ebi_sqi
                0x9d017150       0xbc c:/program files (x86)/microchip/xc32/v1.42/bin/bin/../../lib/gcc/pic32mx/4.8.3/../../../../pic32mx/lib\libpic32.a(pic32_init_tlb_ebi_sqi.o)
                0x9d017150                __pic32_tlb_init_ebi_sqi

.text.APP_Tasks
                0x9d01720c       0xb4
 .text.APP_Tasks
                0x9d01720c       0xb4 build/pic32mz_ef_sk_meb2/debug/_ext/1360937237/app.o
                0x9d01720c                APP_Tasks

.text.drawGlyphRow1bpp
                0x9d0172c0       0xb0
 .text.drawGlyphRow1bpp
                0x9d0172c0       0xb0 build/pic32mz_ef_sk_meb2/debug/_ext/1597685232/gfxu_string_utils.o
                0x9d0172c0                drawGlyphRow1bpp

.text.GFXU_FontGetLookupTableEntry
                0x9d017370       0xb0
 .text.GFXU_FontGetLookupTableEntry
                0x9d017370       0xb0 build/pic32mz_ef_sk_meb2/debug/_ext/1597685232/gfxu_string_utils.o
                0x9d017370                GFXU_FontGetLookupTableEntry

.text.GFX_DrawPixel
                0x9d017420       0xb0
 .text.GFX_DrawPixel
                0x9d017420       0xb0 build/pic32mz_ef_sk_meb2/debug/_ext/1847583374/gfx.o
                0x9d017420                GFX_DrawPixel

.text.get_displayInfo
                0x9d0174d0       0xb0
 .text.get_displayInfo
                0x9d0174d0       0xb0 build/pic32mz_ef_sk_meb2/debug/_ext/1847583374/gfx_get.o
                0x9d0174d0                get_displayInfo

.text.lerp_argb8888
                0x9d017580       0xb0
 .text.lerp_argb8888
                0x9d017580       0xb0 build/pic32mz_ef_sk_meb2/debug/_ext/1847583374/gfx_color_lerp.o

.text.lerp_rgba8888
                0x9d017630       0xb0
 .text.lerp_rgba8888
                0x9d017630       0xb0 build/pic32mz_ef_sk_meb2/debug/_ext/1847583374/gfx_color_lerp.o

.text._DRV_I2C_QueueSlotGet_0
                0x9d0176e0       0xb0
 .text._DRV_I2C_QueueSlotGet_0
                0x9d0176e0       0xb0 build/pic32mz_ef_sk_meb2/debug/_ext/1219754583/drv_i2c_static_buffer_model.o
                0x9d0176e0                _DRV_I2C_QueueSlotGet_0

.text.GFXU_GetStringRect
                0x9d017790       0xac
 .text.GFXU_GetStringRect
                0x9d017790       0xac build/pic32mz_ef_sk_meb2/debug/_ext/1597685232/gfxu_string_query.o
                0x9d017790                GFXU_GetStringRect

.text.laString_GetRect
                0x9d01783c       0xac
 .text.laString_GetRect
                0x9d01783c       0xac build/pic32mz_ef_sk_meb2/debug/_ext/1907747181/libaria_string.o
                0x9d01783c                laString_GetRect

.text.laWidget_GetCumulativeAlphaAmount
                0x9d0178e8       0xac
 .text.laWidget_GetCumulativeAlphaAmount
                0x9d0178e8       0xac build/pic32mz_ef_sk_meb2/debug/_ext/1907747181/libaria_widget.o
                0x9d0178e8                laWidget_GetCumulativeAlphaAmount

.text._laButtonWidget_Constructor
                0x9d017994       0xac
 .text._laButtonWidget_Constructor
                0x9d017994       0xac build/pic32mz_ef_sk_meb2/debug/_ext/1907747181/libaria_widget_button.o
                0x9d017994                _laButtonWidget_Constructor

.text.BSP_LEDOff
                0x9d017a40       0xac
 .text.BSP_LEDOff
                0x9d017a40       0xac build/pic32mz_ef_sk_meb2/debug/_ext/1465531745/bsp.o
                0x9d017a40                BSP_LEDOff

.text.waitString
                0x9d017aec       0xa8
 .text.waitString
                0x9d017aec       0xa8 build/pic32mz_ef_sk_meb2/debug/_ext/1907747181/libaria_widget_button_skin_classic.o

.text.waitImage
                0x9d017b94       0xa8
 .text.waitImage
                0x9d017b94       0xa8 build/pic32mz_ef_sk_meb2/debug/_ext/1907747181/libaria_widget_image_skin_classic.o

.text.waitString
                0x9d017c3c       0xa8
 .text.waitString
                0x9d017c3c       0xa8 build/pic32mz_ef_sk_meb2/debug/_ext/1907747181/libaria_widget_label_skin_classic.o

.text           0x9d017ce4       0xa8
 .text          0x9d017ce4       0xa8 c:/program files (x86)/microchip/xc32/v1.42/bin/bin/../../lib/gcc/pic32mx/4.8.3/../../../../pic32mx/lib\libpic32.a(memset.o)
                0x9d017ce4                memset

.text.laScreen_New
                0x9d017d8c       0xa4
 .text.laScreen_New
                0x9d017d8c       0xa4 build/pic32mz_ef_sk_meb2/debug/_ext/1907747181/libaria_screen.o
                0x9d017d8c                laScreen_New

.text.cpuDrawLineHorz
                0x9d017e30       0xa4
 .text.cpuDrawLineHorz
                0x9d017e30       0xa4 build/pic32mz_ef_sk_meb2/debug/_ext/1847583374/gfx_draw_line.o
                0x9d017e30                cpuDrawLineHorz

.text.HuffmanTree_makeFromLengths
                0x9d017ed4       0xa0
 .text.HuffmanTree_makeFromLengths
                0x9d017ed4       0xa0 build/pic32mz_ef_sk_meb2/debug/_ext/493934858/lodepng.o

.text.imageReadRequestCompleted
                0x9d017f74       0xa0
 .text.imageReadRequestCompleted
                0x9d017f74       0xa0 build/pic32mz_ef_sk_meb2/debug/_ext/1597685232/gfxu_image_raw_external.o

.text.GFXU_DecodeUTF16
                0x9d018014       0xa0
 .text.GFXU_DecodeUTF16
                0x9d018014       0xa0 build/pic32mz_ef_sk_meb2/debug/_ext/1597685232/gfxu_string_utils.o
                0x9d018014                GFXU_DecodeUTF16

.text.laContext_SetActiveScreen
                0x9d0180b4       0xa0
 .text.laContext_SetActiveScreen
                0x9d0180b4       0xa0 build/pic32mz_ef_sk_meb2/debug/_ext/1907747181/libaria_context.o
                0x9d0180b4                laContext_SetActiveScreen

.text.laWidget_AddChild
                0x9d018154       0xa0
 .text.laWidget_AddChild
                0x9d018154       0xa0 build/pic32mz_ef_sk_meb2/debug/_ext/1907747181/libaria_widget.o
                0x9d018154                laWidget_AddChild

.text.cpuDrawLineVert
                0x9d0181f4       0xa0
 .text.cpuDrawLineVert
                0x9d0181f4       0xa0 build/pic32mz_ef_sk_meb2/debug/_ext/1847583374/gfx_draw_line.o
                0x9d0181f4                cpuDrawLineVert

.text.laContext_RedrawAll
                0x9d018294       0x9c
 .text.laContext_RedrawAll
                0x9d018294       0x9c build/pic32mz_ef_sk_meb2/debug/_ext/1907747181/libaria_context.o
                0x9d018294                laContext_RedrawAll

.text.laLayer_New
                0x9d018330       0x9c
 .text.laLayer_New
                0x9d018330       0x9c build/pic32mz_ef_sk_meb2/debug/_ext/1907747181/libaria_layer.o
                0x9d018330                laLayer_New

.text.GFX_PixelBufferSet_Unsafe
                0x9d0183cc       0x9c
 .text.GFX_PixelBufferSet_Unsafe
                0x9d0183cc       0x9c build/pic32mz_ef_sk_meb2/debug/_ext/1847583374/gfx_pixel_buffer.o
                0x9d0183cc                GFX_PixelBufferSet_Unsafe

.text.lerp_rgba5551
                0x9d018468       0x98
 .text.lerp_rgba5551
                0x9d018468       0x98 build/pic32mz_ef_sk_meb2/debug/_ext/1847583374/gfx_color_lerp.o

.text.GFXU_FontGetGlyphInfo
                0x9d018500       0x94
 .text.GFXU_FontGetGlyphInfo
                0x9d018500       0x94 build/pic32mz_ef_sk_meb2/debug/_ext/1597685232/gfxu_string_utils.o
                0x9d018500                GFXU_FontGetGlyphInfo

.text.laList_PushBack
                0x9d018594       0x94
 .text.laList_PushBack
                0x9d018594       0x94 build/pic32mz_ef_sk_meb2/debug/_ext/1907747181/libaria_list.o
                0x9d018594                laList_PushBack

.text.laUtils_ClipRectToParent
                0x9d018628       0x94
 .text.laUtils_ClipRectToParent
                0x9d018628       0x94 build/pic32mz_ef_sk_meb2/debug/_ext/1907747181/libaria_utils.o
                0x9d018628                laUtils_ClipRectToParent

.text.laWidget_SetSize
                0x9d0186bc       0x94
 .text.laWidget_SetSize
                0x9d0186bc       0x94 build/pic32mz_ef_sk_meb2/debug/_ext/1907747181/libaria_widget.o
                0x9d0186bc                laWidget_SetSize

.text._laRectangleWidget_Paint
                0x9d018750       0x94
 .text._laRectangleWidget_Paint
                0x9d018750       0x94 build/pic32mz_ef_sk_meb2/debug/_ext/1907747181/libaria_widget_rectangle_skin_classic.o
                0x9d018750                _laRectangleWidget_Paint

.text.GFX_PixelBufferClipRect
                0x9d0187e4       0x94
 .text.GFX_PixelBufferClipRect
                0x9d0187e4       0x94 build/pic32mz_ef_sk_meb2/debug/_ext/1847583374/gfx_pixel_buffer.o
                0x9d0187e4                GFX_PixelBufferClipRect

.text.DRV_TMR0_Initialize
                0x9d018878       0x94
 .text.DRV_TMR0_Initialize
                0x9d018878       0x94 build/pic32mz_ef_sk_meb2/debug/_ext/199634090/drv_tmr_static.o
                0x9d018878                DRV_TMR0_Initialize

.text.LodePNGText_cleanup
                0x9d01890c       0x90
 .text.LodePNGText_cleanup
                0x9d01890c       0x90 build/pic32mz_ef_sk_meb2/debug/_ext/493934858/lodepng.o

.text.laContext_SetEditWidget
                0x9d01899c       0x90
 .text.laContext_SetEditWidget
                0x9d01899c       0x90 build/pic32mz_ef_sk_meb2/debug/_ext/1907747181/libaria_context.o
                0x9d01899c                laContext_SetEditWidget

.text.cpuDrawPixel
                0x9d018a2c       0x90
 .text.cpuDrawPixel
                0x9d018a2c       0x90 build/pic32mz_ef_sk_meb2/debug/_ext/1847583374/gfx_draw_pixel.o
                0x9d018a2c                cpuDrawPixel

.text.lodepng_decode_memory
                0x9d018abc       0x8c
 .text.lodepng_decode_memory
                0x9d018abc       0x8c build/pic32mz_ef_sk_meb2/debug/_ext/493934858/lodepng.o
                0x9d018abc                lodepng_decode_memory

.text.GFXU_StringLookup
                0x9d018b48       0x8c
 .text.GFXU_StringLookup
                0x9d018b48       0x8c build/pic32mz_ef_sk_meb2/debug/_ext/1597685232/gfxu_string_utils.o
                0x9d018b48                GFXU_StringLookup

.text.laList_Destroy
                0x9d018bd4       0x8c
 .text.laList_Destroy
                0x9d018bd4       0x8c build/pic32mz_ef_sk_meb2/debug/_ext/1907747181/libaria_list.o
                0x9d018bd4                laList_Destroy

.text.GFX_RectClip
                0x9d018c60       0x8c
 .text.GFX_RectClip
                0x9d018c60       0x8c build/pic32mz_ef_sk_meb2/debug/_ext/1847583374/gfx_rect.o
                0x9d018c60                GFX_RectClip

.text.lodepng_chunk_type_equals
                0x9d018cec       0x88
 .text.lodepng_chunk_type_equals
                0x9d018cec       0x88 build/pic32mz_ef_sk_meb2/debug/_ext/493934858/lodepng.o
                0x9d018cec                lodepng_chunk_type_equals

.text.laWidget_SetPosition
                0x9d018d74       0x88
 .text.laWidget_SetPosition
                0x9d018d74       0x88 build/pic32mz_ef_sk_meb2/debug/_ext/1907747181/libaria_widget.o
                0x9d018d74                laWidget_SetPosition

.text.defDrawPaletteSet
                0x9d018dfc       0x88
 .text.defDrawPaletteSet
                0x9d018dfc       0x88 build/pic32mz_ef_sk_meb2/debug/_ext/1847583374/gfx_default_impl.o
                0x9d018dfc                defDrawPaletteSet

.text._IntHandlerDrvI2CErrorInstance0
                0x9d018e84       0x88
 .text._IntHandlerDrvI2CErrorInstance0
                0x9d018e84       0x88 build/pic32mz_ef_sk_meb2/debug/_ext/1951523377/system_interrupt.o
                0x9d018e84                _IntHandlerDrvI2CErrorInstance0

.text.string_set
                0x9d018f0c       0x84
 .text.string_set
                0x9d018f0c       0x84 build/pic32mz_ef_sk_meb2/debug/_ext/493934858/lodepng.o

.text.uivector_resize
                0x9d018f90       0x84
 .text.uivector_resize
                0x9d018f90       0x84 build/pic32mz_ef_sk_meb2/debug/_ext/493934858/lodepng.o

.text.lodepng_info_init
                0x9d019014       0x84
 .text.lodepng_info_init
                0x9d019014       0x84 build/pic32mz_ef_sk_meb2/debug/_ext/493934858/lodepng.o
                0x9d019014                lodepng_info_init

.text.defLayerPositionSet
                0x9d019098       0x84
 .text.defLayerPositionSet
                0x9d019098       0x84 build/pic32mz_ef_sk_meb2/debug/_ext/1847583374/gfx_default_impl.o
                0x9d019098                defLayerPositionSet

.text.uivector_resizev
                0x9d01911c       0x80
 .text.uivector_resizev
                0x9d01911c       0x80 build/pic32mz_ef_sk_meb2/debug/_ext/493934858/lodepng.o

.text.generateFixedDistanceTree
                0x9d01919c       0x80
 .text.generateFixedDistanceTree
                0x9d01919c       0x80 build/pic32mz_ef_sk_meb2/debug/_ext/493934858/lodepng.o

.text.GFXU_DrawStringInternal
                0x9d01921c       0x80
 .text.GFXU_DrawStringInternal
                0x9d01921c       0x80 build/pic32mz_ef_sk_meb2/debug/_ext/1597685232/gfxu_string_internal.o
                0x9d01921c                GFXU_DrawStringInternal

.text.layerBufferFree
                0x9d01929c       0x80
 .text.layerBufferFree
                0x9d01929c       0x80 build/pic32mz_ef_sk_meb2/debug/_ext/1847583374/gfx_default_impl.o

.text.defLayerSwapSet
                0x9d01931c       0x80
 .text.defLayerSwapSet
                0x9d01931c       0x80 build/pic32mz_ef_sk_meb2/debug/_ext/1847583374/gfx_default_impl.o
                0x9d01931c                defLayerSwapSet

.text.lerp_rgb888
                0x9d01939c       0x80
 .text.lerp_rgb888
                0x9d01939c       0x80 build/pic32mz_ef_sk_meb2/debug/_ext/1847583374/gfx_color_lerp.o

.text.lerp_rgb565
                0x9d01941c       0x80
 .text.lerp_rgb565
                0x9d01941c       0x80 build/pic32mz_ef_sk_meb2/debug/_ext/1847583374/gfx_color_lerp.o

.text.lerp_rgb332
                0x9d01949c       0x80
 .text.lerp_rgb332
                0x9d01949c       0x80 build/pic32mz_ef_sk_meb2/debug/_ext/1847583374/gfx_color_lerp.o

.text.readBitsFromReversedStream
                0x9d01951c       0x7c
 .text.readBitsFromReversedStream
                0x9d01951c       0x7c build/pic32mz_ef_sk_meb2/debug/_ext/493934858/lodepng.o

.text.blend_argb8888
                0x9d019598       0x7c
 .text.blend_argb8888
                0x9d019598       0x7c build/pic32mz_ef_sk_meb2/debug/_ext/1847583374/gfx_color_blend.o

.text.GFX_PercentOf
                0x9d019614       0x7c
 .text.GFX_PercentOf
                0x9d019614       0x7c build/pic32mz_ef_sk_meb2/debug/_ext/1847583374/gfx_math.o
                0x9d019614                GFX_PercentOf

.text.DRV_TMR0_Tasks
                0x9d019690       0x7c
 .text.DRV_TMR0_Tasks
                0x9d019690       0x7c build/pic32mz_ef_sk_meb2/debug/_ext/199634090/drv_tmr_static.o
                0x9d019690                DRV_TMR0_Tasks

.text.fptoul    0x9d01970c       0x7c
 .text.fptoul   0x9d01970c       0x7c c:/program files (x86)/microchip/xc32/v1.42/bin/bin/../../lib/gcc/pic32mx/4.8.3/../../../../pic32mx/lib\libm.a(fptoul.o)
                0x9d01970c                fptoui
                0x9d01970c                fptoul
                0x9d01970c                __fixunssfsi

.text.huffmanDecodeSymbol
                0x9d019788       0x78
 .text.huffmanDecodeSymbol
                0x9d019788       0x78 build/pic32mz_ef_sk_meb2/debug/_ext/493934858/lodepng.o

.text.addColorBits
                0x9d019800       0x78
 .text.addColorBits
                0x9d019800       0x78 build/pic32mz_ef_sk_meb2/debug/_ext/493934858/lodepng.o

.text.paethPredictor
                0x9d019878       0x78
 .text.paethPredictor
                0x9d019878       0x78 build/pic32mz_ef_sk_meb2/debug/_ext/493934858/lodepng.o

.text.GFXU_StringIndexLookup
                0x9d0198f0       0x78
 .text.GFXU_StringIndexLookup
                0x9d0198f0       0x78 build/pic32mz_ef_sk_meb2/debug/_ext/1597685232/gfxu_string_utils.o
                0x9d0198f0                GFXU_StringIndexLookup

.text.handleTouchDown
                0x9d019968       0x78
 .text.handleTouchDown
                0x9d019968       0x78 build/pic32mz_ef_sk_meb2/debug/_ext/1907747181/libaria_input.o
                0x9d019968                handleTouchDown

.text.laList_Clear
                0x9d0199e0       0x78
 .text.laList_Clear
                0x9d0199e0       0x78 build/pic32mz_ef_sk_meb2/debug/_ext/1907747181/libaria_list.o
                0x9d0199e0                laList_Clear

.text._laWidget_Destructor
                0x9d019a58       0x78
 .text._laWidget_Destructor
                0x9d019a58       0x78 build/pic32mz_ef_sk_meb2/debug/_ext/1907747181/libaria_widget.o
                0x9d019a58                _laWidget_Destructor

.text.GFX_PixelBufferGet_Unsafe
                0x9d019ad0       0x78
 .text.GFX_PixelBufferGet_Unsafe
                0x9d019ad0       0x78 build/pic32mz_ef_sk_meb2/debug/_ext/1847583374/gfx_pixel_buffer.o
                0x9d019ad0                GFX_PixelBufferGet_Unsafe

.text.ucvector_reserve
                0x9d019b48       0x74
 .text.ucvector_reserve
                0x9d019b48       0x74 build/pic32mz_ef_sk_meb2/debug/_ext/493934858/lodepng.o

.text.GFXU_StringFontIndexLookup
                0x9d019bbc       0x74
 .text.GFXU_StringFontIndexLookup
                0x9d019bbc       0x74 build/pic32mz_ef_sk_meb2/debug/_ext/1597685232/gfxu_string_utils.o
                0x9d019bbc                GFXU_StringFontIndexLookup

.text.GFXU_DrawUnknownGlyph
                0x9d019c30       0x74
 .text.GFXU_DrawUnknownGlyph
                0x9d019c30       0x74 build/pic32mz_ef_sk_meb2/debug/_ext/1597685232/gfxu_string_utils.o
                0x9d019c30                GFXU_DrawUnknownGlyph

.text.laContext_SetFocusWidget
                0x9d019ca4       0x74
 .text.laContext_SetFocusWidget
                0x9d019ca4       0x74 build/pic32mz_ef_sk_meb2/debug/_ext/1907747181/libaria_context.o
                0x9d019ca4                laContext_SetFocusWidget

.text.laScreen_SetLayer
                0x9d019d18       0x74
 .text.laScreen_SetLayer
                0x9d019d18       0x74 build/pic32mz_ef_sk_meb2/debug/_ext/1907747181/libaria_screen.o
                0x9d019d18                laScreen_SetLayer

.text.laUtils_ChildIntersectsParent
                0x9d019d8c       0x74
 .text.laUtils_ChildIntersectsParent
                0x9d019d8c       0x74 build/pic32mz_ef_sk_meb2/debug/_ext/1907747181/libaria_utils.o
                0x9d019d8c                laUtils_ChildIntersectsParent

.text.GFX_RectContainsRect
                0x9d019e00       0x74
 .text.GFX_RectContainsRect
                0x9d019e00       0x74 build/pic32mz_ef_sk_meb2/debug/_ext/1847583374/gfx_rect.o
                0x9d019e00                GFX_RectContainsRect

.text.GFX_RectIntersects
                0x9d019e74       0x74
 .text.GFX_RectIntersects
                0x9d019e74       0x74 build/pic32mz_ef_sk_meb2/debug/_ext/1847583374/gfx_rect.o
                0x9d019e74                GFX_RectIntersects

.text.laList_Find
                0x9d000110       0x70
 .text.laList_Find
                0x9d000110       0x70 build/pic32mz_ef_sk_meb2/debug/_ext/1907747181/libaria_list.o
                0x9d000110                laList_Find

.text.laString_CreateFromID
                0x9d000190       0x70
 .text.laString_CreateFromID
                0x9d000190       0x70 build/pic32mz_ef_sk_meb2/debug/_ext/1907747181/libaria_string.o
                0x9d000190                laString_CreateFromID

.text.laUtils_RectToScreenSpace
                0x9d019ee8       0x70
 .text.laUtils_RectToScreenSpace
                0x9d019ee8       0x70 build/pic32mz_ef_sk_meb2/debug/_ext/1907747181/libaria_utils.o
                0x9d019ee8                laUtils_RectToScreenSpace

.text.GFX_Set   0x9d019f58       0x70
 .text.GFX_Set  0x9d019f58       0x70 build/pic32mz_ef_sk_meb2/debug/_ext/1847583374/gfx.o
                0x9d019f58                GFX_Set

.text.GFX_ScaleInteger
                0x9d019fc8       0x70
 .text.GFX_ScaleInteger
                0x9d019fc8       0x70 build/pic32mz_ef_sk_meb2/debug/_ext/1847583374/gfx_math.o
                0x9d019fc8                GFX_ScaleInteger

.text.GFX_Lerp  0x9d01a038       0x70
 .text.GFX_Lerp
                0x9d01a038       0x70 build/pic32mz_ef_sk_meb2/debug/_ext/1847583374/gfx_math.o
                0x9d01a038                GFX_Lerp

.text.LibAria_Initialize
                0x9d01a0a8       0x70
 .text.LibAria_Initialize
                0x9d01a0a8       0x70 build/pic32mz_ef_sk_meb2/debug/_ext/1740298103/libaria_harmony.o
                0x9d01a0a8                LibAria_Initialize

.text.JPEG_wGetBits
                0x9d01a118       0x6c
 .text.JPEG_wGetBits
                0x9d01a118       0x6c build/pic32mz_ef_sk_meb2/debug/_ext/1597685232/gfxu_image_jpg_internal.o

.text.laString_Destroy
                0x9d01a184       0x6c
 .text.laString_Destroy
                0x9d01a184       0x6c build/pic32mz_ef_sk_meb2/debug/_ext/1907747181/libaria_string.o
                0x9d01a184                laString_Destroy

.text.laUtils_GetLayer
                0x9d01a1f0       0x6c
 .text.laUtils_GetLayer
                0x9d01a1f0       0x6c build/pic32mz_ef_sk_meb2/debug/_ext/1907747181/libaria_utils.o
                0x9d01a1f0                laUtils_GetLayer

.text._laLabelWidget_Constructor
                0x9d01a25c       0x6c
 .text._laLabelWidget_Constructor
                0x9d01a25c       0x6c build/pic32mz_ef_sk_meb2/debug/_ext/1907747181/libaria_widget_label.o
                0x9d01a25c                _laLabelWidget_Constructor

.text.SYS_DMA_Initialize
                0x9d01a2c8       0x6c
 .text.SYS_DMA_Initialize
                0x9d01a2c8       0x6c build/pic32mz_ef_sk_meb2/debug/_ext/853959373/sys_dma.o
                0x9d01a2c8                SYS_DMA_Initialize

.text._SYS_CLK_PeripheralClockRead
                0x9d01a334       0x6c
 .text._SYS_CLK_PeripheralClockRead
                0x9d01a334       0x6c build/pic32mz_ef_sk_meb2/debug/_ext/1847413222/sys_clk_pic32mz.o
                0x9d01a334                _SYS_CLK_PeripheralClockRead

.text.setBitOfReversedStream
                0x9d01a3a0       0x68
 .text.setBitOfReversedStream
                0x9d01a3a0       0x68 build/pic32mz_ef_sk_meb2/debug/_ext/493934858/lodepng.o

.text.laContext_GetScreenRect
                0x9d01a408       0x68
 .text.laContext_GetScreenRect
                0x9d01a408       0x68 build/pic32mz_ef_sk_meb2/debug/_ext/1907747181/libaria_context.o
                0x9d01a408                laContext_GetScreenRect

.text._laImageWidget_Constructor
                0x9d01a470       0x68
 .text._laImageWidget_Constructor
                0x9d01a470       0x68 build/pic32mz_ef_sk_meb2/debug/_ext/1907747181/libaria_widget_image.o
                0x9d01a470                _laImageWidget_Constructor

.text.defDrawGradientColorGet
                0x9d01a4d8       0x68
 .text.defDrawGradientColorGet
                0x9d01a4d8       0x68 build/pic32mz_ef_sk_meb2/debug/_ext/1847583374/gfx_default_impl.o
                0x9d01a4d8                defDrawGradientColorGet

.text.GFX_PixelBufferOffsetGet
                0x9d01a540       0x68
 .text.GFX_PixelBufferOffsetGet
                0x9d01a540       0x68 build/pic32mz_ef_sk_meb2/debug/_ext/1847583374/gfx_pixel_buffer.o
                0x9d01a540                GFX_PixelBufferOffsetGet

.text.GFX_PixelBufferSet
                0x9d01a5a8       0x68
 .text.GFX_PixelBufferSet
                0x9d01a5a8       0x68 build/pic32mz_ef_sk_meb2/debug/_ext/1847583374/gfx_pixel_buffer.o
                0x9d01a5a8                GFX_PixelBufferSet

.text.getNumColorChannels
                0x9d01a610       0x64
 .text.getNumColorChannels
                0x9d01a610       0x64 build/pic32mz_ef_sk_meb2/debug/_ext/493934858/lodepng.o

.text._laLayer_Moved
                0x9d01a674       0x64
 .text._laLayer_Moved
                0x9d01a674       0x64 build/pic32mz_ef_sk_meb2/debug/_ext/1907747181/libaria_layer.o
                0x9d01a674                _laLayer_Moved

.text._laLayer_Resized
                0x9d01a6d8       0x64
 .text._laLayer_Resized
                0x9d01a6d8       0x64 build/pic32mz_ef_sk_meb2/debug/_ext/1907747181/libaria_layer.o
                0x9d01a6d8                _laLayer_Resized

.text._laLayer_Paint
                0x9d01a73c       0x64
 .text._laLayer_Paint
                0x9d01a73c       0x64 build/pic32mz_ef_sk_meb2/debug/_ext/1907747181/libaria_layer.o
                0x9d01a73c                _laLayer_Paint

.text.isAncestorOf
                0x9d01a7a0       0x64
 .text.isAncestorOf
                0x9d01a7a0       0x64 build/pic32mz_ef_sk_meb2/debug/_ext/1907747181/libaria_widget.o

.text.laWidget_RemoveChild
                0x9d01a804       0x64
 .text.laWidget_RemoveChild
                0x9d01a804       0x64 build/pic32mz_ef_sk_meb2/debug/_ext/1907747181/libaria_widget.o
                0x9d01a804                laWidget_RemoveChild

.text.laButtonWidget_SetText
                0x9d01a868       0x64
 .text.laButtonWidget_SetText
                0x9d01a868       0x64 build/pic32mz_ef_sk_meb2/debug/_ext/1907747181/libaria_widget_button.o
                0x9d01a868                laButtonWidget_SetText

.text.laLabelWidget_SetText
                0x9d01a8cc       0x64
 .text.laLabelWidget_SetText
                0x9d01a8cc       0x64 build/pic32mz_ef_sk_meb2/debug/_ext/1907747181/libaria_widget_label.o
                0x9d01a8cc                laLabelWidget_SetText

.text._laRectangleWidget_Constructor
                0x9d01a930       0x64
 .text._laRectangleWidget_Constructor
                0x9d01a930       0x64 build/pic32mz_ef_sk_meb2/debug/_ext/1907747181/libaria_widget_rectangle.o
                0x9d01a930                _laRectangleWidget_Constructor

.text.defLayerSizeGet
                0x9d01a994       0x64
 .text.defLayerSizeGet
                0x9d01a994       0x64 build/pic32mz_ef_sk_meb2/debug/_ext/1847583374/gfx_default_impl.o
                0x9d01a994                defLayerSizeGet

.text.defLayerSizeSet
                0x9d01a9f8       0x64
 .text.defLayerSizeSet
                0x9d01a9f8       0x64 build/pic32mz_ef_sk_meb2/debug/_ext/1847583374/gfx_default_impl.o
                0x9d01a9f8                defLayerSizeSet

.text.indexGet  0x9d01aa5c       0x64
 .text.indexGet
                0x9d01aa5c       0x64 build/pic32mz_ef_sk_meb2/debug/_ext/1847583374/gfx_pixel_buffer.o

.text.rgb565_gs8
                0x9d01aac0       0x64
 .text.rgb565_gs8
                0x9d01aac0       0x64 build/pic32mz_ef_sk_meb2/debug/_ext/1847583374/gfx_color_convert.o

.text.rgb332_gs8
                0x9d01ab24       0x64
 .text.rgb332_gs8
                0x9d01ab24       0x64 build/pic32mz_ef_sk_meb2/debug/_ext/1847583374/gfx_color_convert.o

.text.JPEG_wReadWord
                0x9d01ab88       0x60
 .text.JPEG_wReadWord
                0x9d01ab88       0x60 build/pic32mz_ef_sk_meb2/debug/_ext/1597685232/gfxu_image_jpg_internal.o

.text.JPEG_sGetBitsValue
                0x9d01abe8       0x60
 .text.JPEG_sGetBitsValue
                0x9d01abe8       0x60 build/pic32mz_ef_sk_meb2/debug/_ext/1597685232/gfxu_image_jpg_internal.o

.text.color_tree_cleanup
                0x9d01ac48       0x60
 .text.color_tree_cleanup
                0x9d01ac48       0x60 build/pic32mz_ef_sk_meb2/debug/_ext/493934858/lodepng.o

.text.GFXU_GetStringHeight
                0x9d01aca8       0x60
 .text.GFXU_GetStringHeight
                0x9d01aca8       0x60 build/pic32mz_ef_sk_meb2/debug/_ext/1597685232/gfxu_string_query.o
                0x9d01aca8                GFXU_GetStringHeight

.text._laContext_HandleScreenChangeEvent
                0x9d01ad08       0x60
 .text._laContext_HandleScreenChangeEvent
                0x9d01ad08       0x60 build/pic32mz_ef_sk_meb2/debug/_ext/1907747181/libaria_context.o
                0x9d01ad08                _laContext_HandleScreenChangeEvent

.text._laInput_HandleInputEvent
                0x9d01ad68       0x60
 .text._laInput_HandleInputEvent
                0x9d01ad68       0x60 build/pic32mz_ef_sk_meb2/debug/_ext/1907747181/libaria_input.o
                0x9d01ad68                _laInput_HandleInputEvent

.text.GFX_LayerSwap
                0x9d01adc8       0x60
 .text.GFX_LayerSwap
                0x9d01adc8       0x60 build/pic32mz_ef_sk_meb2/debug/_ext/1847583374/gfx_layer.o
                0x9d01adc8                GFX_LayerSwap

.text.GFX_PixelBufferGetIndex
                0x9d01ae28       0x60
 .text.GFX_PixelBufferGetIndex
                0x9d01ae28       0x60 build/pic32mz_ef_sk_meb2/debug/_ext/1847583374/gfx_pixel_buffer.o
                0x9d01ae28                GFX_PixelBufferGetIndex

.text.lut_argb8888
                0x9d01ae88       0x60
 .text.lut_argb8888
                0x9d01ae88       0x60 build/pic32mz_ef_sk_meb2/debug/_ext/1847583374/gfx_color_convert.o

.text.lut_rgba8888
                0x9d01aee8       0x60
 .text.lut_rgba8888
                0x9d01aee8       0x60 build/pic32mz_ef_sk_meb2/debug/_ext/1847583374/gfx_color_convert.o

.text.lut_rgb888
                0x9d01af48       0x60
 .text.lut_rgb888
                0x9d01af48       0x60 build/pic32mz_ef_sk_meb2/debug/_ext/1847583374/gfx_color_convert.o

.text.lut_rgba5551
                0x9d01afa8       0x60
 .text.lut_rgba5551
                0x9d01afa8       0x60 build/pic32mz_ef_sk_meb2/debug/_ext/1847583374/gfx_color_convert.o

.text.lut_rgb565
                0x9d01b008       0x60
 .text.lut_rgb565
                0x9d01b008       0x60 build/pic32mz_ef_sk_meb2/debug/_ext/1847583374/gfx_color_convert.o

.text.lut_rgb332
                0x9d01b068       0x60
 .text.lut_rgb332
                0x9d01b068       0x60 build/pic32mz_ef_sk_meb2/debug/_ext/1847583374/gfx_color_convert.o

.text.lut_gs8   0x9d01b0c8       0x60
 .text.lut_gs8  0x9d01b0c8       0x60 build/pic32mz_ef_sk_meb2/debug/_ext/1847583374/gfx_color_convert.o

.text.sitofp    0x9d01b128       0x60
 .text.sitofp   0x9d01b128       0x60 c:/program files (x86)/microchip/xc32/v1.42/bin/bin/../../lib/gcc/pic32mx/4.8.3/../../../../pic32mx/lib\libm.a(sitofp.o)
                0x9d01b128                __floatsisf
                0x9d01b128                litofp
                0x9d01b128                sitofp

.text.lodepng_chunk_check_crc
                0x9d01b188       0x5c
 .text.lodepng_chunk_check_crc
                0x9d01b188       0x5c build/pic32mz_ef_sk_meb2/debug/_ext/493934858/lodepng.o
                0x9d01b188                lodepng_chunk_check_crc

.text.stringEntrySizeRequestCompleted
                0x9d01b1e4       0x5c
 .text.stringEntrySizeRequestCompleted
                0x9d01b1e4       0x5c build/pic32mz_ef_sk_meb2/debug/_ext/1597685232/gfxu_string_external.o

.text.laUtils_RectToLayerSpace
                0x9d01b240       0x5c
 .text.laUtils_RectToLayerSpace
                0x9d01b240       0x5c build/pic32mz_ef_sk_meb2/debug/_ext/1907747181/libaria_utils.o
                0x9d01b240                laUtils_RectToLayerSpace

.text.defLayerActiveSet
                0x9d01b29c       0x5c
 .text.defLayerActiveSet
                0x9d01b29c       0x5c build/pic32mz_ef_sk_meb2/debug/_ext/1847583374/gfx_default_impl.o
                0x9d01b29c                defLayerActiveSet

.text.defDrawGradientColorSet
                0x9d01b2f8       0x5c
 .text.defDrawGradientColorSet
                0x9d01b2f8       0x5c build/pic32mz_ef_sk_meb2/debug/_ext/1847583374/gfx_default_impl.o
                0x9d01b2f8                defDrawGradientColorSet

.text.GFX_PixelBufferDestroy
                0x9d01b354       0x5c
 .text.GFX_PixelBufferDestroy
                0x9d01b354       0x5c build/pic32mz_ef_sk_meb2/debug/_ext/1847583374/gfx_pixel_buffer.o
                0x9d01b354                GFX_PixelBufferDestroy

.text.SYS_DMA_ChannelAllocate
                0x9d01b3b0       0x5c
 .text.SYS_DMA_ChannelAllocate
                0x9d01b3b0       0x5c build/pic32mz_ef_sk_meb2/debug/_ext/853959373/sys_dma.o
                0x9d01b3b0                SYS_DMA_ChannelAllocate

.rodata         0x9d01b40c       0x5c
 .rodata        0x9d01b40c       0x5c build/pic32mz_ef_sk_meb2/debug/_ext/1465531745/bsp.o

.text.stringArraySizeRequestCompleted
                0x9d01b468       0x58
 .text.stringArraySizeRequestCompleted
                0x9d01b468       0x58 build/pic32mz_ef_sk_meb2/debug/_ext/1597685232/gfxu_string_external.o

.text.laDraw_LineBorder
                0x9d01b4c0       0x58
 .text.laDraw_LineBorder
                0x9d01b4c0       0x58 build/pic32mz_ef_sk_meb2/debug/_ext/1907747181/libaria_draw.o
                0x9d01b4c0                laDraw_LineBorder

.text.laImageWidget_New
                0x9d01b518       0x58
 .text.laImageWidget_New
                0x9d01b518       0x58 build/pic32mz_ef_sk_meb2/debug/_ext/1907747181/libaria_widget_image.o
                0x9d01b518                laImageWidget_New

.text.laRectangleWidget_New
                0x9d01b570       0x58
 .text.laRectangleWidget_New
                0x9d01b570       0x58 build/pic32mz_ef_sk_meb2/debug/_ext/1907747181/libaria_widget_rectangle.o
                0x9d01b570                laRectangleWidget_New

.text.GFX_ColorModeInfoGet
                0x9d01b5c8       0x58
 .text.GFX_ColorModeInfoGet
                0x9d01b5c8       0x58 build/pic32mz_ef_sk_meb2/debug/_ext/1847583374/gfx_color.o
                0x9d01b5c8                GFX_ColorModeInfoGet

.text.defDrawPaletteGet
                0x9d01b620       0x58
 .text.defDrawPaletteGet
                0x9d01b620       0x58 build/pic32mz_ef_sk_meb2/debug/_ext/1847583374/gfx_default_impl.o
                0x9d01b620                defDrawPaletteGet

.text._DRV_I2C_QueuePop_0
                0x9d01b678       0x58
 .text._DRV_I2C_QueuePop_0
                0x9d01b678       0x58 build/pic32mz_ef_sk_meb2/debug/_ext/1219754583/drv_i2c_static_buffer_model.o
                0x9d01b678                _DRV_I2C_QueuePop_0

.text.DRV_TMR0_AlarmRegister
                0x9d01b6d0       0x58
 .text.DRV_TMR0_AlarmRegister
                0x9d01b6d0       0x58 build/pic32mz_ef_sk_meb2/debug/_ext/199634090/drv_tmr_static.o
                0x9d01b6d0                DRV_TMR0_AlarmRegister

.text.SYS_DEVCON_SystemUnlock
                0x9d01b728       0x58
 .text.SYS_DEVCON_SystemUnlock
                0x9d01b728       0x58 build/pic32mz_ef_sk_meb2/debug/_ext/924081491/sys_devcon.o
                0x9d01b728                SYS_DEVCON_SystemUnlock

.text.main_entry
                0x9d01b780       0x54
 .text.main_entry
                0x9d01b780       0x54 c:/program files (x86)/microchip/xc32/v1.42/bin/bin/../../lib/gcc/pic32mx/4.8.3/../../../../pic32mx/lib/./proc/32MZ2048ECM144/crt0_mips32r2.o
                0x9d01b7b4                __crt0_exit

.text.ucvector_push_back
                0x9d01b7d4       0x54
 .text.ucvector_push_back
                0x9d01b7d4       0x54 build/pic32mz_ef_sk_meb2/debug/_ext/493934858/lodepng.o

.text.lodepng_crc32
                0x9d01b828       0x54
 .text.lodepng_crc32
                0x9d01b828       0x54 build/pic32mz_ef_sk_meb2/debug/_ext/493934858/lodepng.o
                0x9d01b828                lodepng_crc32

.text.lodepng_get_raw_size_idat
                0x9d01b87c       0x54
 .text.lodepng_get_raw_size_idat
                0x9d01b87c       0x54 build/pic32mz_ef_sk_meb2/debug/_ext/493934858/lodepng.o

.text.lodepng_get_raw_size
                0x9d01b8d0       0x54
 .text.lodepng_get_raw_size
                0x9d01b8d0       0x54 build/pic32mz_ef_sk_meb2/debug/_ext/493934858/lodepng.o
                0x9d01b8d0                lodepng_get_raw_size

.text._laContext_UpdateWidget
                0x9d01b924       0x54
 .text._laContext_UpdateWidget
                0x9d01b924       0x54 build/pic32mz_ef_sk_meb2/debug/_ext/1907747181/libaria_context.o
                0x9d01b924                _laContext_UpdateWidget

.text.laWidget_GetCumulativeAlphaEnable
                0x9d01b978       0x54
 .text.laWidget_GetCumulativeAlphaEnable
                0x9d01b978       0x54 build/pic32mz_ef_sk_meb2/debug/_ext/1907747181/libaria_widget.o
                0x9d01b978                laWidget_GetCumulativeAlphaEnable

.text._laButtonWidget_Destructor
                0x9d01b9cc       0x54
 .text._laButtonWidget_Destructor
                0x9d01b9cc       0x54 build/pic32mz_ef_sk_meb2/debug/_ext/1907747181/libaria_widget_button.o
                0x9d01b9cc                _laButtonWidget_Destructor

.text._laLabelWidget_Destructor
                0x9d01ba20       0x54
 .text._laLabelWidget_Destructor
                0x9d01ba20       0x54 build/pic32mz_ef_sk_meb2/debug/_ext/1907747181/libaria_widget_label.o
                0x9d01ba20                _laLabelWidget_Destructor

.text.GFX_Get   0x9d01ba74       0x54
 .text.GFX_Get  0x9d01ba74       0x54 build/pic32mz_ef_sk_meb2/debug/_ext/1847583374/gfx.o
                0x9d01ba74                GFX_Get

.text.defLayerPositionGet
                0x9d01bac8       0x54
 .text.defLayerPositionGet
                0x9d01bac8       0x54 build/pic32mz_ef_sk_meb2/debug/_ext/1847583374/gfx_default_impl.o
                0x9d01bac8                defLayerPositionGet

.text.orient_90
                0x9d01bb1c       0x54
 .text.orient_90
                0x9d01bb1c       0x54 build/pic32mz_ef_sk_meb2/debug/_ext/1847583374/gfx_util.o

.text.orient_270
                0x9d01bb70       0x54
 .text.orient_270
                0x9d01bb70       0x54 build/pic32mz_ef_sk_meb2/debug/_ext/1847583374/gfx_util.o

.text.lodepng_info_cleanup
                0x9d01bbc4       0x50
 .text.lodepng_info_cleanup
                0x9d01bbc4       0x50 build/pic32mz_ef_sk_meb2/debug/_ext/493934858/lodepng.o
                0x9d01bbc4                lodepng_info_cleanup

.text.laButtonWidget_New
                0x9d01bc14       0x50
 .text.laButtonWidget_New
                0x9d01bc14       0x50 build/pic32mz_ef_sk_meb2/debug/_ext/1907747181/libaria_widget_button.o
                0x9d01bc14                laButtonWidget_New

.text.laLabelWidget_New
                0x9d01bc64       0x50
 .text.laLabelWidget_New
                0x9d01bc64       0x50 build/pic32mz_ef_sk_meb2/debug/_ext/1907747181/libaria_widget_label.o
                0x9d01bc64                laLabelWidget_New

.text.GFX_PixelBufferGet
                0x9d01bcb4       0x50
 .text.GFX_PixelBufferGet
                0x9d01bcb4       0x50 build/pic32mz_ef_sk_meb2/debug/_ext/1847583374/gfx_pixel_buffer.o
                0x9d01bcb4                GFX_PixelBufferGet

.text.GFX_RectContainsPoint
                0x9d01bd04       0x50
 .text.GFX_RectContainsPoint
                0x9d01bd04       0x50 build/pic32mz_ef_sk_meb2/debug/_ext/1847583374/gfx_rect.o
                0x9d01bd04                GFX_RectContainsPoint

.text.sbrk      0x9d01bd54       0x50
 .text.sbrk     0x9d01bd54       0x50 c:/program files (x86)/microchip/xc32/v1.42/bin/bin/../../lib/gcc/pic32mx/4.8.3/../../../../pic32mx/lib\libpic32.a(sbrk.o)
                0x9d01bd54                sbrk

.rodata         0x9d01bda4       0x4c
 .rodata        0x9d01bda4       0x4c build/pic32mz_ef_sk_meb2/debug/_ext/1597685232/gfxu_image_jpg_internal.o

.text.readBitsFromStream
                0x9d01bdf0       0x4c
 .text.readBitsFromStream
                0x9d01bdf0       0x4c build/pic32mz_ef_sk_meb2/debug/_ext/493934858/lodepng.o

.text._laWidget_Paint
                0x9d01be3c       0x4c
 .text._laWidget_Paint
                0x9d01be3c       0x4c build/pic32mz_ef_sk_meb2/debug/_ext/1907747181/libaria_widget_skin_classic.o
                0x9d01be3c                _laWidget_Paint

.text._laButtonWidget_Paint
                0x9d01be88       0x4c
 .text._laButtonWidget_Paint
                0x9d01be88       0x4c build/pic32mz_ef_sk_meb2/debug/_ext/1907747181/libaria_widget_button_skin_classic.o
                0x9d01be88                _laButtonWidget_Paint

.text._laImageWidget_Paint
                0x9d01bed4       0x4c
 .text._laImageWidget_Paint
                0x9d01bed4       0x4c build/pic32mz_ef_sk_meb2/debug/_ext/1907747181/libaria_widget_image_skin_classic.o
                0x9d01bed4                _laImageWidget_Paint

.text._laLabelWidget_Paint
                0x9d01bf20       0x4c
 .text._laLabelWidget_Paint
                0x9d01bf20       0x4c build/pic32mz_ef_sk_meb2/debug/_ext/1907747181/libaria_widget_label_skin_classic.o
                0x9d01bf20                _laLabelWidget_Paint

.text.defLayerBufferCoherentSet
                0x9d01bf6c       0x4c
 .text.defLayerBufferCoherentSet
                0x9d01bf6c       0x4c build/pic32mz_ef_sk_meb2/debug/_ext/1847583374/gfx_default_impl.o
                0x9d01bf6c                defLayerBufferCoherentSet

.text.orient_180
                0x9d01bfb8       0x4c
 .text.orient_180
                0x9d01bfb8       0x4c build/pic32mz_ef_sk_meb2/debug/_ext/1847583374/gfx_util.o

.text           0x9d01c004       0x4c
 .text          0x9d01c004       0x4c c:/program files (x86)/microchip/xc32/v1.42/bin/bin/../../lib/gcc/pic32mx/4.8.3\libgcc.a(floatunsisf.o)
                0x9d01c004                __floatunsisf

.text.calloc    0x9d01c050       0x4c
 .text.calloc   0x9d01c050       0x4c c:/program files (x86)/microchip/xc32/v1.42/bin/bin/../../lib/gcc/pic32mx/4.8.3/../../../../pic32mx/lib\libc.a(calloc.o)
                0x9d01c050                calloc

.text.GFXU_GetStringSizeInBytes
                0x9d01c09c       0x48
 .text.GFXU_GetStringSizeInBytes
                0x9d01c09c       0x48 build/pic32mz_ef_sk_meb2/debug/_ext/1597685232/gfxu_string_query.o
                0x9d01c09c                GFXU_GetStringSizeInBytes

.text.laContext_AddScreen
                0x9d01c0e4       0x48
 .text.laContext_AddScreen
                0x9d01c0e4       0x48 build/pic32mz_ef_sk_meb2/debug/_ext/1907747181/libaria_context.o
                0x9d01c0e4                laContext_AddScreen

.text.laEvent_AddEvent
                0x9d01c12c       0x48
 .text.laEvent_AddEvent
                0x9d01c12c       0x48 build/pic32mz_ef_sk_meb2/debug/_ext/1907747181/libaria_event.o
                0x9d01c12c                laEvent_AddEvent

.text.laList_Get
                0x9d01c174       0x48
 .text.laList_Get
                0x9d01c174       0x48 build/pic32mz_ef_sk_meb2/debug/_ext/1907747181/libaria_list.o
                0x9d01c174                laList_Get

.text.la_strcpy
                0x9d01c1bc       0x48
 .text.la_strcpy
                0x9d01c1bc       0x48 build/pic32mz_ef_sk_meb2/debug/_ext/1907747181/libaria_string.o

.text._laWidget_InvalidateArea
                0x9d01c204       0x48
 .text._laWidget_InvalidateArea
                0x9d01c204       0x48 build/pic32mz_ef_sk_meb2/debug/_ext/1907747181/libaria_widget.o
                0x9d01c204                _laWidget_InvalidateArea

.text._laImageWidget_Destructor
                0x9d01c24c       0x48
 .text._laImageWidget_Destructor
                0x9d01c24c       0x48 build/pic32mz_ef_sk_meb2/debug/_ext/1907747181/libaria_widget_image.o
                0x9d01c24c                _laImageWidget_Destructor

.text.defDrawClipRectGet
                0x9d01c294       0x48
 .text.defDrawClipRectGet
                0x9d01c294       0x48 build/pic32mz_ef_sk_meb2/debug/_ext/1847583374/gfx_default_impl.o
                0x9d01c294                defDrawClipRectGet

.text.defDrawClipRectSet
                0x9d01c2dc       0x48
 .text.defDrawClipRectSet
                0x9d01c2dc       0x48 build/pic32mz_ef_sk_meb2/debug/_ext/1847583374/gfx_default_impl.o
                0x9d01c2dc                defDrawClipRectSet

.text.driverLCCInfoGet
                0x9d01c324       0x48
 .text.driverLCCInfoGet
                0x9d01c324       0x48 build/pic32mz_ef_sk_meb2/debug/_ext/713288229/drv_gfx_lcc_generic.o
                0x9d01c324                driverLCCInfoGet

.text.SYS_DEVCON_SystemLock
                0x9d01c36c       0x48
 .text.SYS_DEVCON_SystemLock
                0x9d01c36c       0x48 build/pic32mz_ef_sk_meb2/debug/_ext/924081491/sys_devcon.o
                0x9d01c36c                SYS_DEVCON_SystemLock

.text.BSP_Initialize
                0x9d01c3b4       0x48
 .text.BSP_Initialize
                0x9d01c3b4       0x48 build/pic32mz_ef_sk_meb2/debug/_ext/1465531745/bsp.o
                0x9d01c3b4                BSP_Initialize

.text._bootstrap_exception_handler
                0x9d01c3fc       0x48
 .text._bootstrap_exception_handler
                0x9d01c3fc       0x48 c:/program files (x86)/microchip/xc32/v1.42/bin/bin/../../lib/gcc/pic32mx/4.8.3/../../../../pic32mx/lib\libpic32.a(default-bootstrap-exception-handler.o)
                0x9d01c3fc                _bootstrap_exception_handler

.text._cache_err_exception_handler
                0x9d01c444       0x48
 .text._cache_err_exception_handler
                0x9d01c444       0x48 c:/program files (x86)/microchip/xc32/v1.42/bin/bin/../../lib/gcc/pic32mx/4.8.3/../../../../pic32mx/lib\libpic32.a(default-cache-err-exception-handler.o)
                0x9d01c444                _cache_err_exception_handler

.text._simple_tlb_refill_exception_handler
                0x9d01c48c       0x48
 .text._simple_tlb_refill_exception_handler
                0x9d01c48c       0x48 c:/program files (x86)/microchip/xc32/v1.42/bin/bin/../../lib/gcc/pic32mx/4.8.3/../../../../pic32mx/lib\libpic32.a(default-simple-tlb-refill-exception-handler.o)
                0x9d01c48c                _simple_tlb_refill_exception_handler

.text.I2CMasterOpStatusCb
                0x9d01c4d4       0x44
 .text.I2CMasterOpStatusCb
                0x9d01c4d4       0x44 build/pic32mz_ef_sk_meb2/debug/_ext/1360937237/app.o
                0x9d01c4d4                I2CMasterOpStatusCb

.text.lodepng_encoder_settings_init
                0x9d01c518       0x44
 .text.lodepng_encoder_settings_init
                0x9d01c518       0x44 build/pic32mz_ef_sk_meb2/debug/_ext/493934858/lodepng.o
                0x9d01c518                lodepng_encoder_settings_init

.text.lodepng_state_init
                0x9d01c55c       0x44
 .text.lodepng_state_init
                0x9d01c55c       0x44 build/pic32mz_ef_sk_meb2/debug/_ext/493934858/lodepng.o
                0x9d01c55c                lodepng_state_init

.text._laWidget_InvalidateChildren
                0x9d01c5a0       0x44
 .text._laWidget_InvalidateChildren
                0x9d01c5a0       0x44 build/pic32mz_ef_sk_meb2/debug/_ext/1907747181/libaria_widget.o
                0x9d01c5a0                _laWidget_InvalidateChildren

.text.defBegin  0x9d01c5e4       0x44
 .text.defBegin
                0x9d01c5e4       0x44 build/pic32mz_ef_sk_meb2/debug/_ext/1847583374/gfx_default_impl.o
                0x9d01c5e4                defBegin

.text.defLayerBufferIsAllocated
                0x9d01c628       0x44
 .text.defLayerBufferIsAllocated
                0x9d01c628       0x44 build/pic32mz_ef_sk_meb2/debug/_ext/1847583374/gfx_default_impl.o
                0x9d01c628                defLayerBufferIsAllocated

.text.get_layerBufferAddress
                0x9d01c66c       0x44
 .text.get_layerBufferAddress
                0x9d01c66c       0x44 build/pic32mz_ef_sk_meb2/debug/_ext/1847583374/gfx_get.o
                0x9d01c66c                get_layerBufferAddress

.text.get_layerBufferCoherent
                0x9d01c6b0       0x44
 .text.get_layerBufferCoherent
                0x9d01c6b0       0x44 build/pic32mz_ef_sk_meb2/debug/_ext/1847583374/gfx_get.o
                0x9d01c6b0                get_layerBufferCoherent

.text.get_layerBufferAllocated
                0x9d01c6f4       0x44
 .text.get_layerBufferAllocated
                0x9d01c6f4       0x44 build/pic32mz_ef_sk_meb2/debug/_ext/1847583374/gfx_get.o
                0x9d01c6f4                get_layerBufferAllocated

.text.GFX_ColorLerp
                0x9d01c738       0x44
 .text.GFX_ColorLerp
                0x9d01c738       0x44 build/pic32mz_ef_sk_meb2/debug/_ext/1847583374/gfx_color_lerp.o
                0x9d01c738                GFX_ColorLerp

.text.GFX_PercentWholeRounded
                0x9d01c77c       0x44
 .text.GFX_PercentWholeRounded
                0x9d01c77c       0x44 build/pic32mz_ef_sk_meb2/debug/_ext/1847583374/gfx_math.o
                0x9d01c77c                GFX_PercentWholeRounded

.text.lccDestroy
                0x9d01c7c0       0x44
 .text.lccDestroy
                0x9d01c7c0       0x44 build/pic32mz_ef_sk_meb2/debug/_ext/713288229/drv_gfx_lcc_generic.o

.text           0x9d01c804       0x44
 .text          0x9d01c804       0x44 c:/program files (x86)/microchip/xc32/v1.42/bin/bin/../../lib/gcc/pic32mx/4.8.3/../../../../pic32mx/lib\pic32_software_reset.o
                0x9d01c804                __pic32_software_reset

.text.JPEG_Read
                0x9d01c848       0x40
 .text.JPEG_Read
                0x9d01c848       0x40 build/pic32mz_ef_sk_meb2/debug/_ext/1597685232/gfxu_image_jpg_internal.o

.text.ucvector_resize
                0x9d01c888       0x40
 .text.ucvector_resize
                0x9d01c888       0x40 build/pic32mz_ef_sk_meb2/debug/_ext/493934858/lodepng.o

.text.string_init
                0x9d01c8c8       0x40
 .text.string_init
                0x9d01c8c8       0x40 build/pic32mz_ef_sk_meb2/debug/_ext/493934858/lodepng.o

.text.GFXU_DrawCharString
                0x9d01c908       0x40
 .text.GFXU_DrawCharString
                0x9d01c908       0x40 build/pic32mz_ef_sk_meb2/debug/_ext/1597685232/gfxu_string.o
                0x9d01c908                GFXU_DrawCharString

.text.laContext_Update
                0x9d01c948       0x40
 .text.laContext_Update
                0x9d01c948       0x40 build/pic32mz_ef_sk_meb2/debug/_ext/1907747181/libaria_context.o
                0x9d01c948                laContext_Update

.text._laWidget_ValidateChildren
                0x9d01c988       0x40
 .text._laWidget_ValidateChildren
                0x9d01c988       0x40 build/pic32mz_ef_sk_meb2/debug/_ext/1907747181/libaria_widget.o
                0x9d01c988                _laWidget_ValidateChildren

.text.defBrightnessSet
                0x9d01c9c8       0x40
 .text.defBrightnessSet
                0x9d01c9c8       0x40 build/pic32mz_ef_sk_meb2/debug/_ext/1847583374/gfx_default_impl.o
                0x9d01c9c8                defBrightnessSet

.text.get_drawGradientColor
                0x9d01ca08       0x40
 .text.get_drawGradientColor
                0x9d01ca08       0x40 build/pic32mz_ef_sk_meb2/debug/_ext/1847583374/gfx_get.o
                0x9d01ca08                get_drawGradientColor

.text.GFX_PixelBufferOffsetGet_Unsafe
                0x9d01ca48       0x40
 .text.GFX_PixelBufferOffsetGet_Unsafe
                0x9d01ca48       0x40 build/pic32mz_ef_sk_meb2/debug/_ext/1847583374/gfx_pixel_buffer.o
                0x9d01ca48                GFX_PixelBufferOffsetGet_Unsafe

.text.rgba5551_rgba8888
                0x9d01ca88       0x40
 .text.rgba5551_rgba8888
                0x9d01ca88       0x40 build/pic32mz_ef_sk_meb2/debug/_ext/1847583374/gfx_color_convert.o

.text.rgba5551_argb8888
                0x9d01cac8       0x40
 .text.rgba5551_argb8888
                0x9d01cac8       0x40 build/pic32mz_ef_sk_meb2/debug/_ext/1847583374/gfx_color_convert.o

.text.GFX_ColorConvert
                0x9d01cb08       0x40
 .text.GFX_ColorConvert
                0x9d01cb08       0x40 build/pic32mz_ef_sk_meb2/debug/_ext/1847583374/gfx_color_convert.o
                0x9d01cb08                GFX_ColorConvert

.text._general_exception_handler
                0x9d01cb48       0x40
 .text._general_exception_handler
                0x9d01cb48       0x40 build/pic32mz_ef_sk_meb2/debug/_ext/1951523377/system_exceptions.o
                0x9d01cb48                _general_exception_handler

.text.zlib_decompress
                0x9d01cb88       0x3c
 .text.zlib_decompress
                0x9d01cb88       0x3c build/pic32mz_ef_sk_meb2/debug/_ext/493934858/lodepng.o

.text.lodepng_compress_settings_init
                0x9d01cbc4       0x3c
 .text.lodepng_compress_settings_init
                0x9d01cbc4       0x3c build/pic32mz_ef_sk_meb2/debug/_ext/493934858/lodepng.o
                0x9d01cbc4                lodepng_compress_settings_init

.text.lodepng_palette_clear
                0x9d01cc00       0x3c
 .text.lodepng_palette_clear
                0x9d01cc00       0x3c build/pic32mz_ef_sk_meb2/debug/_ext/493934858/lodepng.o
                0x9d01cc00                lodepng_palette_clear

.text.GFXU_DrawGlyphRow
                0x9d01cc3c       0x3c
 .text.GFXU_DrawGlyphRow
                0x9d01cc3c       0x3c build/pic32mz_ef_sk_meb2/debug/_ext/1597685232/gfxu_string_utils.o
                0x9d01cc3c                GFXU_DrawGlyphRow

.text.laContext_GetActiveScreenIndex
                0x9d01cc78       0x3c
 .text.laContext_GetActiveScreenIndex
                0x9d01cc78       0x3c build/pic32mz_ef_sk_meb2/debug/_ext/1907747181/libaria_context.o
                0x9d01cc78                laContext_GetActiveScreenIndex

.text.handleTouchUp
                0x9d01ccb4       0x3c
 .text.handleTouchUp
                0x9d01ccb4       0x3c build/pic32mz_ef_sk_meb2/debug/_ext/1907747181/libaria_input.o
                0x9d01ccb4                handleTouchUp

.text.handleTouchMoved
                0x9d01ccf0       0x3c
 .text.handleTouchMoved
                0x9d01ccf0       0x3c build/pic32mz_ef_sk_meb2/debug/_ext/1907747181/libaria_input.o
                0x9d01ccf0                handleTouchMoved

.text.defVSyncCallbackSet
                0x9d01cd2c       0x3c
 .text.defVSyncCallbackSet
                0x9d01cd2c       0x3c build/pic32mz_ef_sk_meb2/debug/_ext/1847583374/gfx_default_impl.o
                0x9d01cd2c                defVSyncCallbackSet

.text.defHSyncCallbackSet
                0x9d01cd68       0x3c
 .text.defHSyncCallbackSet
                0x9d01cd68       0x3c build/pic32mz_ef_sk_meb2/debug/_ext/1847583374/gfx_default_impl.o
                0x9d01cd68                defHSyncCallbackSet

.text.defLayerBufferAddressGet
                0x9d01cda4       0x3c
 .text.defLayerBufferAddressGet
                0x9d01cda4       0x3c build/pic32mz_ef_sk_meb2/debug/_ext/1847583374/gfx_default_impl.o
                0x9d01cda4                defLayerBufferAddressGet

.text.defLayerBufferCoherentGet
                0x9d01cde0       0x3c
 .text.defLayerBufferCoherentGet
                0x9d01cde0       0x3c build/pic32mz_ef_sk_meb2/debug/_ext/1847583374/gfx_default_impl.o
                0x9d01cde0                defLayerBufferCoherentGet

.text.defLayerAlphaAmountSet
                0x9d01ce1c       0x3c
 .text.defLayerAlphaAmountSet
                0x9d01ce1c       0x3c build/pic32mz_ef_sk_meb2/debug/_ext/1847583374/gfx_default_impl.o
                0x9d01ce1c                defLayerAlphaAmountSet

.text.set_drawGradientColor
                0x9d01ce58       0x3c
 .text.set_drawGradientColor
                0x9d01ce58       0x3c build/pic32mz_ef_sk_meb2/debug/_ext/1847583374/gfx_set.o
                0x9d01ce58                set_drawGradientColor

.text.DRV_I2C_Transmit
                0x9d01ce94       0x3c
 .text.DRV_I2C_Transmit
                0x9d01ce94       0x3c build/pic32mz_ef_sk_meb2/debug/_ext/1219754583/drv_i2c_mapping.o
                0x9d01ce94                DRV_I2C_Transmit

.text.DRV_TMR_AlarmRegister
                0x9d01ced0       0x3c
 .text.DRV_TMR_AlarmRegister
                0x9d01ced0       0x3c build/pic32mz_ef_sk_meb2/debug/_ext/199634090/drv_tmr_mapping.o
                0x9d01ced0                DRV_TMR_AlarmRegister

.text.APP_Initialize
                0x9d01cf0c       0x38
 .text.APP_Initialize
                0x9d01cf0c       0x38 build/pic32mz_ef_sk_meb2/debug/_ext/1360937237/app.o
                0x9d01cf0c                APP_Initialize

.text.HuffmanTree_cleanup
                0x9d01cf44       0x38
 .text.HuffmanTree_cleanup
                0x9d01cf44       0x38 build/pic32mz_ef_sk_meb2/debug/_ext/493934858/lodepng.o

.text.GFXU_DecodeCodePoint
                0x9d01cf7c       0x38
 .text.GFXU_DecodeCodePoint
                0x9d01cf7c       0x38 build/pic32mz_ef_sk_meb2/debug/_ext/1597685232/gfxu_string_utils.o
                0x9d01cf7c                GFXU_DecodeCodePoint

.text.laInitialize
                0x9d01cfb4       0x38
 .text.laInitialize
                0x9d01cfb4       0x38 build/pic32mz_ef_sk_meb2/debug/_ext/1907747181/libaria.o
                0x9d01cfb4                laInitialize

.text._laContext_Update
                0x9d01cfec       0x38
 .text._laContext_Update
                0x9d01cfec       0x38 build/pic32mz_ef_sk_meb2/debug/_ext/1907747181/libaria_context.o
                0x9d01cfec                _laContext_Update

.text.laEditWidget_StartEdit
                0x9d01d024       0x38
 .text.laEditWidget_StartEdit
                0x9d01d024       0x38 build/pic32mz_ef_sk_meb2/debug/_ext/1907747181/libaria_editwidget.o
                0x9d01d024                laEditWidget_StartEdit

.text.GFX_Update
                0x9d01d05c       0x38
 .text.GFX_Update
                0x9d01d05c       0x38 build/pic32mz_ef_sk_meb2/debug/_ext/1847583374/gfx.o
                0x9d01d05c                GFX_Update

.text.GFX_Begin
                0x9d01d094       0x38
 .text.GFX_Begin
                0x9d01d094       0x38 build/pic32mz_ef_sk_meb2/debug/_ext/1847583374/gfx.o
                0x9d01d094                GFX_Begin

.text.defDrawBlendModeSet
                0x9d01d0cc       0x38
 .text.defDrawBlendModeSet
                0x9d01d0cc       0x38 build/pic32mz_ef_sk_meb2/debug/_ext/1847583374/gfx_default_impl.o
                0x9d01d0cc                defDrawBlendModeSet

.text.GFX_DriverIntfGet
                0x9d01d104       0x38
 .text.GFX_DriverIntfGet
                0x9d01d104       0x38 build/pic32mz_ef_sk_meb2/debug/_ext/1847583374/gfx_driver_interface.o
                0x9d01d104                GFX_DriverIntfGet

.text.get_brightness
                0x9d01d13c       0x38
 .text.get_brightness
                0x9d01d13c       0x38 build/pic32mz_ef_sk_meb2/debug/_ext/1847583374/gfx_get.o
                0x9d01d13c                get_brightness

.text.get_vsyncCallback
                0x9d01d174       0x38
 .text.get_vsyncCallback
                0x9d01d174       0x38 build/pic32mz_ef_sk_meb2/debug/_ext/1847583374/gfx_get.o
                0x9d01d174                get_vsyncCallback

.text.get_hsyncCallback
                0x9d01d1ac       0x38
 .text.get_hsyncCallback
                0x9d01d1ac       0x38 build/pic32mz_ef_sk_meb2/debug/_ext/1847583374/gfx_get.o
                0x9d01d1ac                get_hsyncCallback

.text.get_orientation
                0x9d01d1e4       0x38
 .text.get_orientation
                0x9d01d1e4       0x38 build/pic32mz_ef_sk_meb2/debug/_ext/1847583374/gfx_get.o
                0x9d01d1e4                get_orientation

.text.get_mirroring
                0x9d01d21c       0x38
 .text.get_mirroring
                0x9d01d21c       0x38 build/pic32mz_ef_sk_meb2/debug/_ext/1847583374/gfx_get.o
                0x9d01d21c                get_mirroring

.text.get_colorMode
                0x9d01d254       0x38
 .text.get_colorMode
                0x9d01d254       0x38 build/pic32mz_ef_sk_meb2/debug/_ext/1847583374/gfx_get.o
                0x9d01d254                get_colorMode

.text.get_layerEnabled
                0x9d01d28c       0x38
 .text.get_layerEnabled
                0x9d01d28c       0x38 build/pic32mz_ef_sk_meb2/debug/_ext/1847583374/gfx_get.o
                0x9d01d28c                get_layerEnabled

.text.get_layerVisible
                0x9d01d2c4       0x38
 .text.get_layerVisible
                0x9d01d2c4       0x38 build/pic32mz_ef_sk_meb2/debug/_ext/1847583374/gfx_get.o
                0x9d01d2c4                get_layerVisible

.text.get_layerVsync
                0x9d01d2fc       0x38
 .text.get_layerVsync
                0x9d01d2fc       0x38 build/pic32mz_ef_sk_meb2/debug/_ext/1847583374/gfx_get.o
                0x9d01d2fc                get_layerVsync

.text.get_layerSwap
                0x9d01d334       0x38
 .text.get_layerSwap
                0x9d01d334       0x38 build/pic32mz_ef_sk_meb2/debug/_ext/1847583374/gfx_get.o
                0x9d01d334                get_layerSwap

.text.get_layerAlphaEnable
                0x9d01d36c       0x38
 .text.get_layerAlphaEnable
                0x9d01d36c       0x38 build/pic32mz_ef_sk_meb2/debug/_ext/1847583374/gfx_get.o
                0x9d01d36c                get_layerAlphaEnable

.text.get_layerAlphaAmount
                0x9d01d3a4       0x38
 .text.get_layerAlphaAmount
                0x9d01d3a4       0x38 build/pic32mz_ef_sk_meb2/debug/_ext/1847583374/gfx_get.o
                0x9d01d3a4                get_layerAlphaAmount

.text.get_layerMaskEnable
                0x9d01d3dc       0x38
 .text.get_layerMaskEnable
                0x9d01d3dc       0x38 build/pic32mz_ef_sk_meb2/debug/_ext/1847583374/gfx_get.o
                0x9d01d3dc                get_layerMaskEnable

.text.get_layerMaskColor
                0x9d01d414       0x38
 .text.get_layerMaskColor
                0x9d01d414       0x38 build/pic32mz_ef_sk_meb2/debug/_ext/1847583374/gfx_get.o
                0x9d01d414                get_layerMaskColor

.text.get_layerBufferCount
                0x9d01d44c       0x38
 .text.get_layerBufferCount
                0x9d01d44c       0x38 build/pic32mz_ef_sk_meb2/debug/_ext/1847583374/gfx_get.o
                0x9d01d44c                get_layerBufferCount

.text.get_drawMode
                0x9d01d484       0x38
 .text.get_drawMode
                0x9d01d484       0x38 build/pic32mz_ef_sk_meb2/debug/_ext/1847583374/gfx_get.o
                0x9d01d484                get_drawMode

.text.get_drawColor
                0x9d01d4bc       0x38
 .text.get_drawColor
                0x9d01d4bc       0x38 build/pic32mz_ef_sk_meb2/debug/_ext/1847583374/gfx_get.o
                0x9d01d4bc                get_drawColor

.text.get_drawBlendMode
                0x9d01d4f4       0x38
 .text.get_drawBlendMode
                0x9d01d4f4       0x38 build/pic32mz_ef_sk_meb2/debug/_ext/1847583374/gfx_get.o
                0x9d01d4f4                get_drawBlendMode

.text.get_drawAlphaEnable
                0x9d01d52c       0x38
 .text.get_drawAlphaEnable
                0x9d01d52c       0x38 build/pic32mz_ef_sk_meb2/debug/_ext/1847583374/gfx_get.o
                0x9d01d52c                get_drawAlphaEnable

.text.get_drawAlphaValue
                0x9d01d564       0x38
 .text.get_drawAlphaValue
                0x9d01d564       0x38 build/pic32mz_ef_sk_meb2/debug/_ext/1847583374/gfx_get.o
                0x9d01d564                get_drawAlphaValue

.text.get_drawMaskEnable
                0x9d01d59c       0x38
 .text.get_drawMaskEnable
                0x9d01d59c       0x38 build/pic32mz_ef_sk_meb2/debug/_ext/1847583374/gfx_get.o
                0x9d01d59c                get_drawMaskEnable

.text.get_drawMaskValue
                0x9d01d5d4       0x38
 .text.get_drawMaskValue
                0x9d01d5d4       0x38 build/pic32mz_ef_sk_meb2/debug/_ext/1847583374/gfx_get.o
                0x9d01d5d4                get_drawMaskValue

.text.get_drawThickness
                0x9d01d60c       0x38
 .text.get_drawThickness
                0x9d01d60c       0x38 build/pic32mz_ef_sk_meb2/debug/_ext/1847583374/gfx_get.o
                0x9d01d60c                get_drawThickness

.text.get_drawClipEnable
                0x9d01d644       0x38
 .text.get_drawClipEnable
                0x9d01d644       0x38 build/pic32mz_ef_sk_meb2/debug/_ext/1847583374/gfx_get.o
                0x9d01d644                get_drawClipEnable

.text._GFX_LayerSizeSet
                0x9d01d67c       0x38
 .text._GFX_LayerSizeSet
                0x9d01d67c       0x38 build/pic32mz_ef_sk_meb2/debug/_ext/1847583374/gfx_layer.o
                0x9d01d67c                _GFX_LayerSizeSet

.text.GFX_ColorBlendAlpha
                0x9d01d6b4       0x38
 .text.GFX_ColorBlendAlpha
                0x9d01d6b4       0x38 build/pic32mz_ef_sk_meb2/debug/_ext/1847583374/gfx_color_blend.o
                0x9d01d6b4                GFX_ColorBlendAlpha

.text.SYS_DMA_ChannelEnable
                0x9d01d6ec       0x38
 .text.SYS_DMA_ChannelEnable
                0x9d01d6ec       0x38 build/pic32mz_ef_sk_meb2/debug/_ext/853959373/sys_dma.o
                0x9d01d6ec                SYS_DMA_ChannelEnable

.text.SYS_DMA_ChannelForceStart
                0x9d01d724       0x38
 .text.SYS_DMA_ChannelForceStart
                0x9d01d724       0x38 build/pic32mz_ef_sk_meb2/debug/_ext/853959373/sys_dma.o
                0x9d01d724                SYS_DMA_ChannelForceStart

.text._DRV_I2C_Advance_Queue_0
                0x9d01d75c       0x38
 .text._DRV_I2C_Advance_Queue_0
                0x9d01d75c       0x38 build/pic32mz_ef_sk_meb2/debug/_ext/1219754583/drv_i2c_static_buffer_model.o
                0x9d01d75c                _DRV_I2C_Advance_Queue_0

.text.DRV_TMR0_Start
                0x9d01d794       0x38
 .text.DRV_TMR0_Start
                0x9d01d794       0x38 build/pic32mz_ef_sk_meb2/debug/_ext/199634090/drv_tmr_static.o
                0x9d01d794                DRV_TMR0_Start

.text.DRV_CAMERA_OVM7690_RegisterSet
                0x9d01d7cc       0x34
 .text.DRV_CAMERA_OVM7690_RegisterSet
                0x9d01d7cc       0x34 build/pic32mz_ef_sk_meb2/debug/_ext/1360937237/ov2640.o
                0x9d01d7cc                DRV_CAMERA_OVM7690_RegisterSet

.text.ucvector_cleanup
                0x9d01d800       0x34
 .text.ucvector_cleanup
                0x9d01d800       0x34 build/pic32mz_ef_sk_meb2/debug/_ext/493934858/lodepng.o

.text.uivector_cleanup
                0x9d01d834       0x34
 .text.uivector_cleanup
                0x9d01d834       0x34 build/pic32mz_ef_sk_meb2/debug/_ext/493934858/lodepng.o

.text.laInput_SetEnabled
                0x9d01d868       0x34
 .text.laInput_SetEnabled
                0x9d01d868       0x34 build/pic32mz_ef_sk_meb2/debug/_ext/1907747181/libaria_input.o
                0x9d01d868                laInput_SetEnabled

.text.laWidget_SetScheme
                0x9d01d89c       0x34
 .text.laWidget_SetScheme
                0x9d01d89c       0x34 build/pic32mz_ef_sk_meb2/debug/_ext/1907747181/libaria_widget.o
                0x9d01d89c                laWidget_SetScheme

.text.laImageWidget_SetImage
                0x9d01d8d0       0x34
 .text.laImageWidget_SetImage
                0x9d01d8d0       0x34 build/pic32mz_ef_sk_meb2/debug/_ext/1907747181/libaria_widget_image.o
                0x9d01d8d0                laImageWidget_SetImage

.text.defLayerBufferFree
                0x9d01d904       0x34
 .text.defLayerBufferFree
                0x9d01d904       0x34 build/pic32mz_ef_sk_meb2/debug/_ext/1847583374/gfx_default_impl.o
                0x9d01d904                defLayerBufferFree

.text.defLayerBufferAllocate
                0x9d01d938       0x34
 .text.defLayerBufferAllocate
                0x9d01d938       0x34 build/pic32mz_ef_sk_meb2/debug/_ext/1847583374/gfx_default_impl.o
                0x9d01d938                defLayerBufferAllocate

.text.get_driverInfo
                0x9d01d96c       0x34
 .text.get_driverInfo
                0x9d01d96c       0x34 build/pic32mz_ef_sk_meb2/debug/_ext/1847583374/gfx_get.o
                0x9d01d96c                get_driverInfo

.text.get_brightnessRange
                0x9d01d9a0       0x34
 .text.get_brightnessRange
                0x9d01d9a0       0x34 build/pic32mz_ef_sk_meb2/debug/_ext/1847583374/gfx_get.o
                0x9d01d9a0                get_brightnessRange

.text.get_layerCount
                0x9d01d9d4       0x34
 .text.get_layerCount
                0x9d01d9d4       0x34 build/pic32mz_ef_sk_meb2/debug/_ext/1847583374/gfx_get.o
                0x9d01d9d4                get_layerCount

.text.get_layerActive
                0x9d01da08       0x34
 .text.get_layerActive
                0x9d01da08       0x34 build/pic32mz_ef_sk_meb2/debug/_ext/1847583374/gfx_get.o
                0x9d01da08                get_layerActive

.text.get_layerPosition
                0x9d01da3c       0x34
 .text.get_layerPosition
                0x9d01da3c       0x34 build/pic32mz_ef_sk_meb2/debug/_ext/1847583374/gfx_get.o
                0x9d01da3c                get_layerPosition

.text.get_layerSize
                0x9d01da70       0x34
 .text.get_layerSize
                0x9d01da70       0x34 build/pic32mz_ef_sk_meb2/debug/_ext/1847583374/gfx_get.o
                0x9d01da70                get_layerSize

.text.get_drawPalette
                0x9d01daa4       0x34
 .text.get_drawPalette
                0x9d01daa4       0x34 build/pic32mz_ef_sk_meb2/debug/_ext/1847583374/gfx_get.o
                0x9d01daa4                get_drawPalette

.text.set_layerPosition
                0x9d01dad8       0x34
 .text.set_layerPosition
                0x9d01dad8       0x34 build/pic32mz_ef_sk_meb2/debug/_ext/1847583374/gfx_set.o
                0x9d01dad8                set_layerPosition

.text.set_layerSize
                0x9d01db0c       0x34
 .text.set_layerSize
                0x9d01db0c       0x34 build/pic32mz_ef_sk_meb2/debug/_ext/1847583374/gfx_set.o
                0x9d01db0c                set_layerSize

.text.set_layerBufferAddress
                0x9d01db40       0x34
 .text.set_layerBufferAddress
                0x9d01db40       0x34 build/pic32mz_ef_sk_meb2/debug/_ext/1847583374/gfx_set.o
                0x9d01db40                set_layerBufferAddress

.text.set_layerBufferCoherent
                0x9d01db74       0x34
 .text.set_layerBufferCoherent
                0x9d01db74       0x34 build/pic32mz_ef_sk_meb2/debug/_ext/1847583374/gfx_set.o
                0x9d01db74                set_layerBufferCoherent

.text.LibAria_Tasks
                0x9d01dba8       0x34
 .text.LibAria_Tasks
                0x9d01dba8       0x34 build/pic32mz_ef_sk_meb2/debug/_ext/1740298103/libaria_harmony.o
                0x9d01dba8                LibAria_Tasks

.text.lodepng_get_bpp
                0x9d01dbdc       0x30
 .text.lodepng_get_bpp
                0x9d01dbdc       0x30 build/pic32mz_ef_sk_meb2/debug/_ext/493934858/lodepng.o
                0x9d01dbdc                lodepng_get_bpp

.text.lodepng_state_cleanup
                0x9d01dc0c       0x30
 .text.lodepng_state_cleanup
                0x9d01dc0c       0x30 build/pic32mz_ef_sk_meb2/debug/_ext/493934858/lodepng.o
                0x9d01dc0c                lodepng_state_cleanup

.text.laEditWidget_EndEdit
                0x9d01dc3c       0x30
 .text.laEditWidget_EndEdit
                0x9d01dc3c       0x30 build/pic32mz_ef_sk_meb2/debug/_ext/1907747181/libaria_editwidget.o
                0x9d01dc3c                laEditWidget_EndEdit

.text.GFX_End   0x9d01dc6c       0x30
 .text.GFX_End  0x9d01dc6c       0x30 build/pic32mz_ef_sk_meb2/debug/_ext/1847583374/gfx.o
                0x9d01dc6c                GFX_End

.text.defLayerEnabledSet
                0x9d01dc9c       0x30
 .text.defLayerEnabledSet
                0x9d01dc9c       0x30 build/pic32mz_ef_sk_meb2/debug/_ext/1847583374/gfx_default_impl.o
                0x9d01dc9c                defLayerEnabledSet

.text.defLayerVisibleSet
                0x9d01dccc       0x30
 .text.defLayerVisibleSet
                0x9d01dccc       0x30 build/pic32mz_ef_sk_meb2/debug/_ext/1847583374/gfx_default_impl.o
                0x9d01dccc                defLayerVisibleSet

.text.defLayerVsyncSet
                0x9d01dcfc       0x30
 .text.defLayerVsyncSet
                0x9d01dcfc       0x30 build/pic32mz_ef_sk_meb2/debug/_ext/1847583374/gfx_default_impl.o
                0x9d01dcfc                defLayerVsyncSet

.text.defLayerAlphaEnableSet
                0x9d01dd2c       0x30
 .text.defLayerAlphaEnableSet
                0x9d01dd2c       0x30 build/pic32mz_ef_sk_meb2/debug/_ext/1847583374/gfx_default_impl.o
                0x9d01dd2c                defLayerAlphaEnableSet

.text.defLayerMaskEnableSet
                0x9d01dd5c       0x30
 .text.defLayerMaskEnableSet
                0x9d01dd5c       0x30 build/pic32mz_ef_sk_meb2/debug/_ext/1847583374/gfx_default_impl.o
                0x9d01dd5c                defLayerMaskEnableSet

.text.defLayerMaskColorSet
                0x9d01dd8c       0x30
 .text.defLayerMaskColorSet
                0x9d01dd8c       0x30 build/pic32mz_ef_sk_meb2/debug/_ext/1847583374/gfx_default_impl.o
                0x9d01dd8c                defLayerMaskColorSet

.text.get_drawClipRect
                0x9d01ddbc       0x30
 .text.get_drawClipRect
                0x9d01ddbc       0x30 build/pic32mz_ef_sk_meb2/debug/_ext/1847583374/gfx_get.o
                0x9d01ddbc                get_drawClipRect

.text.set_brightness
                0x9d01ddec       0x30
 .text.set_brightness
                0x9d01ddec       0x30 build/pic32mz_ef_sk_meb2/debug/_ext/1847583374/gfx_set.o
                0x9d01ddec                set_brightness

.text.set_vsyncCallback
                0x9d01de1c       0x30
 .text.set_vsyncCallback
                0x9d01de1c       0x30 build/pic32mz_ef_sk_meb2/debug/_ext/1847583374/gfx_set.o
                0x9d01de1c                set_vsyncCallback

.text.set_hsyncCallback
                0x9d01de4c       0x30
 .text.set_hsyncCallback
                0x9d01de4c       0x30 build/pic32mz_ef_sk_meb2/debug/_ext/1847583374/gfx_set.o
                0x9d01de4c                set_hsyncCallback

.text.set_orientation
                0x9d01de7c       0x30
 .text.set_orientation
                0x9d01de7c       0x30 build/pic32mz_ef_sk_meb2/debug/_ext/1847583374/gfx_set.o
                0x9d01de7c                set_orientation

.text.set_mirroring
                0x9d01deac       0x30
 .text.set_mirroring
                0x9d01deac       0x30 build/pic32mz_ef_sk_meb2/debug/_ext/1847583374/gfx_set.o
                0x9d01deac                set_mirroring

.text.set_colorMode
                0x9d01dedc       0x30
 .text.set_colorMode
                0x9d01dedc       0x30 build/pic32mz_ef_sk_meb2/debug/_ext/1847583374/gfx_set.o
                0x9d01dedc                set_colorMode

.text.set_layerActive
                0x9d01df0c       0x30
 .text.set_layerActive
                0x9d01df0c       0x30 build/pic32mz_ef_sk_meb2/debug/_ext/1847583374/gfx_set.o
                0x9d01df0c                set_layerActive

.text.set_layerEnabled
                0x9d01df3c       0x30
 .text.set_layerEnabled
                0x9d01df3c       0x30 build/pic32mz_ef_sk_meb2/debug/_ext/1847583374/gfx_set.o
                0x9d01df3c                set_layerEnabled

.text.set_layerVisible
                0x9d01df6c       0x30
 .text.set_layerVisible
                0x9d01df6c       0x30 build/pic32mz_ef_sk_meb2/debug/_ext/1847583374/gfx_set.o
                0x9d01df6c                set_layerVisible

.text.set_layerVsync
                0x9d01df9c       0x30
 .text.set_layerVsync
                0x9d01df9c       0x30 build/pic32mz_ef_sk_meb2/debug/_ext/1847583374/gfx_set.o
                0x9d01df9c                set_layerVsync

.text.set_layerSwap
                0x9d01dfcc       0x30
 .text.set_layerSwap
                0x9d01dfcc       0x30 build/pic32mz_ef_sk_meb2/debug/_ext/1847583374/gfx_set.o
                0x9d01dfcc                set_layerSwap

.text.set_layerAlphaEnable
                0x9d01dffc       0x30
 .text.set_layerAlphaEnable
                0x9d01dffc       0x30 build/pic32mz_ef_sk_meb2/debug/_ext/1847583374/gfx_set.o
                0x9d01dffc                set_layerAlphaEnable

.text.set_layerAlphaAmount
                0x9d01e02c       0x30
 .text.set_layerAlphaAmount
                0x9d01e02c       0x30 build/pic32mz_ef_sk_meb2/debug/_ext/1847583374/gfx_set.o
                0x9d01e02c                set_layerAlphaAmount

.text.set_layerMaskEnable
                0x9d01e05c       0x30
 .text.set_layerMaskEnable
                0x9d01e05c       0x30 build/pic32mz_ef_sk_meb2/debug/_ext/1847583374/gfx_set.o
                0x9d01e05c                set_layerMaskEnable

.text.set_layerMaskColor
                0x9d01e08c       0x30
 .text.set_layerMaskColor
                0x9d01e08c       0x30 build/pic32mz_ef_sk_meb2/debug/_ext/1847583374/gfx_set.o
                0x9d01e08c                set_layerMaskColor

.text.set_layerBufferCount
                0x9d01e0bc       0x30
 .text.set_layerBufferCount
                0x9d01e0bc       0x30 build/pic32mz_ef_sk_meb2/debug/_ext/1847583374/gfx_set.o
                0x9d01e0bc                set_layerBufferCount

.text.set_layerBufferAllocated
                0x9d01e0ec       0x30
 .text.set_layerBufferAllocated
                0x9d01e0ec       0x30 build/pic32mz_ef_sk_meb2/debug/_ext/1847583374/gfx_set.o
                0x9d01e0ec                set_layerBufferAllocated

.text.set_layerBufferFree
                0x9d01e11c       0x30
 .text.set_layerBufferFree
                0x9d01e11c       0x30 build/pic32mz_ef_sk_meb2/debug/_ext/1847583374/gfx_set.o
                0x9d01e11c                set_layerBufferFree

.text.set_drawMode
                0x9d01e14c       0x30
 .text.set_drawMode
                0x9d01e14c       0x30 build/pic32mz_ef_sk_meb2/debug/_ext/1847583374/gfx_set.o
                0x9d01e14c                set_drawMode

.text.set_drawColor
                0x9d01e17c       0x30
 .text.set_drawColor
                0x9d01e17c       0x30 build/pic32mz_ef_sk_meb2/debug/_ext/1847583374/gfx_set.o
                0x9d01e17c                set_drawColor

.text.set_drawPalette
                0x9d01e1ac       0x30
 .text.set_drawPalette
                0x9d01e1ac       0x30 build/pic32mz_ef_sk_meb2/debug/_ext/1847583374/gfx_set.o
                0x9d01e1ac                set_drawPalette

.text.set_drawBlendMode
                0x9d01e1dc       0x30
 .text.set_drawBlendMode
                0x9d01e1dc       0x30 build/pic32mz_ef_sk_meb2/debug/_ext/1847583374/gfx_set.o
                0x9d01e1dc                set_drawBlendMode

.text.set_drawAlphaEnable
                0x9d01e20c       0x30
 .text.set_drawAlphaEnable
                0x9d01e20c       0x30 build/pic32mz_ef_sk_meb2/debug/_ext/1847583374/gfx_set.o
                0x9d01e20c                set_drawAlphaEnable

.text.set_drawAlphaValue
                0x9d01e23c       0x30
 .text.set_drawAlphaValue
                0x9d01e23c       0x30 build/pic32mz_ef_sk_meb2/debug/_ext/1847583374/gfx_set.o
                0x9d01e23c                set_drawAlphaValue

.text.set_drawMaskEnable
                0x9d01e26c       0x30
 .text.set_drawMaskEnable
                0x9d01e26c       0x30 build/pic32mz_ef_sk_meb2/debug/_ext/1847583374/gfx_set.o
                0x9d01e26c                set_drawMaskEnable

.text.set_drawMaskValue
                0x9d01e29c       0x30
 .text.set_drawMaskValue
                0x9d01e29c       0x30 build/pic32mz_ef_sk_meb2/debug/_ext/1847583374/gfx_set.o
                0x9d01e29c                set_drawMaskValue

.text.set_drawThickness
                0x9d01e2cc       0x30
 .text.set_drawThickness
                0x9d01e2cc       0x30 build/pic32mz_ef_sk_meb2/debug/_ext/1847583374/gfx_set.o
                0x9d01e2cc                set_drawThickness

.text.set_drawClipEnable
                0x9d01e2fc       0x30
 .text.set_drawClipEnable
                0x9d01e2fc       0x30 build/pic32mz_ef_sk_meb2/debug/_ext/1847583374/gfx_set.o
                0x9d01e2fc                set_drawClipEnable

.text.set_drawClipRect
                0x9d01e32c       0x30
 .text.set_drawClipRect
                0x9d01e32c       0x30 build/pic32mz_ef_sk_meb2/debug/_ext/1847583374/gfx_set.o
                0x9d01e32c                set_drawClipRect

.text.rgb332_rgb888
                0x9d01e35c       0x30
 .text.rgb332_rgb888
                0x9d01e35c       0x30 build/pic32mz_ef_sk_meb2/debug/_ext/1847583374/gfx_color_convert.o

.text.rgb332_rgba8888
                0x9d01e38c       0x30
 .text.rgb332_rgba8888
                0x9d01e38c       0x30 build/pic32mz_ef_sk_meb2/debug/_ext/1847583374/gfx_color_convert.o

.text.rgb332_argb8888
                0x9d01e3bc       0x30
 .text.rgb332_argb8888
                0x9d01e3bc       0x30 build/pic32mz_ef_sk_meb2/debug/_ext/1847583374/gfx_color_convert.o

.text.rgba5551_rgb888
                0x9d01e3ec       0x30
 .text.rgba5551_rgb888
                0x9d01e3ec       0x30 build/pic32mz_ef_sk_meb2/debug/_ext/1847583374/gfx_color_convert.o

.text.rgba8888_rgba5551
                0x9d01e41c       0x30
 .text.rgba8888_rgba5551
                0x9d01e41c       0x30 build/pic32mz_ef_sk_meb2/debug/_ext/1847583374/gfx_color_convert.o

.text.argb8888_rgba5551
                0x9d01e44c       0x30
 .text.argb8888_rgba5551
                0x9d01e44c       0x30 build/pic32mz_ef_sk_meb2/debug/_ext/1847583374/gfx_color_convert.o

.text.DRV_I2C_TransferStatusGet
                0x9d01e47c       0x30
 .text.DRV_I2C_TransferStatusGet
                0x9d01e47c       0x30 build/pic32mz_ef_sk_meb2/debug/_ext/1219754583/drv_i2c_mapping.o
                0x9d01e47c                DRV_I2C_TransferStatusGet

.text.DRV_TMR0_AlarmEnable
                0x9d01e4ac       0x30
 .text.DRV_TMR0_AlarmEnable
                0x9d01e4ac       0x30 build/pic32mz_ef_sk_meb2/debug/_ext/199634090/drv_tmr_static.o
                0x9d01e4ac                DRV_TMR0_AlarmEnable

.text.DRV_TMR_Start
                0x9d01e4dc       0x30
 .text.DRV_TMR_Start
                0x9d01e4dc       0x30 build/pic32mz_ef_sk_meb2/debug/_ext/199634090/drv_tmr_mapping.o
                0x9d01e4dc                DRV_TMR_Start

.text.free      0x9d01e50c       0x30
 .text.free     0x9d01e50c       0x30 c:/program files (x86)/microchip/xc32/v1.42/bin/bin/../../lib/gcc/pic32mx/4.8.3/../../../../pic32mx/lib\libc.a(malloc.o)
                0x9d01e50c                free

.text.JPEG_bReadByte
                0x9d01e53c       0x2c
 .text.JPEG_bReadByte
                0x9d01e53c       0x2c build/pic32mz_ef_sk_meb2/debug/_ext/1597685232/gfxu_image_jpg_internal.o

.text.lodepng_read32bitInt
                0x9d01e568       0x2c
 .text.lodepng_read32bitInt
                0x9d01e568       0x2c build/pic32mz_ef_sk_meb2/debug/_ext/493934858/lodepng.o
                0x9d01e568                lodepng_read32bitInt

.text.lodepng_chunk_next_const
                0x9d01e594       0x2c
 .text.lodepng_chunk_next_const
                0x9d01e594       0x2c build/pic32mz_ef_sk_meb2/debug/_ext/493934858/lodepng.o
                0x9d01e594                lodepng_chunk_next_const

.text.lodepng_color_mode_init
                0x9d01e5c0       0x2c
 .text.lodepng_color_mode_init
                0x9d01e5c0       0x2c build/pic32mz_ef_sk_meb2/debug/_ext/493934858/lodepng.o
                0x9d01e5c0                lodepng_color_mode_init

.text.getDiscreteValueAtIndex
                0x9d01e5ec       0x2c
 .text.getDiscreteValueAtIndex
                0x9d01e5ec       0x2c build/pic32mz_ef_sk_meb2/debug/_ext/1597685232/gfxu_image_utils.o
                0x9d01e5ec                getDiscreteValueAtIndex

.text.getOffsetFromIndexAndBPP
                0x9d01e618       0x2c
 .text.getOffsetFromIndexAndBPP
                0x9d01e618       0x2c build/pic32mz_ef_sk_meb2/debug/_ext/1597685232/gfxu_image_utils.o
                0x9d01e618                getOffsetFromIndexAndBPP

.text.defDrawModeSet
                0x9d01e644       0x2c
 .text.defDrawModeSet
                0x9d01e644       0x2c build/pic32mz_ef_sk_meb2/debug/_ext/1847583374/gfx_default_impl.o
                0x9d01e644                defDrawModeSet

.text.defDrawColorSet
                0x9d01e670       0x2c
 .text.defDrawColorSet
                0x9d01e670       0x2c build/pic32mz_ef_sk_meb2/debug/_ext/1847583374/gfx_default_impl.o
                0x9d01e670                defDrawColorSet

.text.defDrawAlphaEnableSet
                0x9d01e69c       0x2c
 .text.defDrawAlphaEnableSet
                0x9d01e69c       0x2c build/pic32mz_ef_sk_meb2/debug/_ext/1847583374/gfx_default_impl.o
                0x9d01e69c                defDrawAlphaEnableSet

.text.defDrawAlphaValueSet
                0x9d01e6c8       0x2c
 .text.defDrawAlphaValueSet
                0x9d01e6c8       0x2c build/pic32mz_ef_sk_meb2/debug/_ext/1847583374/gfx_default_impl.o
                0x9d01e6c8                defDrawAlphaValueSet

.text.defDrawMaskEnableSet
                0x9d01e6f4       0x2c
 .text.defDrawMaskEnableSet
                0x9d01e6f4       0x2c build/pic32mz_ef_sk_meb2/debug/_ext/1847583374/gfx_default_impl.o
                0x9d01e6f4                defDrawMaskEnableSet

.text.defDrawMaskValueSet
                0x9d01e720       0x2c
 .text.defDrawMaskValueSet
                0x9d01e720       0x2c build/pic32mz_ef_sk_meb2/debug/_ext/1847583374/gfx_default_impl.o
                0x9d01e720                defDrawMaskValueSet

.text.defDrawThicknessSet
                0x9d01e74c       0x2c
 .text.defDrawThicknessSet
                0x9d01e74c       0x2c build/pic32mz_ef_sk_meb2/debug/_ext/1847583374/gfx_default_impl.o
                0x9d01e74c                defDrawThicknessSet

.text.defDrawClipEnabledSet
                0x9d01e778       0x2c
 .text.defDrawClipEnabledSet
                0x9d01e778       0x2c build/pic32mz_ef_sk_meb2/debug/_ext/1847583374/gfx_default_impl.o
                0x9d01e778                defDrawClipEnabledSet

.text.indexGet1bpp
                0x9d01e7a4       0x2c
 .text.indexGet1bpp
                0x9d01e7a4       0x2c build/pic32mz_ef_sk_meb2/debug/_ext/1847583374/gfx_pixel_buffer.o

.text.GFX_UtilOrientPoint
                0x9d01e7d0       0x2c
 .text.GFX_UtilOrientPoint
                0x9d01e7d0       0x2c build/pic32mz_ef_sk_meb2/debug/_ext/1847583374/gfx_util.o
                0x9d01e7d0                GFX_UtilOrientPoint

.text.GFX_LayerSizeFromOrientedSpace
                0x9d01e7fc       0x2c
 .text.GFX_LayerSizeFromOrientedSpace
                0x9d01e7fc       0x2c build/pic32mz_ef_sk_meb2/debug/_ext/1847583374/gfx_util.o
                0x9d01e7fc                GFX_LayerSizeFromOrientedSpace

.text.GFX_LayerSizeToOrientedSpace
                0x9d01e828       0x2c
 .text.GFX_LayerSizeToOrientedSpace
                0x9d01e828       0x2c build/pic32mz_ef_sk_meb2/debug/_ext/1847583374/gfx_util.o
                0x9d01e828                GFX_LayerSizeToOrientedSpace

.text.rgb565_argb8888
                0x9d01e854       0x2c
 .text.rgb565_argb8888
                0x9d01e854       0x2c build/pic32mz_ef_sk_meb2/debug/_ext/1847583374/gfx_color_convert.o

.text.GFX_Percent
                0x9d01e880       0x2c
 .text.GFX_Percent
                0x9d01e880       0x2c build/pic32mz_ef_sk_meb2/debug/_ext/1847583374/gfx_math.o
                0x9d01e880                GFX_Percent

.text.SYS_Tasks
                0x9d01e8ac       0x2c
 .text.SYS_Tasks
                0x9d01e8ac       0x2c build/pic32mz_ef_sk_meb2/debug/_ext/1951523377/system_tasks.o
                0x9d01e8ac                SYS_Tasks

.text._stub_sbd_memlayout
                0x9d01e8d8       0x2c
 .text._stub_sbd_memlayout
                0x9d01e8d8       0x2c c:/program files (x86)/microchip/xc32/v1.42/bin/bin/../../lib/gcc/pic32mx/4.8.3/../../../../pic32mx/lib\libpic32.a(sbrk.o)
                0x9d01e8d8                _sbd_memlayout
                0x9d01e8d8                _stub_sbd_memlayout

.text.readBitFromReversedStream
                0x9d01e904       0x28
 .text.readBitFromReversedStream
                0x9d01e904       0x28 build/pic32mz_ef_sk_meb2/debug/_ext/493934858/lodepng.o

.text.lodepng_decoder_settings_init
                0x9d01e92c       0x28
 .text.lodepng_decoder_settings_init
                0x9d01e92c       0x28 build/pic32mz_ef_sk_meb2/debug/_ext/493934858/lodepng.o
                0x9d01e92c                lodepng_decoder_settings_init

.text.headerReadRequestCompleted
                0x9d01e954       0x28
 .text.headerReadRequestCompleted
                0x9d01e954       0x28 build/pic32mz_ef_sk_meb2/debug/_ext/1597685232/gfxu_image_rle_external.o

.text.laContext_SetStringTable
                0x9d01e97c       0x28
 .text.laContext_SetStringTable
                0x9d01e97c       0x28 build/pic32mz_ef_sk_meb2/debug/_ext/1907747181/libaria_context.o
                0x9d01e97c                laContext_SetStringTable

.text.laWidget_SetBorderType
                0x9d01e9a4       0x28
 .text.laWidget_SetBorderType
                0x9d01e9a4       0x28 build/pic32mz_ef_sk_meb2/debug/_ext/1907747181/libaria_widget.o
                0x9d01e9a4                laWidget_SetBorderType

.text.laWidget_SetDrawBackground
                0x9d01e9cc       0x28
 .text.laWidget_SetDrawBackground
                0x9d01e9cc       0x28 build/pic32mz_ef_sk_meb2/debug/_ext/1907747181/libaria_widget.o
                0x9d01e9cc                laWidget_SetDrawBackground

.text.GFX_Initialize
                0x9d01e9f4       0x28
 .text.GFX_Initialize
                0x9d01e9f4       0x28 build/pic32mz_ef_sk_meb2/debug/_ext/1847583374/gfx.o
                0x9d01e9f4                GFX_Initialize

.text.orient_0  0x9d01ea1c       0x28
 .text.orient_0
                0x9d01ea1c       0x28 build/pic32mz_ef_sk_meb2/debug/_ext/1847583374/gfx_util.o

.text.rgb332_rgb565
                0x9d01ea44       0x28
 .text.rgb332_rgb565
                0x9d01ea44       0x28 build/pic32mz_ef_sk_meb2/debug/_ext/1847583374/gfx_color_convert.o

.text.rgb332_rgba5551
                0x9d01ea6c       0x28
 .text.rgb332_rgba5551
                0x9d01ea6c       0x28 build/pic32mz_ef_sk_meb2/debug/_ext/1847583374/gfx_color_convert.o

.text.rgb565_rgba8888
                0x9d01ea94       0x28
 .text.rgb565_rgba8888
                0x9d01ea94       0x28 build/pic32mz_ef_sk_meb2/debug/_ext/1847583374/gfx_color_convert.o

.text.rgb888_rgba5551
                0x9d01eabc       0x28
 .text.rgb888_rgba5551
                0x9d01eabc       0x28 build/pic32mz_ef_sk_meb2/debug/_ext/1847583374/gfx_color_convert.o

.text.DRV_I2C_BufferEventHandlerSet
                0x9d01eae4       0x28
 .text.DRV_I2C_BufferEventHandlerSet
                0x9d01eae4       0x28 build/pic32mz_ef_sk_meb2/debug/_ext/1219754583/drv_i2c_mapping.o
                0x9d01eae4                DRV_I2C_BufferEventHandlerSet

.text.DRV_TMR_AlarmEnable
                0x9d01eb0c       0x28
 .text.DRV_TMR_AlarmEnable
                0x9d01eb0c       0x28 build/pic32mz_ef_sk_meb2/debug/_ext/199634090/drv_tmr_mapping.o
                0x9d01eb0c                DRV_TMR_AlarmEnable

.text.GFX_InitializeDriverList
                0x9d01eb34       0x28
 .text.GFX_InitializeDriverList
                0x9d01eb34       0x28 build/pic32mz_ef_sk_meb2/debug/_ext/477038478/gfx_driver_def.o
                0x9d01eb34                GFX_InitializeDriverList

.text.APP_TimerCallback
                0x9d01eb5c       0x24
 .text.APP_TimerCallback
                0x9d01eb5c       0x24 build/pic32mz_ef_sk_meb2/debug/_ext/1360937237/app.o
                0x9d01eb5c                APP_TimerCallback

.text.laList_Create
                0x9d01eb80       0x24
 .text.laList_Create
                0x9d01eb80       0x24 build/pic32mz_ef_sk_meb2/debug/_ext/1907747181/libaria_list.o
                0x9d01eb80                laList_Create

.text.laString_Initialize
                0x9d01eba4       0x24
 .text.laString_Initialize
                0x9d01eba4       0x24 build/pic32mz_ef_sk_meb2/debug/_ext/1907747181/libaria_string.o
                0x9d01eba4                laString_Initialize

.text.defEnd    0x9d01ebc8       0x24
 .text.defEnd   0x9d01ebc8       0x24 build/pic32mz_ef_sk_meb2/debug/_ext/1847583374/gfx_default_impl.o
                0x9d01ebc8                defEnd

.text.defLayerEnabledGet
                0x9d01ebec       0x24
 .text.defLayerEnabledGet
                0x9d01ebec       0x24 build/pic32mz_ef_sk_meb2/debug/_ext/1847583374/gfx_default_impl.o
                0x9d01ebec                defLayerEnabledGet

.text.defLayerVisibleGet
                0x9d01ec10       0x24
 .text.defLayerVisibleGet
                0x9d01ec10       0x24 build/pic32mz_ef_sk_meb2/debug/_ext/1847583374/gfx_default_impl.o
                0x9d01ec10                defLayerVisibleGet

.text.defLayerBufferCountGet
                0x9d01ec34       0x24
 .text.defLayerBufferCountGet
                0x9d01ec34       0x24 build/pic32mz_ef_sk_meb2/debug/_ext/1847583374/gfx_default_impl.o
                0x9d01ec34                defLayerBufferCountGet

.text.defLayerVsyncGet
                0x9d01ec58       0x24
 .text.defLayerVsyncGet
                0x9d01ec58       0x24 build/pic32mz_ef_sk_meb2/debug/_ext/1847583374/gfx_default_impl.o
                0x9d01ec58                defLayerVsyncGet

.text.defLayerSwapGet
                0x9d01ec7c       0x24
 .text.defLayerSwapGet
                0x9d01ec7c       0x24 build/pic32mz_ef_sk_meb2/debug/_ext/1847583374/gfx_default_impl.o
                0x9d01ec7c                defLayerSwapGet

.text.defLayerAlphaEnableGet
                0x9d01eca0       0x24
 .text.defLayerAlphaEnableGet
                0x9d01eca0       0x24 build/pic32mz_ef_sk_meb2/debug/_ext/1847583374/gfx_default_impl.o
                0x9d01eca0                defLayerAlphaEnableGet

.text.defLayerAlphaAmountGet
                0x9d01ecc4       0x24
 .text.defLayerAlphaAmountGet
                0x9d01ecc4       0x24 build/pic32mz_ef_sk_meb2/debug/_ext/1847583374/gfx_default_impl.o
                0x9d01ecc4                defLayerAlphaAmountGet

.text.defLayerMaskEnableGet
                0x9d01ece8       0x24
 .text.defLayerMaskEnableGet
                0x9d01ece8       0x24 build/pic32mz_ef_sk_meb2/debug/_ext/1847583374/gfx_default_impl.o
                0x9d01ece8                defLayerMaskEnableGet

.text.defLayerMaskColorGet
                0x9d01ed0c       0x24
 .text.defLayerMaskColorGet
                0x9d01ed0c       0x24 build/pic32mz_ef_sk_meb2/debug/_ext/1847583374/gfx_default_impl.o
                0x9d01ed0c                defLayerMaskColorGet

.text.indexGet4bpp
                0x9d01ed30       0x24
 .text.indexGet4bpp
                0x9d01ed30       0x24 build/pic32mz_ef_sk_meb2/debug/_ext/1847583374/gfx_pixel_buffer.o

.text.rgb565_rgb888
                0x9d01ed54       0x24
 .text.rgb565_rgb888
                0x9d01ed54       0x24 build/pic32mz_ef_sk_meb2/debug/_ext/1847583374/gfx_color_convert.o

.text.rgb888_rgb332
                0x9d01ed78       0x24
 .text.rgb888_rgb332
                0x9d01ed78       0x24 build/pic32mz_ef_sk_meb2/debug/_ext/1847583374/gfx_color_convert.o

.text.rgba8888_rgb888
                0x9d01ed9c       0x24
 .text.rgba8888_rgb888
                0x9d01ed9c       0x24 build/pic32mz_ef_sk_meb2/debug/_ext/1847583374/gfx_color_convert.o

.text.DRV_TMR0_AlarmDisable
                0x9d01edc0       0x24
 .text.DRV_TMR0_AlarmDisable
                0x9d01edc0       0x24 build/pic32mz_ef_sk_meb2/debug/_ext/199634090/drv_tmr_static.o
                0x9d01edc0                DRV_TMR0_AlarmDisable

.text.main      0x9d01ede4       0x20
 .text.main     0x9d01ede4       0x20 build/pic32mz_ef_sk_meb2/debug/_ext/1360937237/main.o
                0x9d01ede4                main

.text.getDiscreteValueAtIndex1
                0x9d01ee04       0x20
 .text.getDiscreteValueAtIndex1
                0x9d01ee04       0x20 build/pic32mz_ef_sk_meb2/debug/_ext/1597685232/gfxu_image_utils.o
                0x9d01ee04                getDiscreteValueAtIndex1

.text.laLayer_Delete
                0x9d01ee24       0x20
 .text.laLayer_Delete
                0x9d01ee24       0x20 build/pic32mz_ef_sk_meb2/debug/_ext/1907747181/libaria_layer.o
                0x9d01ee24                laLayer_Delete

.text.defBrightnessGet
                0x9d01ee44       0x20
 .text.defBrightnessGet
                0x9d01ee44       0x20 build/pic32mz_ef_sk_meb2/debug/_ext/1847583374/gfx_default_impl.o
                0x9d01ee44                defBrightnessGet

.text.defVSyncCallbackGet
                0x9d01ee64       0x20
 .text.defVSyncCallbackGet
                0x9d01ee64       0x20 build/pic32mz_ef_sk_meb2/debug/_ext/1847583374/gfx_default_impl.o
                0x9d01ee64                defVSyncCallbackGet

.text.defHSyncCallbackGet
                0x9d01ee84       0x20
 .text.defHSyncCallbackGet
                0x9d01ee84       0x20 build/pic32mz_ef_sk_meb2/debug/_ext/1847583374/gfx_default_impl.o
                0x9d01ee84                defHSyncCallbackGet

.text.defOrientationGet
                0x9d01eea4       0x20
 .text.defOrientationGet
                0x9d01eea4       0x20 build/pic32mz_ef_sk_meb2/debug/_ext/1847583374/gfx_default_impl.o
                0x9d01eea4                defOrientationGet

.text.defMirroringGet
                0x9d01eec4       0x20
 .text.defMirroringGet
                0x9d01eec4       0x20 build/pic32mz_ef_sk_meb2/debug/_ext/1847583374/gfx_default_impl.o
                0x9d01eec4                defMirroringGet

.text.defColorModeGet
                0x9d01eee4       0x20
 .text.defColorModeGet
                0x9d01eee4       0x20 build/pic32mz_ef_sk_meb2/debug/_ext/1847583374/gfx_default_impl.o
                0x9d01eee4                defColorModeGet

.text.defLayerActiveGet
                0x9d01ef04       0x20
 .text.defLayerActiveGet
                0x9d01ef04       0x20 build/pic32mz_ef_sk_meb2/debug/_ext/1847583374/gfx_default_impl.o
                0x9d01ef04                defLayerActiveGet

.text.defDrawModeGet
                0x9d01ef24       0x20
 .text.defDrawModeGet
                0x9d01ef24       0x20 build/pic32mz_ef_sk_meb2/debug/_ext/1847583374/gfx_default_impl.o
                0x9d01ef24                defDrawModeGet

.text.defDrawColorGet
                0x9d01ef44       0x20
 .text.defDrawColorGet
                0x9d01ef44       0x20 build/pic32mz_ef_sk_meb2/debug/_ext/1847583374/gfx_default_impl.o
                0x9d01ef44                defDrawColorGet

.text.defDrawBlendModeGet
                0x9d01ef64       0x20
 .text.defDrawBlendModeGet
                0x9d01ef64       0x20 build/pic32mz_ef_sk_meb2/debug/_ext/1847583374/gfx_default_impl.o
                0x9d01ef64                defDrawBlendModeGet

.text.defDrawAlphaEnableGet
                0x9d01ef84       0x20
 .text.defDrawAlphaEnableGet
                0x9d01ef84       0x20 build/pic32mz_ef_sk_meb2/debug/_ext/1847583374/gfx_default_impl.o
                0x9d01ef84                defDrawAlphaEnableGet

.text.defDrawAlphaValueGet
                0x9d01efa4       0x20
 .text.defDrawAlphaValueGet
                0x9d01efa4       0x20 build/pic32mz_ef_sk_meb2/debug/_ext/1847583374/gfx_default_impl.o
                0x9d01efa4                defDrawAlphaValueGet

.text.defDrawMaskEnableGet
                0x9d01efc4       0x20
 .text.defDrawMaskEnableGet
                0x9d01efc4       0x20 build/pic32mz_ef_sk_meb2/debug/_ext/1847583374/gfx_default_impl.o
                0x9d01efc4                defDrawMaskEnableGet

.text.defDrawMaskValueGet
                0x9d01efe4       0x20
 .text.defDrawMaskValueGet
                0x9d01efe4       0x20 build/pic32mz_ef_sk_meb2/debug/_ext/1847583374/gfx_default_impl.o
                0x9d01efe4                defDrawMaskValueGet

.text.defDrawThicknessGet
                0x9d01f004       0x20
 .text.defDrawThicknessGet
                0x9d01f004       0x20 build/pic32mz_ef_sk_meb2/debug/_ext/1847583374/gfx_default_impl.o
                0x9d01f004                defDrawThicknessGet

.text.defDrawClipEnabledGet
                0x9d01f024       0x20
 .text.defDrawClipEnabledGet
                0x9d01f024       0x20 build/pic32mz_ef_sk_meb2/debug/_ext/1847583374/gfx_default_impl.o
                0x9d01f024                defDrawClipEnabledGet

.text.gs8_rgb565
                0x9d01f044       0x20
 .text.gs8_rgb565
                0x9d01f044       0x20 build/pic32mz_ef_sk_meb2/debug/_ext/1847583374/gfx_color_convert.o

.text.gs8_rgba5551
                0x9d01f064       0x20
 .text.gs8_rgba5551
                0x9d01f064       0x20 build/pic32mz_ef_sk_meb2/debug/_ext/1847583374/gfx_color_convert.o

.text.rgb565_rgb332
                0x9d01f084       0x20
 .text.rgb565_rgb332
                0x9d01f084       0x20 build/pic32mz_ef_sk_meb2/debug/_ext/1847583374/gfx_color_convert.o

.text.rgba5551_rgb332
                0x9d01f0a4       0x20
 .text.rgba5551_rgb332
                0x9d01f0a4       0x20 build/pic32mz_ef_sk_meb2/debug/_ext/1847583374/gfx_color_convert.o

.text.rgb888_rgb565
                0x9d01f0c4       0x20
 .text.rgb888_rgb565
                0x9d01f0c4       0x20 build/pic32mz_ef_sk_meb2/debug/_ext/1847583374/gfx_color_convert.o

.text.rgba8888_rgb332
                0x9d01f0e4       0x20
 .text.rgba8888_rgb332
                0x9d01f0e4       0x20 build/pic32mz_ef_sk_meb2/debug/_ext/1847583374/gfx_color_convert.o

.text.rgba8888_rgb565
                0x9d01f104       0x20
 .text.rgba8888_rgb565
                0x9d01f104       0x20 build/pic32mz_ef_sk_meb2/debug/_ext/1847583374/gfx_color_convert.o

.text.driverLCCContextInitialize
                0x9d01f124       0x20
 .text.driverLCCContextInitialize
                0x9d01f124       0x20 build/pic32mz_ef_sk_meb2/debug/_ext/713288229/drv_gfx_lcc_generic.o
                0x9d01f124                driverLCCContextInitialize

.text.SYS_CLK_PeripheralFrequencyGet
                0x9d01f144       0x20
 .text.SYS_CLK_PeripheralFrequencyGet
                0x9d01f144       0x20 build/pic32mz_ef_sk_meb2/debug/_ext/1847413222/sys_clk.o
                0x9d01f144                SYS_CLK_PeripheralFrequencyGet

.text.Delay_ms  0x9d01f164       0x1c
 .text.Delay_ms
                0x9d01f164       0x1c build/pic32mz_ef_sk_meb2/debug/_ext/1360937237/ov2640.o
                0x9d01f164                Delay_ms

.text.laUpdate  0x9d01f180       0x1c
 .text.laUpdate
                0x9d01f180       0x1c build/pic32mz_ef_sk_meb2/debug/_ext/1907747181/libaria.o
                0x9d01f180                laUpdate

.text.laContext_GetStringTable
                0x9d01f19c       0x1c
 .text.laContext_GetStringTable
                0x9d01f19c       0x1c build/pic32mz_ef_sk_meb2/debug/_ext/1907747181/libaria_context.o
                0x9d01f19c                laContext_GetStringTable

.text.laContext_GetStringLanguage
                0x9d01f1b8       0x1c
 .text.laContext_GetStringLanguage
                0x9d01f1b8       0x1c build/pic32mz_ef_sk_meb2/debug/_ext/1907747181/libaria_context.o
                0x9d01f1b8                laContext_GetStringLanguage

.text.laContext_GetEditWidget
                0x9d01f1d4       0x1c
 .text.laContext_GetEditWidget
                0x9d01f1d4       0x1c build/pic32mz_ef_sk_meb2/debug/_ext/1907747181/libaria_context.o
                0x9d01f1d4                laContext_GetEditWidget

.text.laLayer_SetBufferCount
                0x9d01f1f0       0x1c
 .text.laLayer_SetBufferCount
                0x9d01f1f0       0x1c build/pic32mz_ef_sk_meb2/debug/_ext/1907747181/libaria_layer.o
                0x9d01f1f0                laLayer_SetBufferCount

.text._laLayer_Invalidate
                0x9d01f20c       0x1c
 .text._laLayer_Invalidate
                0x9d01f20c       0x1c build/pic32mz_ef_sk_meb2/debug/_ext/1907747181/libaria_layer.o
                0x9d01f20c                _laLayer_Invalidate

.text._laRectangleWidget_Destructor
                0x9d01f228       0x1c
 .text._laRectangleWidget_Destructor
                0x9d01f228       0x1c build/pic32mz_ef_sk_meb2/debug/_ext/1907747181/libaria_widget_rectangle.o
                0x9d01f228                _laRectangleWidget_Destructor

.text.defPixelGet
                0x9d01f244       0x1c
 .text.defPixelGet
                0x9d01f244       0x1c build/pic32mz_ef_sk_meb2/debug/_ext/1847583374/gfx_default_impl.o
                0x9d01f244                defPixelGet

.text.defPixelSet
                0x9d01f260       0x1c
 .text.defPixelSet
                0x9d01f260       0x1c build/pic32mz_ef_sk_meb2/debug/_ext/1847583374/gfx_default_impl.o
                0x9d01f260                defPixelSet

.text.GFX_DriverIntfInitialize
                0x9d01f27c       0x1c
 .text.GFX_DriverIntfInitialize
                0x9d01f27c       0x1c build/pic32mz_ef_sk_meb2/debug/_ext/1847583374/gfx_driver_interface.o
                0x9d01f27c                GFX_DriverIntfInitialize

.text.gs8_rgba8888
                0x9d01f298       0x1c
 .text.gs8_rgba8888
                0x9d01f298       0x1c build/pic32mz_ef_sk_meb2/debug/_ext/1847583374/gfx_color_convert.o

.text.gs8_argb8888
                0x9d01f2b4       0x1c
 .text.gs8_argb8888
                0x9d01f2b4       0x1c build/pic32mz_ef_sk_meb2/debug/_ext/1847583374/gfx_color_convert.o

.text.lerp_gs8  0x9d01f2d0       0x1c
 .text.lerp_gs8
                0x9d01f2d0       0x1c build/pic32mz_ef_sk_meb2/debug/_ext/1847583374/gfx_color_lerp.o

.text.getDiscreteValueAtIndex4
                0x9d01f2ec       0x18
 .text.getDiscreteValueAtIndex4
                0x9d01f2ec       0x18 build/pic32mz_ef_sk_meb2/debug/_ext/1597685232/gfxu_image_utils.o
                0x9d01f2ec                getDiscreteValueAtIndex4

.text.GFXU_DecodeASCII
                0x9d01f304       0x18
 .text.GFXU_DecodeASCII
                0x9d01f304       0x18 build/pic32mz_ef_sk_meb2/debug/_ext/1597685232/gfxu_string_utils.o
                0x9d01f304                GFXU_DecodeASCII

.text.GFX_DisplayInfoPtrGet
                0x9d01f31c       0x18
 .text.GFX_DisplayInfoPtrGet
                0x9d01f31c       0x18 build/pic32mz_ef_sk_meb2/debug/_ext/1847583374/gfx_display.o
                0x9d01f31c                GFX_DisplayInfoPtrGet

.text.gs8_rgb332
                0x9d01f334       0x18
 .text.gs8_rgb332
                0x9d01f334       0x18 build/pic32mz_ef_sk_meb2/debug/_ext/1847583374/gfx_color_convert.o

.text.rgb565_rgba5551
                0x9d01f34c       0x18
 .text.rgb565_rgba5551
                0x9d01f34c       0x18 build/pic32mz_ef_sk_meb2/debug/_ext/1847583374/gfx_color_convert.o

.text.IsQueueEmpty_0
                0x9d01f364       0x18
 .text.IsQueueEmpty_0
                0x9d01f364       0x18 build/pic32mz_ef_sk_meb2/debug/_ext/1219754583/drv_i2c_static_buffer_model.o
                0x9d01f364                IsQueueEmpty_0

.text           0x9d01f37c       0x18
 .text          0x9d01f37c       0x18 c:/program files (x86)/microchip/xc32/v1.42/bin/bin/../../lib/gcc/pic32mx/4.8.3/../../../../pic32mx/lib\libpic32.a(default-nmi-handler.o)
                0x9d01f37c                _nmi_handler

.text.paletteReadRequestCompleted
                0x9d01f394       0x28
 .text.paletteReadRequestCompleted
                0x9d01f394       0x14 build/pic32mz_ef_sk_meb2/debug/_ext/1597685232/gfxu_image_raw_external.o
 .text.paletteReadRequestCompleted
                0x9d01f3a8       0x14 build/pic32mz_ef_sk_meb2/debug/_ext/1597685232/gfxu_image_rle_external.o

.text.fontDataRequestCompleted
                0x9d01f3bc       0x14
 .text.fontDataRequestCompleted
                0x9d01f3bc       0x14 build/pic32mz_ef_sk_meb2/debug/_ext/1597685232/gfxu_string_external.o

.text.laContext_GetDefaultScheme
                0x9d01f3d0       0x14
 .text.laContext_GetDefaultScheme
                0x9d01f3d0       0x14 build/pic32mz_ef_sk_meb2/debug/_ext/1907747181/libaria_context.o
                0x9d01f3d0                laContext_GetDefaultScheme

.text.laScreen_GetLayerIndex
                0x9d01f3e4       0x14
 .text.laScreen_GetLayerIndex
                0x9d01f3e4       0x14 build/pic32mz_ef_sk_meb2/debug/_ext/1907747181/libaria_screen.o
                0x9d01f3e4                laScreen_GetLayerIndex

.text.defBrightnessRangeGet
                0x9d01f3f8       0x14
 .text.defBrightnessRangeGet
                0x9d01f3f8       0x14 build/pic32mz_ef_sk_meb2/debug/_ext/1847583374/gfx_default_impl.o
                0x9d01f3f8                defBrightnessRangeGet

.text.get_displayCount
                0x9d01f40c       0x14
 .text.get_displayCount
                0x9d01f40c       0x14 build/pic32mz_ef_sk_meb2/debug/_ext/1847583374/gfx_get.o
                0x9d01f40c                get_displayCount

.text.get_driverCount
                0x9d01f420       0x14
 .text.get_driverCount
                0x9d01f420       0x14 build/pic32mz_ef_sk_meb2/debug/_ext/1847583374/gfx_get.o
                0x9d01f420                get_driverCount

.text.gs8_rgb888
                0x9d01f434       0x14
 .text.gs8_rgb888
                0x9d01f434       0x14 build/pic32mz_ef_sk_meb2/debug/_ext/1847583374/gfx_color_convert.o

.text.rgba5551_rgb565
                0x9d01f448       0x14
 .text.rgba5551_rgb565
                0x9d01f448       0x14 build/pic32mz_ef_sk_meb2/debug/_ext/1847583374/gfx_color_convert.o

.text.SYS_DMA_Suspend
                0x9d01f45c       0x14
 .text.SYS_DMA_Suspend
                0x9d01f45c       0x14 build/pic32mz_ef_sk_meb2/debug/_ext/853959373/sys_dma.o
                0x9d01f45c                SYS_DMA_Suspend

.text.SYS_DMA_Resume
                0x9d01f470       0x14
 .text.SYS_DMA_Resume
                0x9d01f470       0x14 build/pic32mz_ef_sk_meb2/debug/_ext/853959373/sys_dma.o
                0x9d01f470                SYS_DMA_Resume

.text.SYS_INT_Initialize
                0x9d01f484       0x14
 .text.SYS_INT_Initialize
                0x9d01f484       0x14 build/pic32mz_ef_sk_meb2/debug/_ext/1042686532/sys_int_pic32.o
                0x9d01f484                SYS_INT_Initialize

.text.SYS_DEVCON_Initialize
                0x9d01f498       0x14
 .text.SYS_DEVCON_Initialize
                0x9d01f498       0x14 build/pic32mz_ef_sk_meb2/debug/_ext/924081491/sys_devcon.o
                0x9d01f498                SYS_DEVCON_Initialize

.rodata         0x9d01f4ac       0x20
 .rodata        0x9d01f4ac       0x10 build/pic32mz_ef_sk_meb2/debug/_ext/1907747181/libaria_widget_image_skin_classic.o
 .rodata        0x9d01f4bc       0x10 build/pic32mz_ef_sk_meb2/debug/_ext/1907747181/libaria_widget_label_skin_classic.o

.text.blend_rgba5551
                0x9d01f4cc       0x10
 .text.blend_rgba5551
                0x9d01f4cc       0x10 build/pic32mz_ef_sk_meb2/debug/_ext/1847583374/gfx_color_blend.o

.text.alpha_rgba8888
                0x9d01f4dc       0x10
 .text.alpha_rgba8888
                0x9d01f4dc       0x10 build/pic32mz_ef_sk_meb2/debug/_ext/1847583374/gfx_color_blend.o

.text.QueueInitialize_0
                0x9d01f4ec       0x10
 .text.QueueInitialize_0
                0x9d01f4ec       0x10 build/pic32mz_ef_sk_meb2/debug/_ext/1219754583/drv_i2c_static_buffer_model.o
                0x9d01f4ec                QueueInitialize_0

.text.DRV_I2C_Open
                0x9d01f4fc       0x10
 .text.DRV_I2C_Open
                0x9d01f4fc       0x10 build/pic32mz_ef_sk_meb2/debug/_ext/1219754583/drv_i2c_mapping.o
                0x9d01f4fc                DRV_I2C_Open

.text.__exception_handler_break
                0x9d01f50c        0xc
 .text.__exception_handler_break
                0x9d01f50c        0xc c:/program files (x86)/microchip/xc32/v1.42/bin/bin/../../lib/gcc/pic32mx/4.8.3/../../../../pic32mx/lib\software-debug-break.o
                0x9d01f50c                __exception_handler_break

.text.calcOffset24bpp
                0x9d01f518        0xc
 .text.calcOffset24bpp
                0x9d01f518        0xc build/pic32mz_ef_sk_meb2/debug/_ext/1597685232/gfxu_image_utils.o

.text.laContext_SetActive
                0x9d01f524        0xc
 .text.laContext_SetActive
                0x9d01f524        0xc build/pic32mz_ef_sk_meb2/debug/_ext/1907747181/libaria_context.o
                0x9d01f524                laContext_SetActive

.text.GFX_DriverIntfPtrGet
                0x9d01f530        0xc
 .text.GFX_DriverIntfPtrGet
                0x9d01f530        0xc build/pic32mz_ef_sk_meb2/debug/_ext/1847583374/gfx_driver_interface.o
                0x9d01f530                GFX_DriverIntfPtrGet

.text.alpha_rgba5551
                0x9d01f53c        0xc
 .text.alpha_rgba5551
                0x9d01f53c        0xc build/pic32mz_ef_sk_meb2/debug/_ext/1847583374/gfx_color_blend.o

.text.alpha_argb8888
                0x9d01f548        0xc
 .text.alpha_argb8888
                0x9d01f548        0xc build/pic32mz_ef_sk_meb2/debug/_ext/1847583374/gfx_color_blend.o

.text.rgb888_rgba8888
                0x9d01f554        0xc
 .text.rgb888_rgba8888
                0x9d01f554        0xc build/pic32mz_ef_sk_meb2/debug/_ext/1847583374/gfx_color_convert.o

.text.rgb888_argb8888
                0x9d01f560        0xc
 .text.rgb888_argb8888
                0x9d01f560        0xc build/pic32mz_ef_sk_meb2/debug/_ext/1847583374/gfx_color_convert.o

.text.DRV_I2C0_BufferEventHandlerSet
                0x9d01f56c        0xc
 .text.DRV_I2C0_BufferEventHandlerSet
                0x9d01f56c        0xc build/pic32mz_ef_sk_meb2/debug/_ext/1219754583/drv_i2c_static_buffer_model.o
                0x9d01f56c                DRV_I2C0_BufferEventHandlerSet

.text.SYS_CLK_SystemFrequencyGet
                0x9d01f578        0xc
 .text.SYS_CLK_SystemFrequencyGet
                0x9d01f578        0xc build/pic32mz_ef_sk_meb2/debug/_ext/1847413222/sys_clk.o
                0x9d01f578                SYS_CLK_SystemFrequencyGet

.text.getDiscreteValueAtIndex8
                0x9d01f584        0x8
 .text.getDiscreteValueAtIndex8
                0x9d01f584        0x8 build/pic32mz_ef_sk_meb2/debug/_ext/1597685232/gfxu_image_utils.o
                0x9d01f584                getDiscreteValueAtIndex8

.text.calcOffset1bpp
                0x9d01f58c        0x8
 .text.calcOffset1bpp
                0x9d01f58c        0x8 build/pic32mz_ef_sk_meb2/debug/_ext/1597685232/gfxu_image_utils.o

.text.calcOffset4bpp
                0x9d01f594        0x8
 .text.calcOffset4bpp
                0x9d01f594        0x8 build/pic32mz_ef_sk_meb2/debug/_ext/1597685232/gfxu_image_utils.o

.text.calcOffset8bpp
                0x9d01f59c        0x8
 .text.calcOffset8bpp
                0x9d01f59c        0x8 build/pic32mz_ef_sk_meb2/debug/_ext/1597685232/gfxu_image_utils.o

.text.calcOffset16bpp
                0x9d01f5a4        0x8
 .text.calcOffset16bpp
                0x9d01f5a4        0x8 build/pic32mz_ef_sk_meb2/debug/_ext/1597685232/gfxu_image_utils.o

.text.calcOffset32bpp
                0x9d01f5ac        0x8
 .text.calcOffset32bpp
                0x9d01f5ac        0x8 build/pic32mz_ef_sk_meb2/debug/_ext/1597685232/gfxu_image_utils.o

.text.laContext_GetActive
                0x9d01f5b4        0x8
 .text.laContext_GetActive
                0x9d01f5b4        0x8 build/pic32mz_ef_sk_meb2/debug/_ext/1907747181/libaria_context.o
                0x9d01f5b4                laContext_GetActive

.text.update    0x9d01f5bc        0x8
 .text.update   0x9d01f5bc        0x8 build/pic32mz_ef_sk_meb2/debug/_ext/1907747181/libaria_widget.o

.text.moved     0x9d01f5c4        0x8
 .text.moved    0x9d01f5c4        0x8 build/pic32mz_ef_sk_meb2/debug/_ext/1907747181/libaria_widget.o

.text.resized   0x9d01f5cc        0x8
 .text.resized  0x9d01f5cc        0x8 build/pic32mz_ef_sk_meb2/debug/_ext/1907747181/libaria_widget.o

.text.focusGained
                0x9d01f5d4        0x8
 .text.focusGained
                0x9d01f5d4        0x8 build/pic32mz_ef_sk_meb2/debug/_ext/1907747181/libaria_widget.o

.text.focusLost
                0x9d01f5dc        0x8
 .text.focusLost
                0x9d01f5dc        0x8 build/pic32mz_ef_sk_meb2/debug/_ext/1907747181/libaria_widget.o

.text.touchDownEvent
                0x9d01f5e4        0x8
 .text.touchDownEvent
                0x9d01f5e4        0x8 build/pic32mz_ef_sk_meb2/debug/_ext/1907747181/libaria_widget.o

.text.touchUpEvent
                0x9d01f5ec        0x8
 .text.touchUpEvent
                0x9d01f5ec        0x8 build/pic32mz_ef_sk_meb2/debug/_ext/1907747181/libaria_widget.o

.text.touchMovedEvent
                0x9d01f5f4        0x8
 .text.touchMovedEvent
                0x9d01f5f4        0x8 build/pic32mz_ef_sk_meb2/debug/_ext/1907747181/libaria_widget.o

.text.GFX_ActiveContext
                0x9d01f5fc        0x8
 .text.GFX_ActiveContext
                0x9d01f5fc        0x8 build/pic32mz_ef_sk_meb2/debug/_ext/1847583374/gfx_context.o
                0x9d01f5fc                GFX_ActiveContext

.text.GFX_ContextActiveSet
                0x9d01f604        0x8
 .text.GFX_ContextActiveSet
                0x9d01f604        0x8 build/pic32mz_ef_sk_meb2/debug/_ext/1847583374/gfx_context.o
                0x9d01f604                GFX_ContextActiveSet

.text._GFX_DefaultSyncCallback
                0x9d01f60c        0x8
 .text._GFX_DefaultSyncCallback
                0x9d01f60c        0x8 build/pic32mz_ef_sk_meb2/debug/_ext/1847583374/gfx_context.o
                0x9d01f60c                _GFX_DefaultSyncCallback

.text.defUpdate
                0x9d01f614        0x8
 .text.defUpdate
                0x9d01f614        0x8 build/pic32mz_ef_sk_meb2/debug/_ext/1847583374/gfx_default_impl.o
                0x9d01f614                defUpdate

.text.defLayerSwapped
                0x9d01f61c        0x8
 .text.defLayerSwapped
                0x9d01f61c        0x8 build/pic32mz_ef_sk_meb2/debug/_ext/1847583374/gfx_default_impl.o
                0x9d01f61c                defLayerSwapped

.text.defDrawLock
                0x9d01f624        0x8
 .text.defDrawLock
                0x9d01f624        0x8 build/pic32mz_ef_sk_meb2/debug/_ext/1847583374/gfx_default_impl.o
                0x9d01f624                defDrawLock

.text.defDrawUnlock
                0x9d01f62c        0x8
 .text.defDrawUnlock
                0x9d01f62c        0x8 build/pic32mz_ef_sk_meb2/debug/_ext/1847583374/gfx_default_impl.o
                0x9d01f62c                defDrawUnlock

.text.defInterrupt
                0x9d01f634        0x8
 .text.defInterrupt
                0x9d01f634        0x8 build/pic32mz_ef_sk_meb2/debug/_ext/1847583374/gfx_default_impl.o
                0x9d01f634                defInterrupt

.text.get_unimplemented
                0x9d01f63c        0x8
 .text.get_unimplemented
                0x9d01f63c        0x8 build/pic32mz_ef_sk_meb2/debug/_ext/1847583374/gfx_get.o
                0x9d01f63c                get_unimplemented

.text.set_unimplemented
                0x9d01f644        0x8
 .text.set_unimplemented
                0x9d01f644        0x8 build/pic32mz_ef_sk_meb2/debug/_ext/1847583374/gfx_set.o
                0x9d01f644                set_unimplemented

.text.blend_none
                0x9d01f64c        0x8
 .text.blend_none
                0x9d01f64c        0x8 build/pic32mz_ef_sk_meb2/debug/_ext/1847583374/gfx_color_blend.o

.text.alpha_none
                0x9d01f654        0x8
 .text.alpha_none
                0x9d01f654        0x8 build/pic32mz_ef_sk_meb2/debug/_ext/1847583374/gfx_color_blend.o

.text.no_conv   0x9d01f65c        0x8
 .text.no_conv  0x9d01f65c        0x8 build/pic32mz_ef_sk_meb2/debug/_ext/1847583374/gfx_color_convert.o

.text.gs8_yuv   0x9d01f664        0x8
 .text.gs8_yuv  0x9d01f664        0x8 build/pic32mz_ef_sk_meb2/debug/_ext/1847583374/gfx_color_convert.o

.text.rgb332_yuv
                0x9d01f66c        0x8
 .text.rgb332_yuv
                0x9d01f66c        0x8 build/pic32mz_ef_sk_meb2/debug/_ext/1847583374/gfx_color_convert.o

.text.rgb565_yuv
                0x9d01f674        0x8
 .text.rgb565_yuv
                0x9d01f674        0x8 build/pic32mz_ef_sk_meb2/debug/_ext/1847583374/gfx_color_convert.o

.text.rgba5551_gs8
                0x9d01f67c        0x8
 .text.rgba5551_gs8
                0x9d01f67c        0x8 build/pic32mz_ef_sk_meb2/debug/_ext/1847583374/gfx_color_convert.o

.text.rgba5551_yuv
                0x9d01f684        0x8
 .text.rgba5551_yuv
                0x9d01f684        0x8 build/pic32mz_ef_sk_meb2/debug/_ext/1847583374/gfx_color_convert.o

.text.rgb888_gs8
                0x9d01f68c        0x8
 .text.rgb888_gs8
                0x9d01f68c        0x8 build/pic32mz_ef_sk_meb2/debug/_ext/1847583374/gfx_color_convert.o

.text.rgb888_yuv
                0x9d01f694        0x8
 .text.rgb888_yuv
                0x9d01f694        0x8 build/pic32mz_ef_sk_meb2/debug/_ext/1847583374/gfx_color_convert.o

.text.rgba8888_gs8
                0x9d01f69c        0x8
 .text.rgba8888_gs8
                0x9d01f69c        0x8 build/pic32mz_ef_sk_meb2/debug/_ext/1847583374/gfx_color_convert.o

.text.rgba8888_argb8888
                0x9d01f6a4        0x8
 .text.rgba8888_argb8888
                0x9d01f6a4        0x8 build/pic32mz_ef_sk_meb2/debug/_ext/1847583374/gfx_color_convert.o

.text.rgba8888_yuv
                0x9d01f6ac        0x8
 .text.rgba8888_yuv
                0x9d01f6ac        0x8 build/pic32mz_ef_sk_meb2/debug/_ext/1847583374/gfx_color_convert.o

.text.argb8888_rgb888
                0x9d01f6b4        0x8
 .text.argb8888_rgb888
                0x9d01f6b4        0x8 build/pic32mz_ef_sk_meb2/debug/_ext/1847583374/gfx_color_convert.o

.text.argb8888_rgba8888
                0x9d01f6bc        0x8
 .text.argb8888_rgba8888
                0x9d01f6bc        0x8 build/pic32mz_ef_sk_meb2/debug/_ext/1847583374/gfx_color_convert.o

.text.yuv_gs8   0x9d01f6c4        0x8
 .text.yuv_gs8  0x9d01f6c4        0x8 build/pic32mz_ef_sk_meb2/debug/_ext/1847583374/gfx_color_convert.o

.text.yuv_rgb332
                0x9d01f6cc        0x8
 .text.yuv_rgb332
                0x9d01f6cc        0x8 build/pic32mz_ef_sk_meb2/debug/_ext/1847583374/gfx_color_convert.o

.text.yuv_rgb565
                0x9d01f6d4        0x8
 .text.yuv_rgb565
                0x9d01f6d4        0x8 build/pic32mz_ef_sk_meb2/debug/_ext/1847583374/gfx_color_convert.o

.text.yuv_rgba5551
                0x9d01f6dc        0x8
 .text.yuv_rgba5551
                0x9d01f6dc        0x8 build/pic32mz_ef_sk_meb2/debug/_ext/1847583374/gfx_color_convert.o

.text.yuv_rgb888
                0x9d01f6e4        0x8
 .text.yuv_rgb888
                0x9d01f6e4        0x8 build/pic32mz_ef_sk_meb2/debug/_ext/1847583374/gfx_color_convert.o

.text.yuv_rgba8888
                0x9d01f6ec        0x8
 .text.yuv_rgba8888
                0x9d01f6ec        0x8 build/pic32mz_ef_sk_meb2/debug/_ext/1847583374/gfx_color_convert.o

.text.yuv_argb8888
                0x9d01f6f4        0x8
 .text.yuv_argb8888
                0x9d01f6f4        0x8 build/pic32mz_ef_sk_meb2/debug/_ext/1847583374/gfx_color_convert.o

.text.lut_yuv   0x9d01f6fc        0x8
 .text.lut_yuv  0x9d01f6fc        0x8 build/pic32mz_ef_sk_meb2/debug/_ext/1847583374/gfx_color_convert.o

.text.cpuDrawLine_AA
                0x9d01f704        0x8
 .text.cpuDrawLine_AA
                0x9d01f704        0x8 build/pic32mz_ef_sk_meb2/debug/_ext/1847583374/gfx_draw_line.o
                0x9d01f704                cpuDrawLine_AA

.text.cpuDrawRect_Line_AA
                0x9d01f70c        0x8
 .text.cpuDrawRect_Line_AA
                0x9d01f70c        0x8 build/pic32mz_ef_sk_meb2/debug/_ext/1847583374/gfx_draw_rect.o
                0x9d01f70c                cpuDrawRect_Line_AA

.text.cpuDrawRect_Fill_AA
                0x9d01f714        0x8
 .text.cpuDrawRect_Fill_AA
                0x9d01f714        0x8 build/pic32mz_ef_sk_meb2/debug/_ext/1847583374/gfx_draw_rect.o
                0x9d01f714                cpuDrawRect_Fill_AA

.text.DRV_I2C0_TransferStatusGet
                0x9d01f71c        0x8
 .text.DRV_I2C0_TransferStatusGet
                0x9d01f71c        0x8 build/pic32mz_ef_sk_meb2/debug/_ext/1219754583/drv_i2c_static_buffer_model.o
                0x9d01f71c                DRV_I2C0_TransferStatusGet

.text.DRV_TMR_Open
                0x9d01f724        0x8
 .text.DRV_TMR_Open
                0x9d01f724        0x8 build/pic32mz_ef_sk_meb2/debug/_ext/199634090/drv_tmr_mapping.o
                0x9d01f724                DRV_TMR_Open

.text.layerBufferCountSet
                0x9d01f72c        0x8
 .text.layerBufferCountSet
                0x9d01f72c        0x8 build/pic32mz_ef_sk_meb2/debug/_ext/713288229/drv_gfx_lcc_generic.o

.text.layerBufferAddressSet
                0x9d01f734        0x8
 .text.layerBufferAddressSet
                0x9d01f734        0x8 build/pic32mz_ef_sk_meb2/debug/_ext/713288229/drv_gfx_lcc_generic.o

.text.layerBufferAllocate
                0x9d01f73c        0x8
 .text.layerBufferAllocate
                0x9d01f73c        0x8 build/pic32mz_ef_sk_meb2/debug/_ext/713288229/drv_gfx_lcc_generic.o

.text._on_reset
                0x9d01f744        0x8
 .text._on_reset
                0x9d01f744        0x8 c:/program files (x86)/microchip/xc32/v1.42/bin/bin/../../lib/gcc/pic32mx/4.8.3/../../../../pic32mx/lib\libpic32.a(default-on-reset.o)
                0x9d01f744                _on_reset

.text._on_bootstrap
                0x9d01f74c        0x8
 .text._on_bootstrap
                0x9d01f74c        0x8 c:/program files (x86)/microchip/xc32/v1.42/bin/bin/../../lib/gcc/pic32mx/4.8.3/../../../../pic32mx/lib\libpic32.a(default-on-bootstrap.o)
                0x9d01f74c                _on_bootstrap

.rodata         0x9d01f754        0x8
 .rodata        0x9d01f754        0x4 build/pic32mz_ef_sk_meb2/debug/_ext/713288229/drv_gfx_lcc_generic.o
 .rodata        0x9d01f758        0x4 build/pic32mz_ef_sk_meb2/debug/_ext/1951523377/system_init.o
                0x9d01f758                sysDmaInit
